
bin/rtos.elf:     file format elf32-littlearm


Disassembly of section .text:

00000000 <g_pfnVectors>:
       0:	2000c000 	andcs	ip, r0, r0
       4:	00000c5d 	andeq	r0, r0, sp, asr ip
       8:	0000026d 	andeq	r0, r0, sp, ror #4
       c:	00000273 	andeq	r0, r0, r3, ror r2
      10:	00000279 	andeq	r0, r0, r9, ror r2
      14:	00000279 	andeq	r0, r0, r9, ror r2
      18:	00000279 	andeq	r0, r0, r9, ror r2
	...
      2c:	00000279 	andeq	r0, r0, r9, ror r2
      30:	00000279 	andeq	r0, r0, r9, ror r2
      34:	00000000 	andeq	r0, r0, r0
      38:	00000c93 	muleq	r0, r3, ip
      3c:	000002cd 	andeq	r0, r0, sp, asr #5
      40:	00000279 	andeq	r0, r0, r9, ror r2
      44:	00000279 	andeq	r0, r0, r9, ror r2
      48:	00000279 	andeq	r0, r0, r9, ror r2
      4c:	00000279 	andeq	r0, r0, r9, ror r2
      50:	00000279 	andeq	r0, r0, r9, ror r2
      54:	00000279 	andeq	r0, r0, r9, ror r2
      58:	00000279 	andeq	r0, r0, r9, ror r2
      5c:	00000279 	andeq	r0, r0, r9, ror r2
      60:	00000279 	andeq	r0, r0, r9, ror r2
      64:	00000279 	andeq	r0, r0, r9, ror r2
      68:	00000279 	andeq	r0, r0, r9, ror r2
      6c:	00000279 	andeq	r0, r0, r9, ror r2
      70:	00000279 	andeq	r0, r0, r9, ror r2
      74:	00000279 	andeq	r0, r0, r9, ror r2
      78:	00000279 	andeq	r0, r0, r9, ror r2
      7c:	00000279 	andeq	r0, r0, r9, ror r2
      80:	00000279 	andeq	r0, r0, r9, ror r2
      84:	00000279 	andeq	r0, r0, r9, ror r2
      88:	00000279 	andeq	r0, r0, r9, ror r2
      8c:	00000279 	andeq	r0, r0, r9, ror r2
      90:	00000279 	andeq	r0, r0, r9, ror r2
      94:	00000279 	andeq	r0, r0, r9, ror r2
      98:	00000279 	andeq	r0, r0, r9, ror r2
      9c:	00000279 	andeq	r0, r0, r9, ror r2
      a0:	00000279 	andeq	r0, r0, r9, ror r2
      a4:	00000279 	andeq	r0, r0, r9, ror r2
      a8:	00000279 	andeq	r0, r0, r9, ror r2
      ac:	00000279 	andeq	r0, r0, r9, ror r2
      b0:	00000279 	andeq	r0, r0, r9, ror r2
      b4:	00000279 	andeq	r0, r0, r9, ror r2
      b8:	00000279 	andeq	r0, r0, r9, ror r2
      bc:	00000279 	andeq	r0, r0, r9, ror r2
      c0:	00000279 	andeq	r0, r0, r9, ror r2
      c4:	00000279 	andeq	r0, r0, r9, ror r2
      c8:	00000279 	andeq	r0, r0, r9, ror r2
      cc:	00000279 	andeq	r0, r0, r9, ror r2
      d0:	00000279 	andeq	r0, r0, r9, ror r2
      d4:	00000279 	andeq	r0, r0, r9, ror r2
      d8:	00000279 	andeq	r0, r0, r9, ror r2
      dc:	00000279 	andeq	r0, r0, r9, ror r2
      e0:	00000279 	andeq	r0, r0, r9, ror r2
      e4:	00000279 	andeq	r0, r0, r9, ror r2
      e8:	00000279 	andeq	r0, r0, r9, ror r2
      ec:	00000279 	andeq	r0, r0, r9, ror r2
      f0:	00000279 	andeq	r0, r0, r9, ror r2
      f4:	00000279 	andeq	r0, r0, r9, ror r2
      f8:	00000279 	andeq	r0, r0, r9, ror r2
      fc:	00000279 	andeq	r0, r0, r9, ror r2
     100:	00000279 	andeq	r0, r0, r9, ror r2
     104:	00000279 	andeq	r0, r0, r9, ror r2
     108:	00000279 	andeq	r0, r0, r9, ror r2
     10c:	00000279 	andeq	r0, r0, r9, ror r2
     110:	00000279 	andeq	r0, r0, r9, ror r2
     114:	00000279 	andeq	r0, r0, r9, ror r2
     118:	00000279 	andeq	r0, r0, r9, ror r2
     11c:	00000279 	andeq	r0, r0, r9, ror r2
     120:	00000279 	andeq	r0, r0, r9, ror r2
     124:	00000279 	andeq	r0, r0, r9, ror r2
     128:	00000279 	andeq	r0, r0, r9, ror r2
     12c:	00000279 	andeq	r0, r0, r9, ror r2
     130:	00000279 	andeq	r0, r0, r9, ror r2
     134:	00000279 	andeq	r0, r0, r9, ror r2
     138:	00000279 	andeq	r0, r0, r9, ror r2
     13c:	00000279 	andeq	r0, r0, r9, ror r2
	...
     150:	00000279 	andeq	r0, r0, r9, ror r2
     154:	00000279 	andeq	r0, r0, r9, ror r2
     158:	00000279 	andeq	r0, r0, r9, ror r2
     15c:	00000279 	andeq	r0, r0, r9, ror r2
	...
     1b0:	00000279 	andeq	r0, r0, r9, ror r2
     1b4:	00000279 	andeq	r0, r0, r9, ror r2
     1b8:	00000279 	andeq	r0, r0, r9, ror r2
     1bc:	00000279 	andeq	r0, r0, r9, ror r2
     1c0:	00000279 	andeq	r0, r0, r9, ror r2
     1c4:	00000279 	andeq	r0, r0, r9, ror r2
     1c8:	00000279 	andeq	r0, r0, r9, ror r2
     1cc:	00000279 	andeq	r0, r0, r9, ror r2
     1d0:	00000279 	andeq	r0, r0, r9, ror r2
     1d4:	00000279 	andeq	r0, r0, r9, ror r2
     1d8:	00000279 	andeq	r0, r0, r9, ror r2
     1dc:	00000279 	andeq	r0, r0, r9, ror r2
     1e0:	00000279 	andeq	r0, r0, r9, ror r2
     1e4:	00000279 	andeq	r0, r0, r9, ror r2
     1e8:	00000279 	andeq	r0, r0, r9, ror r2
     1ec:	00000279 	andeq	r0, r0, r9, ror r2
     1f0:	00000279 	andeq	r0, r0, r9, ror r2
     1f4:	00000279 	andeq	r0, r0, r9, ror r2
     1f8:	00000279 	andeq	r0, r0, r9, ror r2
     1fc:	00000279 	andeq	r0, r0, r9, ror r2
     200:	00000279 	andeq	r0, r0, r9, ror r2
     204:	00000279 	andeq	r0, r0, r9, ror r2
     208:	00000279 	andeq	r0, r0, r9, ror r2
     20c:	00000000 	andeq	r0, r0, r0
     210:	00000279 	andeq	r0, r0, r9, ror r2
     214:	00000279 	andeq	r0, r0, r9, ror r2
     218:	00000279 	andeq	r0, r0, r9, ror r2
     21c:	00000279 	andeq	r0, r0, r9, ror r2
     220:	00000279 	andeq	r0, r0, r9, ror r2
     224:	00000279 	andeq	r0, r0, r9, ror r2
     228:	00000279 	andeq	r0, r0, r9, ror r2
     22c:	00000279 	andeq	r0, r0, r9, ror r2
     230:	00000279 	andeq	r0, r0, r9, ror r2
     234:	00000279 	andeq	r0, r0, r9, ror r2
     238:	00000279 	andeq	r0, r0, r9, ror r2
     23c:	00000279 	andeq	r0, r0, r9, ror r2
     240:	00000279 	andeq	r0, r0, r9, ror r2
     244:	00000279 	andeq	r0, r0, r9, ror r2
     248:	00000279 	andeq	r0, r0, r9, ror r2
     24c:	00000279 	andeq	r0, r0, r9, ror r2
     250:	00000279 	andeq	r0, r0, r9, ror r2
     254:	00000279 	andeq	r0, r0, r9, ror r2
     258:	00000279 	andeq	r0, r0, r9, ror r2
     25c:	00000279 	andeq	r0, r0, r9, ror r2
     260:	00000279 	andeq	r0, r0, r9, ror r2
     264:	00000279 	andeq	r0, r0, r9, ror r2
     268:	00000279 	andeq	r0, r0, r9, ror r2

0000026c <NmiSR>:
     26c:	b480      	push	{r7}
     26e:	af00      	add	r7, sp, #0
     270:	e7fe      	b.n	270 <NmiSR+0x4>

00000272 <FaultISR>:
     272:	b480      	push	{r7}
     274:	af00      	add	r7, sp, #0
     276:	e7fe      	b.n	276 <FaultISR+0x4>

00000278 <IntDefaultHandler>:
     278:	b580      	push	{r7, lr}
     27a:	af00      	add	r7, sp, #0
     27c:	4801      	ldr	r0, [pc, #4]	; (284 <IntDefaultHandler+0xc>)
     27e:	f000 fa91 	bl	7a4 <printk>
     282:	e7fe      	b.n	282 <IntDefaultHandler+0xa>
     284:	00002cd0 	ldrdeq	r2, [r0], -r0

00000288 <init_systick>:
     288:	b480      	push	{r7}
     28a:	b085      	sub	sp, #20
     28c:	af00      	add	r7, sp, #0
     28e:	6078      	str	r0, [r7, #4]
     290:	4b0c      	ldr	r3, [pc, #48]	; (2c4 <init_systick+0x3c>)
     292:	60fb      	str	r3, [r7, #12]
     294:	4b0c      	ldr	r3, [pc, #48]	; (2c8 <init_systick+0x40>)
     296:	60bb      	str	r3, [r7, #8]
     298:	68bb      	ldr	r3, [r7, #8]
     29a:	22f0      	movs	r2, #240	; 0xf0
     29c:	701a      	strb	r2, [r3, #0]
     29e:	687b      	ldr	r3, [r7, #4]
     2a0:	f642 62e0 	movw	r2, #12000	; 0x2ee0
     2a4:	fb02 f303 	mul.w	r3, r2, r3
     2a8:	1e5a      	subs	r2, r3, #1
     2aa:	68fb      	ldr	r3, [r7, #12]
     2ac:	605a      	str	r2, [r3, #4]
     2ae:	68fb      	ldr	r3, [r7, #12]
     2b0:	2200      	movs	r2, #0
     2b2:	609a      	str	r2, [r3, #8]
     2b4:	68fb      	ldr	r3, [r7, #12]
     2b6:	2207      	movs	r2, #7
     2b8:	601a      	str	r2, [r3, #0]
     2ba:	bf00      	nop
     2bc:	3714      	adds	r7, #20
     2be:	46bd      	mov	sp, r7
     2c0:	bc80      	pop	{r7}
     2c2:	4770      	bx	lr
     2c4:	e000e010 	and	lr, r0, r0, lsl r0
     2c8:	e000ed23 	and	lr, r0, r3, lsr #26

000002cc <systick_handler>:
     2cc:	b580      	push	{r7, lr}
     2ce:	af00      	add	r7, sp, #0
     2d0:	f000 fe3d 	bl	f4e <task_system_tick_handler>
     2d4:	bf00      	nop
     2d6:	bd80      	pop	{r7, pc}

000002d8 <trigger_pend_sv>:
     2d8:	b480      	push	{r7}
     2da:	af00      	add	r7, sp, #0
     2dc:	4b05      	ldr	r3, [pc, #20]	; (2f4 <trigger_pend_sv+0x1c>)
     2de:	22ff      	movs	r2, #255	; 0xff
     2e0:	701a      	strb	r2, [r3, #0]
     2e2:	4b05      	ldr	r3, [pc, #20]	; (2f8 <trigger_pend_sv+0x20>)
     2e4:	f04f 5280 	mov.w	r2, #268435456	; 0x10000000
     2e8:	601a      	str	r2, [r3, #0]
     2ea:	bf00      	nop
     2ec:	46bd      	mov	sp, r7
     2ee:	bc80      	pop	{r7}
     2f0:	4770      	bx	lr
     2f2:	bf00      	nop
     2f4:	e000ed22 	and	lr, r0, r2, lsr #26
     2f8:	e000ed04 	and	lr, r0, r4, lsl #26

000002fc <send_char>:
     2fc:	b480      	push	{r7}
     2fe:	b083      	sub	sp, #12
     300:	af00      	add	r7, sp, #0
     302:	6078      	str	r0, [r7, #4]
     304:	687b      	ldr	r3, [r7, #4]
     306:	781a      	ldrb	r2, [r3, #0]
     308:	4b04      	ldr	r3, [pc, #16]	; (31c <send_char+0x20>)
     30a:	601a      	str	r2, [r3, #0]
     30c:	687b      	ldr	r3, [r7, #4]
     30e:	781b      	ldrb	r3, [r3, #0]
     310:	4618      	mov	r0, r3
     312:	370c      	adds	r7, #12
     314:	46bd      	mov	sp, r7
     316:	bc80      	pop	{r7}
     318:	4770      	bx	lr
     31a:	bf00      	nop
     31c:	4000c000 	andmi	ip, r0, r0

00000320 <is_dec_asc>:
     320:	b480      	push	{r7}
     322:	b085      	sub	sp, #20
     324:	af00      	add	r7, sp, #0
     326:	4603      	mov	r3, r0
     328:	71fb      	strb	r3, [r7, #7]
     32a:	2300      	movs	r3, #0
     32c:	60fb      	str	r3, [r7, #12]
     32e:	e00b      	b.n	348 <is_dec_asc+0x28>
     330:	4a0a      	ldr	r2, [pc, #40]	; (35c <is_dec_asc+0x3c>)
     332:	68fb      	ldr	r3, [r7, #12]
     334:	4413      	add	r3, r2
     336:	781b      	ldrb	r3, [r3, #0]
     338:	79fa      	ldrb	r2, [r7, #7]
     33a:	429a      	cmp	r2, r3
     33c:	d101      	bne.n	342 <is_dec_asc+0x22>
     33e:	2301      	movs	r3, #1
     340:	e006      	b.n	350 <is_dec_asc+0x30>
     342:	68fb      	ldr	r3, [r7, #12]
     344:	3301      	adds	r3, #1
     346:	60fb      	str	r3, [r7, #12]
     348:	68fb      	ldr	r3, [r7, #12]
     34a:	2b09      	cmp	r3, #9
     34c:	d9f0      	bls.n	330 <is_dec_asc+0x10>
     34e:	2300      	movs	r3, #0
     350:	4618      	mov	r0, r3
     352:	3714      	adds	r7, #20
     354:	46bd      	mov	sp, r7
     356:	bc80      	pop	{r7}
     358:	4770      	bx	lr
     35a:	bf00      	nop
     35c:	00002ce8 	andeq	r2, r0, r8, ror #25

00000360 <is_asc>:
     360:	b480      	push	{r7}
     362:	b083      	sub	sp, #12
     364:	af00      	add	r7, sp, #0
     366:	4603      	mov	r3, r0
     368:	71fb      	strb	r3, [r7, #7]
     36a:	79fb      	ldrb	r3, [r7, #7]
     36c:	2b40      	cmp	r3, #64	; 0x40
     36e:	d902      	bls.n	376 <is_asc+0x16>
     370:	79fb      	ldrb	r3, [r7, #7]
     372:	2b5a      	cmp	r3, #90	; 0x5a
     374:	d905      	bls.n	382 <is_asc+0x22>
     376:	79fb      	ldrb	r3, [r7, #7]
     378:	2b60      	cmp	r3, #96	; 0x60
     37a:	d904      	bls.n	386 <is_asc+0x26>
     37c:	79fb      	ldrb	r3, [r7, #7]
     37e:	2b7a      	cmp	r3, #122	; 0x7a
     380:	d801      	bhi.n	386 <is_asc+0x26>
     382:	2301      	movs	r3, #1
     384:	e000      	b.n	388 <is_asc+0x28>
     386:	2300      	movs	r3, #0
     388:	4618      	mov	r0, r3
     38a:	370c      	adds	r7, #12
     38c:	46bd      	mov	sp, r7
     38e:	bc80      	pop	{r7}
     390:	4770      	bx	lr

00000392 <is_hex_asc>:
     392:	b480      	push	{r7}
     394:	b083      	sub	sp, #12
     396:	af00      	add	r7, sp, #0
     398:	4603      	mov	r3, r0
     39a:	71fb      	strb	r3, [r7, #7]
     39c:	79fb      	ldrb	r3, [r7, #7]
     39e:	2b2f      	cmp	r3, #47	; 0x2f
     3a0:	d902      	bls.n	3a8 <is_hex_asc+0x16>
     3a2:	79fb      	ldrb	r3, [r7, #7]
     3a4:	2b39      	cmp	r3, #57	; 0x39
     3a6:	d90b      	bls.n	3c0 <is_hex_asc+0x2e>
     3a8:	79fb      	ldrb	r3, [r7, #7]
     3aa:	2b40      	cmp	r3, #64	; 0x40
     3ac:	d902      	bls.n	3b4 <is_hex_asc+0x22>
     3ae:	79fb      	ldrb	r3, [r7, #7]
     3b0:	2b46      	cmp	r3, #70	; 0x46
     3b2:	d905      	bls.n	3c0 <is_hex_asc+0x2e>
     3b4:	79fb      	ldrb	r3, [r7, #7]
     3b6:	2b60      	cmp	r3, #96	; 0x60
     3b8:	d904      	bls.n	3c4 <is_hex_asc+0x32>
     3ba:	79fb      	ldrb	r3, [r7, #7]
     3bc:	2b66      	cmp	r3, #102	; 0x66
     3be:	d801      	bhi.n	3c4 <is_hex_asc+0x32>
     3c0:	2301      	movs	r3, #1
     3c2:	e000      	b.n	3c6 <is_hex_asc+0x34>
     3c4:	2300      	movs	r3, #0
     3c6:	4618      	mov	r0, r3
     3c8:	370c      	adds	r7, #12
     3ca:	46bd      	mov	sp, r7
     3cc:	bc80      	pop	{r7}
     3ce:	4770      	bx	lr

000003d0 <printf_char>:
     3d0:	b580      	push	{r7, lr}
     3d2:	b084      	sub	sp, #16
     3d4:	af00      	add	r7, sp, #0
     3d6:	4603      	mov	r3, r0
     3d8:	71fb      	strb	r3, [r7, #7]
     3da:	230d      	movs	r3, #13
     3dc:	73fb      	strb	r3, [r7, #15]
     3de:	2300      	movs	r3, #0
     3e0:	73bb      	strb	r3, [r7, #14]
     3e2:	79fb      	ldrb	r3, [r7, #7]
     3e4:	73bb      	strb	r3, [r7, #14]
     3e6:	f107 030e 	add.w	r3, r7, #14
     3ea:	4618      	mov	r0, r3
     3ec:	f7ff ff86 	bl	2fc <send_char>
     3f0:	7bbb      	ldrb	r3, [r7, #14]
     3f2:	2b0a      	cmp	r3, #10
     3f4:	d104      	bne.n	400 <printf_char+0x30>
     3f6:	f107 030f 	add.w	r3, r7, #15
     3fa:	4618      	mov	r0, r3
     3fc:	f7ff ff7e 	bl	2fc <send_char>
     400:	2300      	movs	r3, #0
     402:	4618      	mov	r0, r3
     404:	3710      	adds	r7, #16
     406:	46bd      	mov	sp, r7
     408:	bd80      	pop	{r7, pc}

0000040a <printf_str>:
     40a:	b580      	push	{r7, lr}
     40c:	b082      	sub	sp, #8
     40e:	af00      	add	r7, sp, #0
     410:	6078      	str	r0, [r7, #4]
     412:	e007      	b.n	424 <printf_str+0x1a>
     414:	687b      	ldr	r3, [r7, #4]
     416:	781b      	ldrb	r3, [r3, #0]
     418:	4618      	mov	r0, r3
     41a:	f7ff ffd9 	bl	3d0 <printf_char>
     41e:	687b      	ldr	r3, [r7, #4]
     420:	3301      	adds	r3, #1
     422:	607b      	str	r3, [r7, #4]
     424:	687b      	ldr	r3, [r7, #4]
     426:	2b00      	cmp	r3, #0
     428:	d003      	beq.n	432 <printf_str+0x28>
     42a:	687b      	ldr	r3, [r7, #4]
     42c:	781b      	ldrb	r3, [r3, #0]
     42e:	2b00      	cmp	r3, #0
     430:	d1f0      	bne.n	414 <printf_str+0xa>
     432:	2300      	movs	r3, #0
     434:	4618      	mov	r0, r3
     436:	3708      	adds	r7, #8
     438:	46bd      	mov	sp, r7
     43a:	bd80      	pop	{r7, pc}

0000043c <printf_hex>:
     43c:	b580      	push	{r7, lr}
     43e:	b084      	sub	sp, #16
     440:	af00      	add	r7, sp, #0
     442:	6078      	str	r0, [r7, #4]
     444:	6039      	str	r1, [r7, #0]
     446:	2300      	movs	r3, #0
     448:	60fb      	str	r3, [r7, #12]
     44a:	2300      	movs	r3, #0
     44c:	72fb      	strb	r3, [r7, #11]
     44e:	2300      	movs	r3, #0
     450:	72bb      	strb	r3, [r7, #10]
     452:	683b      	ldr	r3, [r7, #0]
     454:	2b08      	cmp	r3, #8
     456:	d802      	bhi.n	45e <printf_hex+0x22>
     458:	683b      	ldr	r3, [r7, #0]
     45a:	2b00      	cmp	r3, #0
     45c:	d101      	bne.n	462 <printf_hex+0x26>
     45e:	2308      	movs	r3, #8
     460:	603b      	str	r3, [r7, #0]
     462:	683b      	ldr	r3, [r7, #0]
     464:	3b01      	subs	r3, #1
     466:	60fb      	str	r3, [r7, #12]
     468:	e017      	b.n	49a <printf_hex+0x5e>
     46a:	68fb      	ldr	r3, [r7, #12]
     46c:	009b      	lsls	r3, r3, #2
     46e:	220f      	movs	r2, #15
     470:	fa02 f303 	lsl.w	r3, r2, r3
     474:	461a      	mov	r2, r3
     476:	687b      	ldr	r3, [r7, #4]
     478:	401a      	ands	r2, r3
     47a:	68fb      	ldr	r3, [r7, #12]
     47c:	009b      	lsls	r3, r3, #2
     47e:	fa22 f303 	lsr.w	r3, r2, r3
     482:	72fb      	strb	r3, [r7, #11]
     484:	7afb      	ldrb	r3, [r7, #11]
     486:	4a09      	ldr	r2, [pc, #36]	; (4ac <printf_hex+0x70>)
     488:	5cd3      	ldrb	r3, [r2, r3]
     48a:	72bb      	strb	r3, [r7, #10]
     48c:	7abb      	ldrb	r3, [r7, #10]
     48e:	4618      	mov	r0, r3
     490:	f7ff ff9e 	bl	3d0 <printf_char>
     494:	68fb      	ldr	r3, [r7, #12]
     496:	3b01      	subs	r3, #1
     498:	60fb      	str	r3, [r7, #12]
     49a:	68fb      	ldr	r3, [r7, #12]
     49c:	2b00      	cmp	r3, #0
     49e:	dae4      	bge.n	46a <printf_hex+0x2e>
     4a0:	2300      	movs	r3, #0
     4a2:	4618      	mov	r0, r3
     4a4:	3710      	adds	r7, #16
     4a6:	46bd      	mov	sp, r7
     4a8:	bd80      	pop	{r7, pc}
     4aa:	bf00      	nop
     4ac:	00002ce8 	andeq	r2, r0, r8, ror #25

000004b0 <printf_hex_upper>:
     4b0:	b580      	push	{r7, lr}
     4b2:	b084      	sub	sp, #16
     4b4:	af00      	add	r7, sp, #0
     4b6:	6078      	str	r0, [r7, #4]
     4b8:	6039      	str	r1, [r7, #0]
     4ba:	2300      	movs	r3, #0
     4bc:	60fb      	str	r3, [r7, #12]
     4be:	2300      	movs	r3, #0
     4c0:	72fb      	strb	r3, [r7, #11]
     4c2:	2300      	movs	r3, #0
     4c4:	72bb      	strb	r3, [r7, #10]
     4c6:	683b      	ldr	r3, [r7, #0]
     4c8:	2b08      	cmp	r3, #8
     4ca:	d802      	bhi.n	4d2 <printf_hex_upper+0x22>
     4cc:	683b      	ldr	r3, [r7, #0]
     4ce:	2b00      	cmp	r3, #0
     4d0:	d101      	bne.n	4d6 <printf_hex_upper+0x26>
     4d2:	2308      	movs	r3, #8
     4d4:	603b      	str	r3, [r7, #0]
     4d6:	683b      	ldr	r3, [r7, #0]
     4d8:	3b01      	subs	r3, #1
     4da:	60fb      	str	r3, [r7, #12]
     4dc:	e017      	b.n	50e <printf_hex_upper+0x5e>
     4de:	68fb      	ldr	r3, [r7, #12]
     4e0:	009b      	lsls	r3, r3, #2
     4e2:	220f      	movs	r2, #15
     4e4:	fa02 f303 	lsl.w	r3, r2, r3
     4e8:	461a      	mov	r2, r3
     4ea:	687b      	ldr	r3, [r7, #4]
     4ec:	401a      	ands	r2, r3
     4ee:	68fb      	ldr	r3, [r7, #12]
     4f0:	009b      	lsls	r3, r3, #2
     4f2:	fa22 f303 	lsr.w	r3, r2, r3
     4f6:	72fb      	strb	r3, [r7, #11]
     4f8:	7afb      	ldrb	r3, [r7, #11]
     4fa:	4a09      	ldr	r2, [pc, #36]	; (520 <printf_hex_upper+0x70>)
     4fc:	5cd3      	ldrb	r3, [r2, r3]
     4fe:	72bb      	strb	r3, [r7, #10]
     500:	7abb      	ldrb	r3, [r7, #10]
     502:	4618      	mov	r0, r3
     504:	f7ff ff64 	bl	3d0 <printf_char>
     508:	68fb      	ldr	r3, [r7, #12]
     50a:	3b01      	subs	r3, #1
     50c:	60fb      	str	r3, [r7, #12]
     50e:	68fb      	ldr	r3, [r7, #12]
     510:	2b00      	cmp	r3, #0
     512:	dae4      	bge.n	4de <printf_hex_upper+0x2e>
     514:	2300      	movs	r3, #0
     516:	4618      	mov	r0, r3
     518:	3710      	adds	r7, #16
     51a:	46bd      	mov	sp, r7
     51c:	bd80      	pop	{r7, pc}
     51e:	bf00      	nop
     520:	00002cf8 	strdeq	r2, [r0], -r8

00000524 <printf_dec>:
     524:	b580      	push	{r7, lr}
     526:	b086      	sub	sp, #24
     528:	af00      	add	r7, sp, #0
     52a:	6078      	str	r0, [r7, #4]
     52c:	2300      	movs	r3, #0
     52e:	617b      	str	r3, [r7, #20]
     530:	2301      	movs	r3, #1
     532:	613b      	str	r3, [r7, #16]
     534:	2301      	movs	r3, #1
     536:	60fb      	str	r3, [r7, #12]
     538:	2300      	movs	r3, #0
     53a:	72fb      	strb	r3, [r7, #11]
     53c:	693b      	ldr	r3, [r7, #16]
     53e:	00da      	lsls	r2, r3, #3
     540:	693b      	ldr	r3, [r7, #16]
     542:	005b      	lsls	r3, r3, #1
     544:	4413      	add	r3, r2
     546:	613b      	str	r3, [r7, #16]
     548:	697b      	ldr	r3, [r7, #20]
     54a:	3301      	adds	r3, #1
     54c:	617b      	str	r3, [r7, #20]
     54e:	693a      	ldr	r2, [r7, #16]
     550:	687b      	ldr	r3, [r7, #4]
     552:	429a      	cmp	r2, r3
     554:	d800      	bhi.n	558 <printf_dec+0x34>
     556:	e7f1      	b.n	53c <printf_dec+0x18>
     558:	bf00      	nop
     55a:	697b      	ldr	r3, [r7, #20]
     55c:	2b08      	cmp	r3, #8
     55e:	f240 810c 	bls.w	77a <printf_dec+0x256>
     562:	f04f 33ff 	mov.w	r3, #4294967295	; 0xffffffff
     566:	e10d      	b.n	784 <printf_dec+0x260>
     568:	697b      	ldr	r3, [r7, #20]
     56a:	3b01      	subs	r3, #1
     56c:	4a87      	ldr	r2, [pc, #540]	; (78c <printf_dec+0x268>)
     56e:	f852 3023 	ldr.w	r3, [r2, r3, lsl #2]
     572:	00da      	lsls	r2, r3, #3
     574:	697b      	ldr	r3, [r7, #20]
     576:	3b01      	subs	r3, #1
     578:	4984      	ldr	r1, [pc, #528]	; (78c <printf_dec+0x268>)
     57a:	f851 3023 	ldr.w	r3, [r1, r3, lsl #2]
     57e:	4413      	add	r3, r2
     580:	687a      	ldr	r2, [r7, #4]
     582:	429a      	cmp	r2, r3
     584:	d30f      	bcc.n	5a6 <printf_dec+0x82>
     586:	2309      	movs	r3, #9
     588:	613b      	str	r3, [r7, #16]
     58a:	697b      	ldr	r3, [r7, #20]
     58c:	3b01      	subs	r3, #1
     58e:	4a7f      	ldr	r2, [pc, #508]	; (78c <printf_dec+0x268>)
     590:	f852 3023 	ldr.w	r3, [r2, r3, lsl #2]
     594:	00da      	lsls	r2, r3, #3
     596:	697b      	ldr	r3, [r7, #20]
     598:	3b01      	subs	r3, #1
     59a:	497c      	ldr	r1, [pc, #496]	; (78c <printf_dec+0x268>)
     59c:	f851 3023 	ldr.w	r3, [r1, r3, lsl #2]
     5a0:	4413      	add	r3, r2
     5a2:	60fb      	str	r3, [r7, #12]
     5a4:	e0d9      	b.n	75a <printf_dec+0x236>
     5a6:	697b      	ldr	r3, [r7, #20]
     5a8:	3b01      	subs	r3, #1
     5aa:	4a78      	ldr	r2, [pc, #480]	; (78c <printf_dec+0x268>)
     5ac:	f852 3023 	ldr.w	r3, [r2, r3, lsl #2]
     5b0:	00db      	lsls	r3, r3, #3
     5b2:	687a      	ldr	r2, [r7, #4]
     5b4:	429a      	cmp	r2, r3
     5b6:	d309      	bcc.n	5cc <printf_dec+0xa8>
     5b8:	2308      	movs	r3, #8
     5ba:	613b      	str	r3, [r7, #16]
     5bc:	697b      	ldr	r3, [r7, #20]
     5be:	3b01      	subs	r3, #1
     5c0:	4a72      	ldr	r2, [pc, #456]	; (78c <printf_dec+0x268>)
     5c2:	f852 3023 	ldr.w	r3, [r2, r3, lsl #2]
     5c6:	00db      	lsls	r3, r3, #3
     5c8:	60fb      	str	r3, [r7, #12]
     5ca:	e0c6      	b.n	75a <printf_dec+0x236>
     5cc:	697b      	ldr	r3, [r7, #20]
     5ce:	3b01      	subs	r3, #1
     5d0:	4a6e      	ldr	r2, [pc, #440]	; (78c <printf_dec+0x268>)
     5d2:	f852 3023 	ldr.w	r3, [r2, r3, lsl #2]
     5d6:	009a      	lsls	r2, r3, #2
     5d8:	697b      	ldr	r3, [r7, #20]
     5da:	3b01      	subs	r3, #1
     5dc:	496b      	ldr	r1, [pc, #428]	; (78c <printf_dec+0x268>)
     5de:	f851 3023 	ldr.w	r3, [r1, r3, lsl #2]
     5e2:	005b      	lsls	r3, r3, #1
     5e4:	441a      	add	r2, r3
     5e6:	697b      	ldr	r3, [r7, #20]
     5e8:	3b01      	subs	r3, #1
     5ea:	4968      	ldr	r1, [pc, #416]	; (78c <printf_dec+0x268>)
     5ec:	f851 3023 	ldr.w	r3, [r1, r3, lsl #2]
     5f0:	4413      	add	r3, r2
     5f2:	687a      	ldr	r2, [r7, #4]
     5f4:	429a      	cmp	r2, r3
     5f6:	d316      	bcc.n	626 <printf_dec+0x102>
     5f8:	2307      	movs	r3, #7
     5fa:	613b      	str	r3, [r7, #16]
     5fc:	697b      	ldr	r3, [r7, #20]
     5fe:	3b01      	subs	r3, #1
     600:	4a62      	ldr	r2, [pc, #392]	; (78c <printf_dec+0x268>)
     602:	f852 3023 	ldr.w	r3, [r2, r3, lsl #2]
     606:	009a      	lsls	r2, r3, #2
     608:	697b      	ldr	r3, [r7, #20]
     60a:	3b01      	subs	r3, #1
     60c:	495f      	ldr	r1, [pc, #380]	; (78c <printf_dec+0x268>)
     60e:	f851 3023 	ldr.w	r3, [r1, r3, lsl #2]
     612:	005b      	lsls	r3, r3, #1
     614:	441a      	add	r2, r3
     616:	697b      	ldr	r3, [r7, #20]
     618:	3b01      	subs	r3, #1
     61a:	495c      	ldr	r1, [pc, #368]	; (78c <printf_dec+0x268>)
     61c:	f851 3023 	ldr.w	r3, [r1, r3, lsl #2]
     620:	4413      	add	r3, r2
     622:	60fb      	str	r3, [r7, #12]
     624:	e099      	b.n	75a <printf_dec+0x236>
     626:	697b      	ldr	r3, [r7, #20]
     628:	3b01      	subs	r3, #1
     62a:	4a58      	ldr	r2, [pc, #352]	; (78c <printf_dec+0x268>)
     62c:	f852 3023 	ldr.w	r3, [r2, r3, lsl #2]
     630:	009a      	lsls	r2, r3, #2
     632:	697b      	ldr	r3, [r7, #20]
     634:	3b01      	subs	r3, #1
     636:	4955      	ldr	r1, [pc, #340]	; (78c <printf_dec+0x268>)
     638:	f851 3023 	ldr.w	r3, [r1, r3, lsl #2]
     63c:	005b      	lsls	r3, r3, #1
     63e:	4413      	add	r3, r2
     640:	687a      	ldr	r2, [r7, #4]
     642:	429a      	cmp	r2, r3
     644:	d310      	bcc.n	668 <printf_dec+0x144>
     646:	2306      	movs	r3, #6
     648:	613b      	str	r3, [r7, #16]
     64a:	697b      	ldr	r3, [r7, #20]
     64c:	3b01      	subs	r3, #1
     64e:	4a4f      	ldr	r2, [pc, #316]	; (78c <printf_dec+0x268>)
     650:	f852 3023 	ldr.w	r3, [r2, r3, lsl #2]
     654:	009a      	lsls	r2, r3, #2
     656:	697b      	ldr	r3, [r7, #20]
     658:	3b01      	subs	r3, #1
     65a:	494c      	ldr	r1, [pc, #304]	; (78c <printf_dec+0x268>)
     65c:	f851 3023 	ldr.w	r3, [r1, r3, lsl #2]
     660:	005b      	lsls	r3, r3, #1
     662:	4413      	add	r3, r2
     664:	60fb      	str	r3, [r7, #12]
     666:	e078      	b.n	75a <printf_dec+0x236>
     668:	697b      	ldr	r3, [r7, #20]
     66a:	3b01      	subs	r3, #1
     66c:	4a47      	ldr	r2, [pc, #284]	; (78c <printf_dec+0x268>)
     66e:	f852 3023 	ldr.w	r3, [r2, r3, lsl #2]
     672:	009a      	lsls	r2, r3, #2
     674:	697b      	ldr	r3, [r7, #20]
     676:	3b01      	subs	r3, #1
     678:	4944      	ldr	r1, [pc, #272]	; (78c <printf_dec+0x268>)
     67a:	f851 3023 	ldr.w	r3, [r1, r3, lsl #2]
     67e:	4413      	add	r3, r2
     680:	687a      	ldr	r2, [r7, #4]
     682:	429a      	cmp	r2, r3
     684:	d30f      	bcc.n	6a6 <printf_dec+0x182>
     686:	2305      	movs	r3, #5
     688:	613b      	str	r3, [r7, #16]
     68a:	697b      	ldr	r3, [r7, #20]
     68c:	3b01      	subs	r3, #1
     68e:	4a3f      	ldr	r2, [pc, #252]	; (78c <printf_dec+0x268>)
     690:	f852 3023 	ldr.w	r3, [r2, r3, lsl #2]
     694:	009a      	lsls	r2, r3, #2
     696:	697b      	ldr	r3, [r7, #20]
     698:	3b01      	subs	r3, #1
     69a:	493c      	ldr	r1, [pc, #240]	; (78c <printf_dec+0x268>)
     69c:	f851 3023 	ldr.w	r3, [r1, r3, lsl #2]
     6a0:	4413      	add	r3, r2
     6a2:	60fb      	str	r3, [r7, #12]
     6a4:	e059      	b.n	75a <printf_dec+0x236>
     6a6:	697b      	ldr	r3, [r7, #20]
     6a8:	3b01      	subs	r3, #1
     6aa:	4a38      	ldr	r2, [pc, #224]	; (78c <printf_dec+0x268>)
     6ac:	f852 3023 	ldr.w	r3, [r2, r3, lsl #2]
     6b0:	009b      	lsls	r3, r3, #2
     6b2:	687a      	ldr	r2, [r7, #4]
     6b4:	429a      	cmp	r2, r3
     6b6:	d309      	bcc.n	6cc <printf_dec+0x1a8>
     6b8:	2304      	movs	r3, #4
     6ba:	613b      	str	r3, [r7, #16]
     6bc:	697b      	ldr	r3, [r7, #20]
     6be:	3b01      	subs	r3, #1
     6c0:	4a32      	ldr	r2, [pc, #200]	; (78c <printf_dec+0x268>)
     6c2:	f852 3023 	ldr.w	r3, [r2, r3, lsl #2]
     6c6:	009b      	lsls	r3, r3, #2
     6c8:	60fb      	str	r3, [r7, #12]
     6ca:	e046      	b.n	75a <printf_dec+0x236>
     6cc:	697b      	ldr	r3, [r7, #20]
     6ce:	3b01      	subs	r3, #1
     6d0:	4a2e      	ldr	r2, [pc, #184]	; (78c <printf_dec+0x268>)
     6d2:	f852 3023 	ldr.w	r3, [r2, r3, lsl #2]
     6d6:	005a      	lsls	r2, r3, #1
     6d8:	697b      	ldr	r3, [r7, #20]
     6da:	3b01      	subs	r3, #1
     6dc:	492b      	ldr	r1, [pc, #172]	; (78c <printf_dec+0x268>)
     6de:	f851 3023 	ldr.w	r3, [r1, r3, lsl #2]
     6e2:	4413      	add	r3, r2
     6e4:	687a      	ldr	r2, [r7, #4]
     6e6:	429a      	cmp	r2, r3
     6e8:	d30f      	bcc.n	70a <printf_dec+0x1e6>
     6ea:	2303      	movs	r3, #3
     6ec:	613b      	str	r3, [r7, #16]
     6ee:	697b      	ldr	r3, [r7, #20]
     6f0:	3b01      	subs	r3, #1
     6f2:	4a26      	ldr	r2, [pc, #152]	; (78c <printf_dec+0x268>)
     6f4:	f852 3023 	ldr.w	r3, [r2, r3, lsl #2]
     6f8:	005a      	lsls	r2, r3, #1
     6fa:	697b      	ldr	r3, [r7, #20]
     6fc:	3b01      	subs	r3, #1
     6fe:	4923      	ldr	r1, [pc, #140]	; (78c <printf_dec+0x268>)
     700:	f851 3023 	ldr.w	r3, [r1, r3, lsl #2]
     704:	4413      	add	r3, r2
     706:	60fb      	str	r3, [r7, #12]
     708:	e027      	b.n	75a <printf_dec+0x236>
     70a:	697b      	ldr	r3, [r7, #20]
     70c:	3b01      	subs	r3, #1
     70e:	4a1f      	ldr	r2, [pc, #124]	; (78c <printf_dec+0x268>)
     710:	f852 3023 	ldr.w	r3, [r2, r3, lsl #2]
     714:	005b      	lsls	r3, r3, #1
     716:	687a      	ldr	r2, [r7, #4]
     718:	429a      	cmp	r2, r3
     71a:	d309      	bcc.n	730 <printf_dec+0x20c>
     71c:	2302      	movs	r3, #2
     71e:	613b      	str	r3, [r7, #16]
     720:	697b      	ldr	r3, [r7, #20]
     722:	3b01      	subs	r3, #1
     724:	4a19      	ldr	r2, [pc, #100]	; (78c <printf_dec+0x268>)
     726:	f852 3023 	ldr.w	r3, [r2, r3, lsl #2]
     72a:	005b      	lsls	r3, r3, #1
     72c:	60fb      	str	r3, [r7, #12]
     72e:	e014      	b.n	75a <printf_dec+0x236>
     730:	697b      	ldr	r3, [r7, #20]
     732:	3b01      	subs	r3, #1
     734:	4a15      	ldr	r2, [pc, #84]	; (78c <printf_dec+0x268>)
     736:	f852 3023 	ldr.w	r3, [r2, r3, lsl #2]
     73a:	687a      	ldr	r2, [r7, #4]
     73c:	429a      	cmp	r2, r3
     73e:	d308      	bcc.n	752 <printf_dec+0x22e>
     740:	2301      	movs	r3, #1
     742:	613b      	str	r3, [r7, #16]
     744:	697b      	ldr	r3, [r7, #20]
     746:	3b01      	subs	r3, #1
     748:	4a10      	ldr	r2, [pc, #64]	; (78c <printf_dec+0x268>)
     74a:	f852 3023 	ldr.w	r3, [r2, r3, lsl #2]
     74e:	60fb      	str	r3, [r7, #12]
     750:	e003      	b.n	75a <printf_dec+0x236>
     752:	2300      	movs	r3, #0
     754:	613b      	str	r3, [r7, #16]
     756:	2300      	movs	r3, #0
     758:	60fb      	str	r3, [r7, #12]
     75a:	4a0d      	ldr	r2, [pc, #52]	; (790 <printf_dec+0x26c>)
     75c:	693b      	ldr	r3, [r7, #16]
     75e:	4413      	add	r3, r2
     760:	781b      	ldrb	r3, [r3, #0]
     762:	72fb      	strb	r3, [r7, #11]
     764:	7afb      	ldrb	r3, [r7, #11]
     766:	4618      	mov	r0, r3
     768:	f7ff fe32 	bl	3d0 <printf_char>
     76c:	697b      	ldr	r3, [r7, #20]
     76e:	3b01      	subs	r3, #1
     770:	617b      	str	r3, [r7, #20]
     772:	687a      	ldr	r2, [r7, #4]
     774:	68fb      	ldr	r3, [r7, #12]
     776:	1ad3      	subs	r3, r2, r3
     778:	607b      	str	r3, [r7, #4]
     77a:	697b      	ldr	r3, [r7, #20]
     77c:	2b00      	cmp	r3, #0
     77e:	f47f aef3 	bne.w	568 <printf_dec+0x44>
     782:	2300      	movs	r3, #0
     784:	4618      	mov	r0, r3
     786:	3718      	adds	r7, #24
     788:	46bd      	mov	sp, r7
     78a:	bd80      	pop	{r7, pc}
     78c:	00002d08 	andeq	r2, r0, r8, lsl #26
     790:	00002ce8 	andeq	r2, r0, r8, ror #25

00000794 <no_printk>:
     794:	b40f      	push	{r0, r1, r2, r3}
     796:	b480      	push	{r7}
     798:	af00      	add	r7, sp, #0
     79a:	bf00      	nop
     79c:	46bd      	mov	sp, r7
     79e:	bc80      	pop	{r7}
     7a0:	b004      	add	sp, #16
     7a2:	4770      	bx	lr

000007a4 <printk>:
     7a4:	b40f      	push	{r0, r1, r2, r3}
     7a6:	b580      	push	{r7, lr}
     7a8:	b084      	sub	sp, #16
     7aa:	af00      	add	r7, sp, #0
     7ac:	2300      	movs	r3, #0
     7ae:	60fb      	str	r3, [r7, #12]
     7b0:	f107 031c 	add.w	r3, r7, #28
     7b4:	607b      	str	r3, [r7, #4]
     7b6:	69bb      	ldr	r3, [r7, #24]
     7b8:	781b      	ldrb	r3, [r3, #0]
     7ba:	72fb      	strb	r3, [r7, #11]
     7bc:	7afb      	ldrb	r3, [r7, #11]
     7be:	2b25      	cmp	r3, #37	; 0x25
     7c0:	d004      	beq.n	7cc <printk+0x28>
     7c2:	7afb      	ldrb	r3, [r7, #11]
     7c4:	4618      	mov	r0, r3
     7c6:	f7ff fe03 	bl	3d0 <printf_char>
     7ca:	e09d      	b.n	908 <printk+0x164>
     7cc:	69bb      	ldr	r3, [r7, #24]
     7ce:	3301      	adds	r3, #1
     7d0:	61bb      	str	r3, [r7, #24]
     7d2:	69bb      	ldr	r3, [r7, #24]
     7d4:	781b      	ldrb	r3, [r3, #0]
     7d6:	72fb      	strb	r3, [r7, #11]
     7d8:	7afb      	ldrb	r3, [r7, #11]
     7da:	2b64      	cmp	r3, #100	; 0x64
     7dc:	d00b      	beq.n	7f6 <printk+0x52>
     7de:	7afb      	ldrb	r3, [r7, #11]
     7e0:	2b78      	cmp	r3, #120	; 0x78
     7e2:	d008      	beq.n	7f6 <printk+0x52>
     7e4:	7afb      	ldrb	r3, [r7, #11]
     7e6:	2b58      	cmp	r3, #88	; 0x58
     7e8:	d005      	beq.n	7f6 <printk+0x52>
     7ea:	7afb      	ldrb	r3, [r7, #11]
     7ec:	2b73      	cmp	r3, #115	; 0x73
     7ee:	d002      	beq.n	7f6 <printk+0x52>
     7f0:	7afb      	ldrb	r3, [r7, #11]
     7f2:	2b63      	cmp	r3, #99	; 0x63
     7f4:	d1ea      	bne.n	7cc <printk+0x28>
     7f6:	7afb      	ldrb	r3, [r7, #11]
     7f8:	2b78      	cmp	r3, #120	; 0x78
     7fa:	d002      	beq.n	802 <printk+0x5e>
     7fc:	7afb      	ldrb	r3, [r7, #11]
     7fe:	2b58      	cmp	r3, #88	; 0x58
     800:	d10c      	bne.n	81c <printk+0x78>
     802:	69bb      	ldr	r3, [r7, #24]
     804:	3b01      	subs	r3, #1
     806:	781b      	ldrb	r3, [r3, #0]
     808:	2b25      	cmp	r3, #37	; 0x25
     80a:	d102      	bne.n	812 <printk+0x6e>
     80c:	2308      	movs	r3, #8
     80e:	60fb      	str	r3, [r7, #12]
     810:	e004      	b.n	81c <printk+0x78>
     812:	69bb      	ldr	r3, [r7, #24]
     814:	3b01      	subs	r3, #1
     816:	781b      	ldrb	r3, [r3, #0]
     818:	3b30      	subs	r3, #48	; 0x30
     81a:	60fb      	str	r3, [r7, #12]
     81c:	bf00      	nop
     81e:	7afb      	ldrb	r3, [r7, #11]
     820:	3b58      	subs	r3, #88	; 0x58
     822:	2b20      	cmp	r3, #32
     824:	d86f      	bhi.n	906 <printk+0x162>
     826:	a201      	add	r2, pc, #4	; (adr r2, 82c <printk+0x88>)
     828:	f852 f023 	ldr.w	pc, [r2, r3, lsl #2]
     82c:	000008d3 	ldrdeq	r0, [r0], -r3
     830:	00000907 	andeq	r0, r0, r7, lsl #18
     834:	00000907 	andeq	r0, r0, r7, lsl #18
     838:	00000907 	andeq	r0, r0, r7, lsl #18
     83c:	00000907 	andeq	r0, r0, r7, lsl #18
     840:	00000907 	andeq	r0, r0, r7, lsl #18
     844:	00000907 	andeq	r0, r0, r7, lsl #18
     848:	00000907 	andeq	r0, r0, r7, lsl #18
     84c:	00000907 	andeq	r0, r0, r7, lsl #18
     850:	00000907 	andeq	r0, r0, r7, lsl #18
     854:	00000907 	andeq	r0, r0, r7, lsl #18
     858:	000008f5 	strdeq	r0, [r0], -r5
     85c:	000008b1 			; <UNDEFINED> instruction: 0x000008b1
     860:	00000907 	andeq	r0, r0, r7, lsl #18
     864:	00000907 	andeq	r0, r0, r7, lsl #18
     868:	00000907 	andeq	r0, r0, r7, lsl #18
     86c:	00000907 	andeq	r0, r0, r7, lsl #18
     870:	00000907 	andeq	r0, r0, r7, lsl #18
     874:	00000907 	andeq	r0, r0, r7, lsl #18
     878:	00000907 	andeq	r0, r0, r7, lsl #18
     87c:	00000907 	andeq	r0, r0, r7, lsl #18
     880:	00000907 	andeq	r0, r0, r7, lsl #18
     884:	00000907 	andeq	r0, r0, r7, lsl #18
     888:	00000907 	andeq	r0, r0, r7, lsl #18
     88c:	00000907 	andeq	r0, r0, r7, lsl #18
     890:	00000907 	andeq	r0, r0, r7, lsl #18
     894:	00000907 	andeq	r0, r0, r7, lsl #18
     898:	000008e5 	andeq	r0, r0, r5, ror #17
     89c:	00000907 	andeq	r0, r0, r7, lsl #18
     8a0:	00000907 	andeq	r0, r0, r7, lsl #18
     8a4:	00000907 	andeq	r0, r0, r7, lsl #18
     8a8:	00000907 	andeq	r0, r0, r7, lsl #18
     8ac:	000008c1 	andeq	r0, r0, r1, asr #17
     8b0:	687b      	ldr	r3, [r7, #4]
     8b2:	1d1a      	adds	r2, r3, #4
     8b4:	607a      	str	r2, [r7, #4]
     8b6:	681b      	ldr	r3, [r3, #0]
     8b8:	4618      	mov	r0, r3
     8ba:	f7ff fe33 	bl	524 <printf_dec>
     8be:	e023      	b.n	908 <printk+0x164>
     8c0:	687b      	ldr	r3, [r7, #4]
     8c2:	1d1a      	adds	r2, r3, #4
     8c4:	607a      	str	r2, [r7, #4]
     8c6:	681b      	ldr	r3, [r3, #0]
     8c8:	68f9      	ldr	r1, [r7, #12]
     8ca:	4618      	mov	r0, r3
     8cc:	f7ff fdb6 	bl	43c <printf_hex>
     8d0:	e01a      	b.n	908 <printk+0x164>
     8d2:	687b      	ldr	r3, [r7, #4]
     8d4:	1d1a      	adds	r2, r3, #4
     8d6:	607a      	str	r2, [r7, #4]
     8d8:	681b      	ldr	r3, [r3, #0]
     8da:	68f9      	ldr	r1, [r7, #12]
     8dc:	4618      	mov	r0, r3
     8de:	f7ff fde7 	bl	4b0 <printf_hex_upper>
     8e2:	e011      	b.n	908 <printk+0x164>
     8e4:	687b      	ldr	r3, [r7, #4]
     8e6:	1d1a      	adds	r2, r3, #4
     8e8:	607a      	str	r2, [r7, #4]
     8ea:	681b      	ldr	r3, [r3, #0]
     8ec:	4618      	mov	r0, r3
     8ee:	f7ff fd8c 	bl	40a <printf_str>
     8f2:	e009      	b.n	908 <printk+0x164>
     8f4:	687b      	ldr	r3, [r7, #4]
     8f6:	1d1a      	adds	r2, r3, #4
     8f8:	607a      	str	r2, [r7, #4]
     8fa:	681b      	ldr	r3, [r3, #0]
     8fc:	b2db      	uxtb	r3, r3
     8fe:	4618      	mov	r0, r3
     900:	f7ff fd66 	bl	3d0 <printf_char>
     904:	e000      	b.n	908 <printk+0x164>
     906:	bf00      	nop
     908:	69bb      	ldr	r3, [r7, #24]
     90a:	3301      	adds	r3, #1
     90c:	61bb      	str	r3, [r7, #24]
     90e:	69bb      	ldr	r3, [r7, #24]
     910:	781b      	ldrb	r3, [r3, #0]
     912:	2b00      	cmp	r3, #0
     914:	f47f af4f 	bne.w	7b6 <printk+0x12>
     918:	bf00      	nop
     91a:	bf00      	nop
     91c:	3710      	adds	r7, #16
     91e:	46bd      	mov	sp, r7
     920:	e8bd 4080 	ldmia.w	sp!, {r7, lr}
     924:	b004      	add	sp, #16
     926:	4770      	bx	lr

00000928 <memset>:
     928:	b480      	push	{r7}
     92a:	b087      	sub	sp, #28
     92c:	af00      	add	r7, sp, #0
     92e:	60f8      	str	r0, [r7, #12]
     930:	460b      	mov	r3, r1
     932:	607a      	str	r2, [r7, #4]
     934:	72fb      	strb	r3, [r7, #11]
     936:	68fb      	ldr	r3, [r7, #12]
     938:	617b      	str	r3, [r7, #20]
     93a:	2300      	movs	r3, #0
     93c:	613b      	str	r3, [r7, #16]
     93e:	2300      	movs	r3, #0
     940:	613b      	str	r3, [r7, #16]
     942:	e007      	b.n	954 <memset+0x2c>
     944:	693b      	ldr	r3, [r7, #16]
     946:	3301      	adds	r3, #1
     948:	613b      	str	r3, [r7, #16]
     94a:	697b      	ldr	r3, [r7, #20]
     94c:	1c5a      	adds	r2, r3, #1
     94e:	617a      	str	r2, [r7, #20]
     950:	7afa      	ldrb	r2, [r7, #11]
     952:	701a      	strb	r2, [r3, #0]
     954:	693b      	ldr	r3, [r7, #16]
     956:	687a      	ldr	r2, [r7, #4]
     958:	429a      	cmp	r2, r3
     95a:	d8f3      	bhi.n	944 <memset+0x1c>
     95c:	2300      	movs	r3, #0
     95e:	4618      	mov	r0, r3
     960:	371c      	adds	r7, #28
     962:	46bd      	mov	sp, r7
     964:	bc80      	pop	{r7}
     966:	4770      	bx	lr

00000968 <memcpy>:
     968:	b480      	push	{r7}
     96a:	b089      	sub	sp, #36	; 0x24
     96c:	af00      	add	r7, sp, #0
     96e:	60f8      	str	r0, [r7, #12]
     970:	60b9      	str	r1, [r7, #8]
     972:	607a      	str	r2, [r7, #4]
     974:	68fb      	ldr	r3, [r7, #12]
     976:	61fb      	str	r3, [r7, #28]
     978:	68bb      	ldr	r3, [r7, #8]
     97a:	61bb      	str	r3, [r7, #24]
     97c:	2300      	movs	r3, #0
     97e:	617b      	str	r3, [r7, #20]
     980:	2300      	movs	r3, #0
     982:	617b      	str	r3, [r7, #20]
     984:	e00a      	b.n	99c <memcpy+0x34>
     986:	697b      	ldr	r3, [r7, #20]
     988:	3301      	adds	r3, #1
     98a:	617b      	str	r3, [r7, #20]
     98c:	69ba      	ldr	r2, [r7, #24]
     98e:	1c53      	adds	r3, r2, #1
     990:	61bb      	str	r3, [r7, #24]
     992:	69fb      	ldr	r3, [r7, #28]
     994:	1c59      	adds	r1, r3, #1
     996:	61f9      	str	r1, [r7, #28]
     998:	7812      	ldrb	r2, [r2, #0]
     99a:	701a      	strb	r2, [r3, #0]
     99c:	697b      	ldr	r3, [r7, #20]
     99e:	687a      	ldr	r2, [r7, #4]
     9a0:	429a      	cmp	r2, r3
     9a2:	d8f0      	bhi.n	986 <memcpy+0x1e>
     9a4:	2300      	movs	r3, #0
     9a6:	4618      	mov	r0, r3
     9a8:	3724      	adds	r7, #36	; 0x24
     9aa:	46bd      	mov	sp, r7
     9ac:	bc80      	pop	{r7}
     9ae:	4770      	bx	lr

000009b0 <memcmp>:
     9b0:	b480      	push	{r7}
     9b2:	b089      	sub	sp, #36	; 0x24
     9b4:	af00      	add	r7, sp, #0
     9b6:	60f8      	str	r0, [r7, #12]
     9b8:	60b9      	str	r1, [r7, #8]
     9ba:	607a      	str	r2, [r7, #4]
     9bc:	68fb      	ldr	r3, [r7, #12]
     9be:	61fb      	str	r3, [r7, #28]
     9c0:	68bb      	ldr	r3, [r7, #8]
     9c2:	61bb      	str	r3, [r7, #24]
     9c4:	2300      	movs	r3, #0
     9c6:	617b      	str	r3, [r7, #20]
     9c8:	2300      	movs	r3, #0
     9ca:	617b      	str	r3, [r7, #20]
     9cc:	e00e      	b.n	9ec <memcmp+0x3c>
     9ce:	69fb      	ldr	r3, [r7, #28]
     9d0:	781a      	ldrb	r2, [r3, #0]
     9d2:	69bb      	ldr	r3, [r7, #24]
     9d4:	781b      	ldrb	r3, [r3, #0]
     9d6:	429a      	cmp	r2, r3
     9d8:	d10d      	bne.n	9f6 <memcmp+0x46>
     9da:	697b      	ldr	r3, [r7, #20]
     9dc:	3301      	adds	r3, #1
     9de:	617b      	str	r3, [r7, #20]
     9e0:	69fb      	ldr	r3, [r7, #28]
     9e2:	3301      	adds	r3, #1
     9e4:	61fb      	str	r3, [r7, #28]
     9e6:	69bb      	ldr	r3, [r7, #24]
     9e8:	3301      	adds	r3, #1
     9ea:	61bb      	str	r3, [r7, #24]
     9ec:	697b      	ldr	r3, [r7, #20]
     9ee:	687a      	ldr	r2, [r7, #4]
     9f0:	429a      	cmp	r2, r3
     9f2:	d8ec      	bhi.n	9ce <memcmp+0x1e>
     9f4:	e000      	b.n	9f8 <memcmp+0x48>
     9f6:	bf00      	nop
     9f8:	697b      	ldr	r3, [r7, #20]
     9fa:	687a      	ldr	r2, [r7, #4]
     9fc:	429a      	cmp	r2, r3
     9fe:	d901      	bls.n	a04 <memcmp+0x54>
     a00:	2301      	movs	r3, #1
     a02:	e000      	b.n	a06 <memcmp+0x56>
     a04:	2300      	movs	r3, #0
     a06:	4618      	mov	r0, r3
     a08:	3724      	adds	r7, #36	; 0x24
     a0a:	46bd      	mov	sp, r7
     a0c:	bc80      	pop	{r7}
     a0e:	4770      	bx	lr

00000a10 <strcmp>:
     a10:	b480      	push	{r7}
     a12:	b085      	sub	sp, #20
     a14:	af00      	add	r7, sp, #0
     a16:	6078      	str	r0, [r7, #4]
     a18:	6039      	str	r1, [r7, #0]
     a1a:	687b      	ldr	r3, [r7, #4]
     a1c:	60fb      	str	r3, [r7, #12]
     a1e:	683b      	ldr	r3, [r7, #0]
     a20:	60bb      	str	r3, [r7, #8]
     a22:	e005      	b.n	a30 <strcmp+0x20>
     a24:	68fb      	ldr	r3, [r7, #12]
     a26:	3301      	adds	r3, #1
     a28:	60fb      	str	r3, [r7, #12]
     a2a:	68bb      	ldr	r3, [r7, #8]
     a2c:	3301      	adds	r3, #1
     a2e:	60bb      	str	r3, [r7, #8]
     a30:	68fb      	ldr	r3, [r7, #12]
     a32:	781b      	ldrb	r3, [r3, #0]
     a34:	2b00      	cmp	r3, #0
     a36:	d009      	beq.n	a4c <strcmp+0x3c>
     a38:	68bb      	ldr	r3, [r7, #8]
     a3a:	781b      	ldrb	r3, [r3, #0]
     a3c:	2b00      	cmp	r3, #0
     a3e:	d005      	beq.n	a4c <strcmp+0x3c>
     a40:	68fb      	ldr	r3, [r7, #12]
     a42:	781a      	ldrb	r2, [r3, #0]
     a44:	68bb      	ldr	r3, [r7, #8]
     a46:	781b      	ldrb	r3, [r3, #0]
     a48:	429a      	cmp	r2, r3
     a4a:	d0eb      	beq.n	a24 <strcmp+0x14>
     a4c:	68fb      	ldr	r3, [r7, #12]
     a4e:	781b      	ldrb	r3, [r3, #0]
     a50:	461a      	mov	r2, r3
     a52:	68bb      	ldr	r3, [r7, #8]
     a54:	781b      	ldrb	r3, [r3, #0]
     a56:	1ad3      	subs	r3, r2, r3
     a58:	4618      	mov	r0, r3
     a5a:	3714      	adds	r7, #20
     a5c:	46bd      	mov	sp, r7
     a5e:	bc80      	pop	{r7}
     a60:	4770      	bx	lr

00000a62 <strncmp>:
     a62:	b480      	push	{r7}
     a64:	b089      	sub	sp, #36	; 0x24
     a66:	af00      	add	r7, sp, #0
     a68:	60f8      	str	r0, [r7, #12]
     a6a:	60b9      	str	r1, [r7, #8]
     a6c:	607a      	str	r2, [r7, #4]
     a6e:	68fb      	ldr	r3, [r7, #12]
     a70:	61fb      	str	r3, [r7, #28]
     a72:	68bb      	ldr	r3, [r7, #8]
     a74:	61bb      	str	r3, [r7, #24]
     a76:	2300      	movs	r3, #0
     a78:	617b      	str	r3, [r7, #20]
     a7a:	e019      	b.n	ab0 <strncmp+0x4e>
     a7c:	69fb      	ldr	r3, [r7, #28]
     a7e:	781a      	ldrb	r2, [r3, #0]
     a80:	69bb      	ldr	r3, [r7, #24]
     a82:	781b      	ldrb	r3, [r3, #0]
     a84:	429a      	cmp	r2, r3
     a86:	d901      	bls.n	a8c <strncmp+0x2a>
     a88:	2301      	movs	r3, #1
     a8a:	e016      	b.n	aba <strncmp+0x58>
     a8c:	69fb      	ldr	r3, [r7, #28]
     a8e:	781a      	ldrb	r2, [r3, #0]
     a90:	69bb      	ldr	r3, [r7, #24]
     a92:	781b      	ldrb	r3, [r3, #0]
     a94:	429a      	cmp	r2, r3
     a96:	d202      	bcs.n	a9e <strncmp+0x3c>
     a98:	f04f 33ff 	mov.w	r3, #4294967295	; 0xffffffff
     a9c:	e00d      	b.n	aba <strncmp+0x58>
     a9e:	697b      	ldr	r3, [r7, #20]
     aa0:	3301      	adds	r3, #1
     aa2:	617b      	str	r3, [r7, #20]
     aa4:	69fb      	ldr	r3, [r7, #28]
     aa6:	3301      	adds	r3, #1
     aa8:	61fb      	str	r3, [r7, #28]
     aaa:	69bb      	ldr	r3, [r7, #24]
     aac:	3301      	adds	r3, #1
     aae:	61bb      	str	r3, [r7, #24]
     ab0:	697b      	ldr	r3, [r7, #20]
     ab2:	687a      	ldr	r2, [r7, #4]
     ab4:	429a      	cmp	r2, r3
     ab6:	d8e1      	bhi.n	a7c <strncmp+0x1a>
     ab8:	2300      	movs	r3, #0
     aba:	4618      	mov	r0, r3
     abc:	3724      	adds	r7, #36	; 0x24
     abe:	46bd      	mov	sp, r7
     ac0:	bc80      	pop	{r7}
     ac2:	4770      	bx	lr

00000ac4 <strtoul>:
     ac4:	b580      	push	{r7, lr}
     ac6:	b086      	sub	sp, #24
     ac8:	af00      	add	r7, sp, #0
     aca:	6078      	str	r0, [r7, #4]
     acc:	6039      	str	r1, [r7, #0]
     ace:	687b      	ldr	r3, [r7, #4]
     ad0:	617b      	str	r3, [r7, #20]
     ad2:	230a      	movs	r3, #10
     ad4:	613b      	str	r3, [r7, #16]
     ad6:	2300      	movs	r3, #0
     ad8:	60fb      	str	r3, [r7, #12]
     ada:	2300      	movs	r3, #0
     adc:	60bb      	str	r3, [r7, #8]
     ade:	697b      	ldr	r3, [r7, #20]
     ae0:	781b      	ldrb	r3, [r3, #0]
     ae2:	2b30      	cmp	r3, #48	; 0x30
     ae4:	d155      	bne.n	b92 <strtoul+0xce>
     ae6:	697b      	ldr	r3, [r7, #20]
     ae8:	3301      	adds	r3, #1
     aea:	781b      	ldrb	r3, [r3, #0]
     aec:	2b78      	cmp	r3, #120	; 0x78
     aee:	d004      	beq.n	afa <strtoul+0x36>
     af0:	697b      	ldr	r3, [r7, #20]
     af2:	3301      	adds	r3, #1
     af4:	781b      	ldrb	r3, [r3, #0]
     af6:	2b58      	cmp	r3, #88	; 0x58
     af8:	d14b      	bne.n	b92 <strtoul+0xce>
     afa:	697b      	ldr	r3, [r7, #20]
     afc:	3302      	adds	r3, #2
     afe:	617b      	str	r3, [r7, #20]
     b00:	2310      	movs	r3, #16
     b02:	613b      	str	r3, [r7, #16]
     b04:	e045      	b.n	b92 <strtoul+0xce>
     b06:	693b      	ldr	r3, [r7, #16]
     b08:	2b10      	cmp	r3, #16
     b0a:	d129      	bne.n	b60 <strtoul+0x9c>
     b0c:	697b      	ldr	r3, [r7, #20]
     b0e:	781b      	ldrb	r3, [r3, #0]
     b10:	4618      	mov	r0, r3
     b12:	f7ff fc3e 	bl	392 <is_hex_asc>
     b16:	4603      	mov	r3, r0
     b18:	2b00      	cmp	r3, #0
     b1a:	d102      	bne.n	b22 <strtoul+0x5e>
     b1c:	f04f 33ff 	mov.w	r3, #4294967295	; 0xffffffff
     b20:	e03f      	b.n	ba2 <strtoul+0xde>
     b22:	697b      	ldr	r3, [r7, #20]
     b24:	781b      	ldrb	r3, [r3, #0]
     b26:	2b2f      	cmp	r3, #47	; 0x2f
     b28:	d908      	bls.n	b3c <strtoul+0x78>
     b2a:	697b      	ldr	r3, [r7, #20]
     b2c:	781b      	ldrb	r3, [r3, #0]
     b2e:	2b39      	cmp	r3, #57	; 0x39
     b30:	d804      	bhi.n	b3c <strtoul+0x78>
     b32:	697b      	ldr	r3, [r7, #20]
     b34:	781b      	ldrb	r3, [r3, #0]
     b36:	3b30      	subs	r3, #48	; 0x30
     b38:	60bb      	str	r3, [r7, #8]
     b3a:	e020      	b.n	b7e <strtoul+0xba>
     b3c:	697b      	ldr	r3, [r7, #20]
     b3e:	781b      	ldrb	r3, [r3, #0]
     b40:	2b60      	cmp	r3, #96	; 0x60
     b42:	d908      	bls.n	b56 <strtoul+0x92>
     b44:	697b      	ldr	r3, [r7, #20]
     b46:	781b      	ldrb	r3, [r3, #0]
     b48:	2b66      	cmp	r3, #102	; 0x66
     b4a:	d804      	bhi.n	b56 <strtoul+0x92>
     b4c:	697b      	ldr	r3, [r7, #20]
     b4e:	781b      	ldrb	r3, [r3, #0]
     b50:	3b57      	subs	r3, #87	; 0x57
     b52:	60bb      	str	r3, [r7, #8]
     b54:	e013      	b.n	b7e <strtoul+0xba>
     b56:	697b      	ldr	r3, [r7, #20]
     b58:	781b      	ldrb	r3, [r3, #0]
     b5a:	3b37      	subs	r3, #55	; 0x37
     b5c:	60bb      	str	r3, [r7, #8]
     b5e:	e00e      	b.n	b7e <strtoul+0xba>
     b60:	697b      	ldr	r3, [r7, #20]
     b62:	781b      	ldrb	r3, [r3, #0]
     b64:	4618      	mov	r0, r3
     b66:	f7ff fbdb 	bl	320 <is_dec_asc>
     b6a:	4603      	mov	r3, r0
     b6c:	2b00      	cmp	r3, #0
     b6e:	d102      	bne.n	b76 <strtoul+0xb2>
     b70:	f06f 0301 	mvn.w	r3, #1
     b74:	e015      	b.n	ba2 <strtoul+0xde>
     b76:	697b      	ldr	r3, [r7, #20]
     b78:	781b      	ldrb	r3, [r3, #0]
     b7a:	3b30      	subs	r3, #48	; 0x30
     b7c:	60bb      	str	r3, [r7, #8]
     b7e:	68fb      	ldr	r3, [r7, #12]
     b80:	693a      	ldr	r2, [r7, #16]
     b82:	fb02 f303 	mul.w	r3, r2, r3
     b86:	68ba      	ldr	r2, [r7, #8]
     b88:	4413      	add	r3, r2
     b8a:	60fb      	str	r3, [r7, #12]
     b8c:	697b      	ldr	r3, [r7, #20]
     b8e:	3301      	adds	r3, #1
     b90:	617b      	str	r3, [r7, #20]
     b92:	697b      	ldr	r3, [r7, #20]
     b94:	781b      	ldrb	r3, [r3, #0]
     b96:	2b00      	cmp	r3, #0
     b98:	d1b5      	bne.n	b06 <strtoul+0x42>
     b9a:	683b      	ldr	r3, [r7, #0]
     b9c:	68fa      	ldr	r2, [r7, #12]
     b9e:	601a      	str	r2, [r3, #0]
     ba0:	2300      	movs	r3, #0
     ba2:	4618      	mov	r0, r3
     ba4:	3718      	adds	r7, #24
     ba6:	46bd      	mov	sp, r7
     ba8:	bd80      	pop	{r7, pc}

00000baa <strtol>:
     baa:	b580      	push	{r7, lr}
     bac:	b084      	sub	sp, #16
     bae:	af00      	add	r7, sp, #0
     bb0:	6078      	str	r0, [r7, #4]
     bb2:	6039      	str	r1, [r7, #0]
     bb4:	687b      	ldr	r3, [r7, #4]
     bb6:	60fb      	str	r3, [r7, #12]
     bb8:	68fb      	ldr	r3, [r7, #12]
     bba:	781b      	ldrb	r3, [r3, #0]
     bbc:	2b2d      	cmp	r3, #45	; 0x2d
     bbe:	d10e      	bne.n	bde <strtol+0x34>
     bc0:	68fb      	ldr	r3, [r7, #12]
     bc2:	3301      	adds	r3, #1
     bc4:	60fb      	str	r3, [r7, #12]
     bc6:	6839      	ldr	r1, [r7, #0]
     bc8:	68f8      	ldr	r0, [r7, #12]
     bca:	f7ff ff7b 	bl	ac4 <strtoul>
     bce:	60b8      	str	r0, [r7, #8]
     bd0:	683b      	ldr	r3, [r7, #0]
     bd2:	681b      	ldr	r3, [r3, #0]
     bd4:	425a      	negs	r2, r3
     bd6:	683b      	ldr	r3, [r7, #0]
     bd8:	601a      	str	r2, [r3, #0]
     bda:	68bb      	ldr	r3, [r7, #8]
     bdc:	e004      	b.n	be8 <strtol+0x3e>
     bde:	6839      	ldr	r1, [r7, #0]
     be0:	68f8      	ldr	r0, [r7, #12]
     be2:	f7ff ff6f 	bl	ac4 <strtoul>
     be6:	4603      	mov	r3, r0
     be8:	4618      	mov	r0, r3
     bea:	3710      	adds	r7, #16
     bec:	46bd      	mov	sp, r7
     bee:	bd80      	pop	{r7, pc}

00000bf0 <strlen>:
     bf0:	b480      	push	{r7}
     bf2:	b085      	sub	sp, #20
     bf4:	af00      	add	r7, sp, #0
     bf6:	6078      	str	r0, [r7, #4]
     bf8:	687b      	ldr	r3, [r7, #4]
     bfa:	60fb      	str	r3, [r7, #12]
     bfc:	bf00      	nop
     bfe:	68fb      	ldr	r3, [r7, #12]
     c00:	1c5a      	adds	r2, r3, #1
     c02:	60fa      	str	r2, [r7, #12]
     c04:	781b      	ldrb	r3, [r3, #0]
     c06:	2b00      	cmp	r3, #0
     c08:	d1f9      	bne.n	bfe <strlen+0xe>
     c0a:	68fa      	ldr	r2, [r7, #12]
     c0c:	687b      	ldr	r3, [r7, #4]
     c0e:	1ad3      	subs	r3, r2, r3
     c10:	4618      	mov	r0, r3
     c12:	3714      	adds	r7, #20
     c14:	46bd      	mov	sp, r7
     c16:	bc80      	pop	{r7}
     c18:	4770      	bx	lr

00000c1a <strcpy>:
     c1a:	b480      	push	{r7}
     c1c:	b085      	sub	sp, #20
     c1e:	af00      	add	r7, sp, #0
     c20:	6078      	str	r0, [r7, #4]
     c22:	6039      	str	r1, [r7, #0]
     c24:	687b      	ldr	r3, [r7, #4]
     c26:	60fb      	str	r3, [r7, #12]
     c28:	683b      	ldr	r3, [r7, #0]
     c2a:	60bb      	str	r3, [r7, #8]
     c2c:	e009      	b.n	c42 <strcpy+0x28>
     c2e:	68bb      	ldr	r3, [r7, #8]
     c30:	781a      	ldrb	r2, [r3, #0]
     c32:	68fb      	ldr	r3, [r7, #12]
     c34:	701a      	strb	r2, [r3, #0]
     c36:	68fb      	ldr	r3, [r7, #12]
     c38:	3301      	adds	r3, #1
     c3a:	60fb      	str	r3, [r7, #12]
     c3c:	68bb      	ldr	r3, [r7, #8]
     c3e:	3301      	adds	r3, #1
     c40:	60bb      	str	r3, [r7, #8]
     c42:	68bb      	ldr	r3, [r7, #8]
     c44:	781b      	ldrb	r3, [r3, #0]
     c46:	2b00      	cmp	r3, #0
     c48:	d1f1      	bne.n	c2e <strcpy+0x14>
     c4a:	68fb      	ldr	r3, [r7, #12]
     c4c:	2200      	movs	r2, #0
     c4e:	701a      	strb	r2, [r3, #0]
     c50:	2300      	movs	r3, #0
     c52:	4618      	mov	r0, r3
     c54:	3714      	adds	r7, #20
     c56:	46bd      	mov	sp, r7
     c58:	bc80      	pop	{r7}
     c5a:	4770      	bx	lr

00000c5c <reset_handler>:
     c5c:	f04f 0021 	mov.w	r0, #33	; 0x21
     c60:	f3ef 8014 	mrs	r0, CONTROL
     c64:	f04f 0102 	mov.w	r1, #2
     c68:	ea40 0001 	orr.w	r0, r0, r1
     c6c:	f380 8814 	msr	CONTROL, r0
     c70:	4817      	ldr	r0, [pc, #92]	; (cd0 <enable_irq+0x6>)
     c72:	4685      	mov	sp, r0
     c74:	4817      	ldr	r0, [pc, #92]	; (cd4 <enable_irq+0xa>)
     c76:	4780      	blx	r0
     c78:	e7fe      	b.n	c78 <reset_handler+0x1c>

00000c7a <get_psp>:
     c7a:	f3ef 8009 	mrs	r0, PSP
     c7e:	47f0      	blx	lr

00000c80 <set_psp>:
     c80:	f380 8809 	msr	PSP, r0
     c84:	47f0      	blx	lr

00000c86 <get_msp>:
     c86:	f3ef 8008 	mrs	r0, MSP
     c8a:	47f0      	blx	lr

00000c8c <get_control_reg>:
     c8c:	f3ef 8014 	mrs	r0, CONTROL
     c90:	47f0      	blx	lr

00000c92 <pendsv_handler>:
     c92:	f3ef 8009 	mrs	r0, PSP
     c96:	b120      	cbz	r0, ca2 <pendsv_handler_nosave>
     c98:	e920 0ff0 	stmdb	r0!, {r4, r5, r6, r7, r8, r9, sl, fp}
     c9c:	490e      	ldr	r1, [pc, #56]	; (cd8 <enable_irq+0xe>)
     c9e:	6809      	ldr	r1, [r1, #0]
     ca0:	6008      	str	r0, [r1, #0]

00000ca2 <pendsv_handler_nosave>:
     ca2:	480d      	ldr	r0, [pc, #52]	; (cd8 <enable_irq+0xe>)
     ca4:	490d      	ldr	r1, [pc, #52]	; (cdc <enable_irq+0x12>)
     ca6:	680a      	ldr	r2, [r1, #0]
     ca8:	6002      	str	r2, [r0, #0]
     caa:	6810      	ldr	r0, [r2, #0]
     cac:	e8b0 0ff0 	ldmia.w	r0!, {r4, r5, r6, r7, r8, r9, sl, fp}
     cb0:	f380 8809 	msr	PSP, r0
     cb4:	f04e 0e04 	orr.w	lr, lr, #4
     cb8:	4770      	bx	lr

00000cba <get_primask>:
     cba:	f3ef 8010 	mrs	r0, PRIMASK
     cbe:	47f0      	blx	lr

00000cc0 <set_primask>:
     cc0:	f380 8810 	msr	PRIMASK, r0
     cc4:	47f0      	blx	lr

00000cc6 <disable_irq>:
     cc6:	b672      	cpsid	i
     cc8:	47f0      	blx	lr

00000cca <enable_irq>:
     cca:	b662      	cpsie	i
     ccc:	47f0      	blx	lr
     cce:	80000000 	andhi	r0, r0, r0
     cd2:	2c292000 	stccs	0, cr2, [r9], #-0
     cd6:	00000000 	andeq	r0, r0, r0
     cda:	00042000 	andeq	r2, r4, r0
     cde:	 	strlt	r2, [r0], #0

00000ce0 <idle_task_entry>:
     ce0:	b480      	push	{r7}
     ce2:	b083      	sub	sp, #12
     ce4:	af00      	add	r7, sp, #0
     ce6:	6078      	str	r0, [r7, #4]
     ce8:	e7fe      	b.n	ce8 <idle_task_entry+0x8>

00000cea <task_init>:
     cea:	b580      	push	{r7, lr}
     cec:	b084      	sub	sp, #16
     cee:	af00      	add	r7, sp, #0
     cf0:	60f8      	str	r0, [r7, #12]
     cf2:	60b9      	str	r1, [r7, #8]
     cf4:	607a      	str	r2, [r7, #4]
     cf6:	603b      	str	r3, [r7, #0]
     cf8:	4954      	ldr	r1, [pc, #336]	; (e4c <task_init+0x162>)
     cfa:	4855      	ldr	r0, [pc, #340]	; (e50 <task_init+0x166>)
     cfc:	f7ff fd52 	bl	7a4 <printk>
     d00:	69bb      	ldr	r3, [r7, #24]
     d02:	3b04      	subs	r3, #4
     d04:	61bb      	str	r3, [r7, #24]
     d06:	69bb      	ldr	r3, [r7, #24]
     d08:	f04f 7280 	mov.w	r2, #16777216	; 0x1000000
     d0c:	601a      	str	r2, [r3, #0]
     d0e:	69bb      	ldr	r3, [r7, #24]
     d10:	3b04      	subs	r3, #4
     d12:	61bb      	str	r3, [r7, #24]
     d14:	68ba      	ldr	r2, [r7, #8]
     d16:	69bb      	ldr	r3, [r7, #24]
     d18:	601a      	str	r2, [r3, #0]
     d1a:	69bb      	ldr	r3, [r7, #24]
     d1c:	3b04      	subs	r3, #4
     d1e:	61bb      	str	r3, [r7, #24]
     d20:	69bb      	ldr	r3, [r7, #24]
     d22:	220e      	movs	r2, #14
     d24:	601a      	str	r2, [r3, #0]
     d26:	69bb      	ldr	r3, [r7, #24]
     d28:	3b04      	subs	r3, #4
     d2a:	61bb      	str	r3, [r7, #24]
     d2c:	69bb      	ldr	r3, [r7, #24]
     d2e:	220c      	movs	r2, #12
     d30:	601a      	str	r2, [r3, #0]
     d32:	69bb      	ldr	r3, [r7, #24]
     d34:	3b04      	subs	r3, #4
     d36:	61bb      	str	r3, [r7, #24]
     d38:	69bb      	ldr	r3, [r7, #24]
     d3a:	2203      	movs	r2, #3
     d3c:	601a      	str	r2, [r3, #0]
     d3e:	69bb      	ldr	r3, [r7, #24]
     d40:	3b04      	subs	r3, #4
     d42:	61bb      	str	r3, [r7, #24]
     d44:	69bb      	ldr	r3, [r7, #24]
     d46:	2202      	movs	r2, #2
     d48:	601a      	str	r2, [r3, #0]
     d4a:	69bb      	ldr	r3, [r7, #24]
     d4c:	3b04      	subs	r3, #4
     d4e:	61bb      	str	r3, [r7, #24]
     d50:	69bb      	ldr	r3, [r7, #24]
     d52:	2201      	movs	r2, #1
     d54:	601a      	str	r2, [r3, #0]
     d56:	69bb      	ldr	r3, [r7, #24]
     d58:	3b04      	subs	r3, #4
     d5a:	61bb      	str	r3, [r7, #24]
     d5c:	687a      	ldr	r2, [r7, #4]
     d5e:	69bb      	ldr	r3, [r7, #24]
     d60:	601a      	str	r2, [r3, #0]
     d62:	69bb      	ldr	r3, [r7, #24]
     d64:	3b04      	subs	r3, #4
     d66:	61bb      	str	r3, [r7, #24]
     d68:	69bb      	ldr	r3, [r7, #24]
     d6a:	220b      	movs	r2, #11
     d6c:	601a      	str	r2, [r3, #0]
     d6e:	69bb      	ldr	r3, [r7, #24]
     d70:	3b04      	subs	r3, #4
     d72:	61bb      	str	r3, [r7, #24]
     d74:	69bb      	ldr	r3, [r7, #24]
     d76:	220a      	movs	r2, #10
     d78:	601a      	str	r2, [r3, #0]
     d7a:	69bb      	ldr	r3, [r7, #24]
     d7c:	3b04      	subs	r3, #4
     d7e:	61bb      	str	r3, [r7, #24]
     d80:	69bb      	ldr	r3, [r7, #24]
     d82:	2209      	movs	r2, #9
     d84:	601a      	str	r2, [r3, #0]
     d86:	69bb      	ldr	r3, [r7, #24]
     d88:	3b04      	subs	r3, #4
     d8a:	61bb      	str	r3, [r7, #24]
     d8c:	69bb      	ldr	r3, [r7, #24]
     d8e:	2208      	movs	r2, #8
     d90:	601a      	str	r2, [r3, #0]
     d92:	69bb      	ldr	r3, [r7, #24]
     d94:	3b04      	subs	r3, #4
     d96:	61bb      	str	r3, [r7, #24]
     d98:	69bb      	ldr	r3, [r7, #24]
     d9a:	2207      	movs	r2, #7
     d9c:	601a      	str	r2, [r3, #0]
     d9e:	69bb      	ldr	r3, [r7, #24]
     da0:	3b04      	subs	r3, #4
     da2:	61bb      	str	r3, [r7, #24]
     da4:	69bb      	ldr	r3, [r7, #24]
     da6:	2206      	movs	r2, #6
     da8:	601a      	str	r2, [r3, #0]
     daa:	69bb      	ldr	r3, [r7, #24]
     dac:	3b04      	subs	r3, #4
     dae:	61bb      	str	r3, [r7, #24]
     db0:	69bb      	ldr	r3, [r7, #24]
     db2:	2205      	movs	r2, #5
     db4:	601a      	str	r2, [r3, #0]
     db6:	69bb      	ldr	r3, [r7, #24]
     db8:	3b04      	subs	r3, #4
     dba:	61bb      	str	r3, [r7, #24]
     dbc:	69bb      	ldr	r3, [r7, #24]
     dbe:	2204      	movs	r2, #4
     dc0:	601a      	str	r2, [r3, #0]
     dc2:	68fb      	ldr	r3, [r7, #12]
     dc4:	69ba      	ldr	r2, [r7, #24]
     dc6:	601a      	str	r2, [r3, #0]
     dc8:	68fb      	ldr	r3, [r7, #12]
     dca:	2200      	movs	r2, #0
     dcc:	605a      	str	r2, [r3, #4]
     dce:	68fb      	ldr	r3, [r7, #12]
     dd0:	2200      	movs	r2, #0
     dd2:	615a      	str	r2, [r3, #20]
     dd4:	68fb      	ldr	r3, [r7, #12]
     dd6:	330c      	adds	r3, #12
     dd8:	4618      	mov	r0, r3
     dda:	f000 fc5d 	bl	1698 <list_node_init>
     dde:	68fb      	ldr	r3, [r7, #12]
     de0:	683a      	ldr	r2, [r7, #0]
     de2:	609a      	str	r2, [r3, #8]
     de4:	68fb      	ldr	r3, [r7, #12]
     de6:	220a      	movs	r2, #10
     de8:	621a      	str	r2, [r3, #32]
     dea:	68fb      	ldr	r3, [r7, #12]
     dec:	3318      	adds	r3, #24
     dee:	4618      	mov	r0, r3
     df0:	f000 fc52 	bl	1698 <list_node_init>
     df4:	683a      	ldr	r2, [r7, #0]
     df6:	4613      	mov	r3, r2
     df8:	005b      	lsls	r3, r3, #1
     dfa:	4413      	add	r3, r2
     dfc:	009b      	lsls	r3, r3, #2
     dfe:	4a15      	ldr	r2, [pc, #84]	; (e54 <task_init+0x16a>)
     e00:	441a      	add	r2, r3
     e02:	68fb      	ldr	r3, [r7, #12]
     e04:	3318      	adds	r3, #24
     e06:	4619      	mov	r1, r3
     e08:	4610      	mov	r0, r2
     e0a:	f000 fd29 	bl	1860 <list_append_last>
     e0e:	6839      	ldr	r1, [r7, #0]
     e10:	4811      	ldr	r0, [pc, #68]	; (e58 <task_init+0x16e>)
     e12:	f000 fbd2 	bl	15ba <bitmap_set>
     e16:	68fb      	ldr	r3, [r7, #12]
     e18:	2200      	movs	r2, #0
     e1a:	625a      	str	r2, [r3, #36]	; 0x24
     e1c:	68fb      	ldr	r3, [r7, #12]
     e1e:	2200      	movs	r2, #0
     e20:	629a      	str	r2, [r3, #40]	; 0x28
     e22:	68fb      	ldr	r3, [r7, #12]
     e24:	2200      	movs	r2, #0
     e26:	62da      	str	r2, [r3, #44]	; 0x2c
     e28:	68fb      	ldr	r3, [r7, #12]
     e2a:	2200      	movs	r2, #0
     e2c:	f883 2030 	strb.w	r2, [r3, #48]	; 0x30
     e30:	68fb      	ldr	r3, [r7, #12]
     e32:	2200      	movs	r2, #0
     e34:	635a      	str	r2, [r3, #52]	; 0x34
     e36:	68fb      	ldr	r3, [r7, #12]
     e38:	2200      	movs	r2, #0
     e3a:	639a      	str	r2, [r3, #56]	; 0x38
     e3c:	68fb      	ldr	r3, [r7, #12]
     e3e:	2200      	movs	r2, #0
     e40:	63da      	str	r2, [r3, #60]	; 0x3c
     e42:	bf00      	nop
     e44:	3710      	adds	r7, #16
     e46:	46bd      	mov	sp, r7
     e48:	bd80      	pop	{r7, pc}
     e4a:	bf00      	nop
     e4c:	00002d74 	andeq	r2, r0, r4, ror sp
     e50:	00002d2c 	andeq	r2, r0, ip, lsr #26
     e54:	20000008 	andcs	r0, r0, r8
     e58:	200011d8 	ldrdcs	r1, [r0], -r8

00000e5c <task_sched>:
     e5c:	b580      	push	{r7, lr}
     e5e:	b082      	sub	sp, #8
     e60:	af00      	add	r7, sp, #0
     e62:	f000 f931 	bl	10c8 <task_enter_critical>
     e66:	6078      	str	r0, [r7, #4]
     e68:	4b0d      	ldr	r3, [pc, #52]	; (ea0 <task_sched+0x44>)
     e6a:	781b      	ldrb	r3, [r3, #0]
     e6c:	2b00      	cmp	r3, #0
     e6e:	d10d      	bne.n	e8c <task_sched+0x30>
     e70:	f000 f97e 	bl	1170 <task_highest_ready>
     e74:	6038      	str	r0, [r7, #0]
     e76:	4b0b      	ldr	r3, [pc, #44]	; (ea4 <task_sched+0x48>)
     e78:	681b      	ldr	r3, [r3, #0]
     e7a:	683a      	ldr	r2, [r7, #0]
     e7c:	429a      	cmp	r2, r3
     e7e:	d007      	beq.n	e90 <task_sched+0x34>
     e80:	4a09      	ldr	r2, [pc, #36]	; (ea8 <task_sched+0x4c>)
     e82:	683b      	ldr	r3, [r7, #0]
     e84:	6013      	str	r3, [r2, #0]
     e86:	f000 f811 	bl	eac <task_switch>
     e8a:	e002      	b.n	e92 <task_sched+0x36>
     e8c:	bf00      	nop
     e8e:	e000      	b.n	e92 <task_sched+0x36>
     e90:	bf00      	nop
     e92:	6878      	ldr	r0, [r7, #4]
     e94:	f000 f925 	bl	10e2 <task_exit_critical>
     e98:	bf00      	nop
     e9a:	3708      	adds	r7, #8
     e9c:	46bd      	mov	sp, r7
     e9e:	bd80      	pop	{r7, pc}
     ea0:	200011d4 	ldrdcs	r1, [r0], -r4
     ea4:	20000000 	andcs	r0, r0, r0
     ea8:	20000004 	andcs	r0, r0, r4

00000eac <task_switch>:
     eac:	b480      	push	{r7}
     eae:	af00      	add	r7, sp, #0
     eb0:	4b03      	ldr	r3, [pc, #12]	; (ec0 <task_switch+0x14>)
     eb2:	f04f 5280 	mov.w	r2, #268435456	; 0x10000000
     eb6:	601a      	str	r2, [r3, #0]
     eb8:	bf00      	nop
     eba:	46bd      	mov	sp, r7
     ebc:	bc80      	pop	{r7}
     ebe:	4770      	bx	lr
     ec0:	e000ed04 	and	lr, r0, r4, lsl #26

00000ec4 <task_run_first>:
     ec4:	b580      	push	{r7, lr}
     ec6:	af00      	add	r7, sp, #0
     ec8:	4906      	ldr	r1, [pc, #24]	; (ee4 <task_run_first+0x20>)
     eca:	4807      	ldr	r0, [pc, #28]	; (ee8 <task_run_first+0x24>)
     ecc:	f7ff fc6a 	bl	7a4 <printk>
     ed0:	4b06      	ldr	r3, [pc, #24]	; (eec <task_run_first+0x28>)
     ed2:	22ff      	movs	r2, #255	; 0xff
     ed4:	701a      	strb	r2, [r3, #0]
     ed6:	4b06      	ldr	r3, [pc, #24]	; (ef0 <task_run_first+0x2c>)
     ed8:	f04f 5280 	mov.w	r2, #268435456	; 0x10000000
     edc:	601a      	str	r2, [r3, #0]
     ede:	bf00      	nop
     ee0:	bd80      	pop	{r7, pc}
     ee2:	bf00      	nop
     ee4:	00002d80 	andeq	r2, r0, r0, lsl #27
     ee8:	00002d2c 	andeq	r2, r0, ip, lsr #26
     eec:	e000ed22 	and	lr, r0, r2, lsr #26
     ef0:	e000ed04 	and	lr, r0, r4, lsl #26

00000ef4 <task_delay>:
     ef4:	b580      	push	{r7, lr}
     ef6:	b084      	sub	sp, #16
     ef8:	af00      	add	r7, sp, #0
     efa:	6078      	str	r0, [r7, #4]
     efc:	f000 f8e4 	bl	10c8 <task_enter_critical>
     f00:	60f8      	str	r0, [r7, #12]
     f02:	4b0a      	ldr	r3, [pc, #40]	; (f2c <task_delay+0x38>)
     f04:	681b      	ldr	r3, [r3, #0]
     f06:	6879      	ldr	r1, [r7, #4]
     f08:	4618      	mov	r0, r3
     f0a:	f000 f99b 	bl	1244 <task_delay_wait>
     f0e:	4b07      	ldr	r3, [pc, #28]	; (f2c <task_delay+0x38>)
     f10:	681b      	ldr	r3, [r3, #0]
     f12:	4618      	mov	r0, r3
     f14:	f000 f968 	bl	11e8 <task_unready>
     f18:	68f8      	ldr	r0, [r7, #12]
     f1a:	f000 f8e2 	bl	10e2 <task_exit_critical>
     f1e:	f7ff ff9d 	bl	e5c <task_sched>
     f22:	bf00      	nop
     f24:	3710      	adds	r7, #16
     f26:	46bd      	mov	sp, r7
     f28:	bd80      	pop	{r7, pc}
     f2a:	bf00      	nop
     f2c:	20000000 	andcs	r0, r0, r0

00000f30 <task_delay_s>:
     f30:	b580      	push	{r7, lr}
     f32:	b082      	sub	sp, #8
     f34:	af00      	add	r7, sp, #0
     f36:	6078      	str	r0, [r7, #4]
     f38:	687b      	ldr	r3, [r7, #4]
     f3a:	2264      	movs	r2, #100	; 0x64
     f3c:	fb02 f303 	mul.w	r3, r2, r3
     f40:	4618      	mov	r0, r3
     f42:	f7ff ffd7 	bl	ef4 <task_delay>
     f46:	bf00      	nop
     f48:	3708      	adds	r7, #8
     f4a:	46bd      	mov	sp, r7
     f4c:	bd80      	pop	{r7, pc}

00000f4e <task_system_tick_handler>:
     f4e:	b580      	push	{r7, lr}
     f50:	b084      	sub	sp, #16
     f52:	af00      	add	r7, sp, #0
     f54:	f000 f8b8 	bl	10c8 <task_enter_critical>
     f58:	60b8      	str	r0, [r7, #8]
     f5a:	4b38      	ldr	r3, [pc, #224]	; (103c <task_system_tick_handler+0xee>)
     f5c:	607b      	str	r3, [r7, #4]
     f5e:	687b      	ldr	r3, [r7, #4]
     f60:	685b      	ldr	r3, [r3, #4]
     f62:	60fb      	str	r3, [r7, #12]
     f64:	2300      	movs	r3, #0
     f66:	603b      	str	r3, [r7, #0]
     f68:	e01d      	b.n	fa6 <task_system_tick_handler+0x58>
     f6a:	68fb      	ldr	r3, [r7, #12]
     f6c:	3b0c      	subs	r3, #12
     f6e:	603b      	str	r3, [r7, #0]
     f70:	68fb      	ldr	r3, [r7, #12]
     f72:	685b      	ldr	r3, [r3, #4]
     f74:	60fb      	str	r3, [r7, #12]
     f76:	683b      	ldr	r3, [r7, #0]
     f78:	685b      	ldr	r3, [r3, #4]
     f7a:	1e5a      	subs	r2, r3, #1
     f7c:	683b      	ldr	r3, [r7, #0]
     f7e:	605a      	str	r2, [r3, #4]
     f80:	683b      	ldr	r3, [r7, #0]
     f82:	685b      	ldr	r3, [r3, #4]
     f84:	2b00      	cmp	r3, #0
     f86:	d10e      	bne.n	fa6 <task_system_tick_handler+0x58>
     f88:	683b      	ldr	r3, [r7, #0]
     f8a:	6b5b      	ldr	r3, [r3, #52]	; 0x34
     f8c:	2b00      	cmp	r3, #0
     f8e:	d004      	beq.n	f9a <task_system_tick_handler+0x4c>
     f90:	2201      	movs	r2, #1
     f92:	2100      	movs	r1, #0
     f94:	6838      	ldr	r0, [r7, #0]
     f96:	f000 fd98 	bl	1aca <event_remove_task>
     f9a:	6838      	ldr	r0, [r7, #0]
     f9c:	f000 f96c 	bl	1278 <task_delay_wakeup>
     fa0:	6838      	ldr	r0, [r7, #0]
     fa2:	f000 f901 	bl	11a8 <task_ready>
     fa6:	68fa      	ldr	r2, [r7, #12]
     fa8:	687b      	ldr	r3, [r7, #4]
     faa:	429a      	cmp	r2, r3
     fac:	d1dd      	bne.n	f6a <task_system_tick_handler+0x1c>
     fae:	4b24      	ldr	r3, [pc, #144]	; (1040 <task_system_tick_handler+0xf2>)
     fb0:	681b      	ldr	r3, [r3, #0]
     fb2:	6a1a      	ldr	r2, [r3, #32]
     fb4:	3a01      	subs	r2, #1
     fb6:	621a      	str	r2, [r3, #32]
     fb8:	6a1b      	ldr	r3, [r3, #32]
     fba:	2b00      	cmp	r3, #0
     fbc:	d132      	bne.n	1024 <task_system_tick_handler+0xd6>
     fbe:	4b20      	ldr	r3, [pc, #128]	; (1040 <task_system_tick_handler+0xf2>)
     fc0:	681b      	ldr	r3, [r3, #0]
     fc2:	689a      	ldr	r2, [r3, #8]
     fc4:	4613      	mov	r3, r2
     fc6:	005b      	lsls	r3, r3, #1
     fc8:	4413      	add	r3, r2
     fca:	009b      	lsls	r3, r3, #2
     fcc:	4a1d      	ldr	r2, [pc, #116]	; (1044 <task_system_tick_handler+0xf6>)
     fce:	4413      	add	r3, r2
     fd0:	4618      	mov	r0, r3
     fd2:	f000 fb85 	bl	16e0 <list_count>
     fd6:	4603      	mov	r3, r0
     fd8:	2b00      	cmp	r3, #0
     fda:	d023      	beq.n	1024 <task_system_tick_handler+0xd6>
     fdc:	4b18      	ldr	r3, [pc, #96]	; (1040 <task_system_tick_handler+0xf2>)
     fde:	681b      	ldr	r3, [r3, #0]
     fe0:	689a      	ldr	r2, [r3, #8]
     fe2:	4613      	mov	r3, r2
     fe4:	005b      	lsls	r3, r3, #1
     fe6:	4413      	add	r3, r2
     fe8:	009b      	lsls	r3, r3, #2
     fea:	4a16      	ldr	r2, [pc, #88]	; (1044 <task_system_tick_handler+0xf6>)
     fec:	441a      	add	r2, r3
     fee:	4b14      	ldr	r3, [pc, #80]	; (1040 <task_system_tick_handler+0xf2>)
     ff0:	681b      	ldr	r3, [r3, #0]
     ff2:	3318      	adds	r3, #24
     ff4:	4619      	mov	r1, r3
     ff6:	4610      	mov	r0, r2
     ff8:	f000 fc90 	bl	191c <list_remove>
     ffc:	4b10      	ldr	r3, [pc, #64]	; (1040 <task_system_tick_handler+0xf2>)
     ffe:	681b      	ldr	r3, [r3, #0]
    1000:	689a      	ldr	r2, [r3, #8]
    1002:	4613      	mov	r3, r2
    1004:	005b      	lsls	r3, r3, #1
    1006:	4413      	add	r3, r2
    1008:	009b      	lsls	r3, r3, #2
    100a:	4a0e      	ldr	r2, [pc, #56]	; (1044 <task_system_tick_handler+0xf6>)
    100c:	441a      	add	r2, r3
    100e:	4b0c      	ldr	r3, [pc, #48]	; (1040 <task_system_tick_handler+0xf2>)
    1010:	681b      	ldr	r3, [r3, #0]
    1012:	3318      	adds	r3, #24
    1014:	4619      	mov	r1, r3
    1016:	4610      	mov	r0, r2
    1018:	f000 fc22 	bl	1860 <list_append_last>
    101c:	4b08      	ldr	r3, [pc, #32]	; (1040 <task_system_tick_handler+0xf2>)
    101e:	681b      	ldr	r3, [r3, #0]
    1020:	220a      	movs	r2, #10
    1022:	621a      	str	r2, [r3, #32]
    1024:	f001 fa4e 	bl	24c4 <timer_module_tick_notify>
    1028:	68b8      	ldr	r0, [r7, #8]
    102a:	f000 f85a 	bl	10e2 <task_exit_critical>
    102e:	f7ff ff15 	bl	e5c <task_sched>
    1032:	bf00      	nop
    1034:	3710      	adds	r7, #16
    1036:	46bd      	mov	sp, r7
    1038:	bd80      	pop	{r7, pc}
    103a:	bf00      	nop
    103c:	200011dc 	ldrdcs	r1, [r0], -ip
    1040:	20000000 	andcs	r0, r0, r0
    1044:	20000008 	andcs	r0, r0, r8

00001048 <init_task_module>:
    1048:	b580      	push	{r7, lr}
    104a:	b084      	sub	sp, #16
    104c:	af02      	add	r7, sp, #8
    104e:	4b16      	ldr	r3, [pc, #88]	; (10a8 <init_task_module+0x60>)
    1050:	2200      	movs	r2, #0
    1052:	701a      	strb	r2, [r3, #0]
    1054:	2300      	movs	r3, #0
    1056:	607b      	str	r3, [r7, #4]
    1058:	4814      	ldr	r0, [pc, #80]	; (10ac <init_task_module+0x64>)
    105a:	f000 fa9b 	bl	1594 <bitmap_init>
    105e:	4814      	ldr	r0, [pc, #80]	; (10b0 <init_task_module+0x68>)
    1060:	f000 fb2c 	bl	16bc <list_init>
    1064:	2300      	movs	r3, #0
    1066:	607b      	str	r3, [r7, #4]
    1068:	e00c      	b.n	1084 <init_task_module+0x3c>
    106a:	687a      	ldr	r2, [r7, #4]
    106c:	4613      	mov	r3, r2
    106e:	005b      	lsls	r3, r3, #1
    1070:	4413      	add	r3, r2
    1072:	009b      	lsls	r3, r3, #2
    1074:	4a0f      	ldr	r2, [pc, #60]	; (10b4 <init_task_module+0x6c>)
    1076:	4413      	add	r3, r2
    1078:	4618      	mov	r0, r3
    107a:	f000 fb1f 	bl	16bc <list_init>
    107e:	687b      	ldr	r3, [r7, #4]
    1080:	3301      	adds	r3, #1
    1082:	607b      	str	r3, [r7, #4]
    1084:	687b      	ldr	r3, [r7, #4]
    1086:	2b1f      	cmp	r3, #31
    1088:	d9ef      	bls.n	106a <init_task_module+0x22>
    108a:	4b0b      	ldr	r3, [pc, #44]	; (10b8 <init_task_module+0x70>)
    108c:	9300      	str	r3, [sp, #0]
    108e:	231f      	movs	r3, #31
    1090:	2200      	movs	r2, #0
    1092:	490a      	ldr	r1, [pc, #40]	; (10bc <init_task_module+0x74>)
    1094:	480a      	ldr	r0, [pc, #40]	; (10c0 <init_task_module+0x78>)
    1096:	f7ff fe28 	bl	cea <task_init>
    109a:	4b0a      	ldr	r3, [pc, #40]	; (10c4 <init_task_module+0x7c>)
    109c:	4a08      	ldr	r2, [pc, #32]	; (10c0 <init_task_module+0x78>)
    109e:	601a      	str	r2, [r3, #0]
    10a0:	bf00      	nop
    10a2:	3708      	adds	r7, #8
    10a4:	46bd      	mov	sp, r7
    10a6:	bd80      	pop	{r7, pc}
    10a8:	200011d4 	ldrdcs	r1, [r0], -r4
    10ac:	200011d8 	ldrdcs	r1, [r0], -r8
    10b0:	200011dc 	ldrdcs	r1, [r0], -ip
    10b4:	20000008 	andcs	r0, r0, r8
    10b8:	200011d4 	ldrdcs	r1, [r0], -r4
    10bc:	00000ce1 	andeq	r0, r0, r1, ror #25
    10c0:	20000188 	andcs	r0, r0, r8, lsl #3
    10c4:	200001d0 	ldrdcs	r0, [r0], -r0	; <UNPREDICTABLE>

000010c8 <task_enter_critical>:
    10c8:	b580      	push	{r7, lr}
    10ca:	b082      	sub	sp, #8
    10cc:	af00      	add	r7, sp, #0
    10ce:	f7ff fdf4 	bl	cba <get_primask>
    10d2:	6078      	str	r0, [r7, #4]
    10d4:	f7ff fdf7 	bl	cc6 <disable_irq>
    10d8:	687b      	ldr	r3, [r7, #4]
    10da:	4618      	mov	r0, r3
    10dc:	3708      	adds	r7, #8
    10de:	46bd      	mov	sp, r7
    10e0:	bd80      	pop	{r7, pc}

000010e2 <task_exit_critical>:
    10e2:	b580      	push	{r7, lr}
    10e4:	b082      	sub	sp, #8
    10e6:	af00      	add	r7, sp, #0
    10e8:	6078      	str	r0, [r7, #4]
    10ea:	6878      	ldr	r0, [r7, #4]
    10ec:	f7ff fde8 	bl	cc0 <set_primask>
    10f0:	f7ff fdeb 	bl	cca <enable_irq>
    10f4:	bf00      	nop
    10f6:	3708      	adds	r7, #8
    10f8:	46bd      	mov	sp, r7
    10fa:	bd80      	pop	{r7, pc}

000010fc <task_sched_disable>:
    10fc:	b580      	push	{r7, lr}
    10fe:	b082      	sub	sp, #8
    1100:	af00      	add	r7, sp, #0
    1102:	f7ff ffe1 	bl	10c8 <task_enter_critical>
    1106:	6078      	str	r0, [r7, #4]
    1108:	4b08      	ldr	r3, [pc, #32]	; (112c <task_sched_disable+0x30>)
    110a:	781b      	ldrb	r3, [r3, #0]
    110c:	2bff      	cmp	r3, #255	; 0xff
    110e:	d005      	beq.n	111c <task_sched_disable+0x20>
    1110:	4b06      	ldr	r3, [pc, #24]	; (112c <task_sched_disable+0x30>)
    1112:	781b      	ldrb	r3, [r3, #0]
    1114:	3301      	adds	r3, #1
    1116:	b2da      	uxtb	r2, r3
    1118:	4b04      	ldr	r3, [pc, #16]	; (112c <task_sched_disable+0x30>)
    111a:	701a      	strb	r2, [r3, #0]
    111c:	6878      	ldr	r0, [r7, #4]
    111e:	f7ff ffe0 	bl	10e2 <task_exit_critical>
    1122:	bf00      	nop
    1124:	3708      	adds	r7, #8
    1126:	46bd      	mov	sp, r7
    1128:	bd80      	pop	{r7, pc}
    112a:	bf00      	nop
    112c:	200011d4 	ldrdcs	r1, [r0], -r4

00001130 <task_sched_enable>:
    1130:	b580      	push	{r7, lr}
    1132:	b082      	sub	sp, #8
    1134:	af00      	add	r7, sp, #0
    1136:	f7ff ffc7 	bl	10c8 <task_enter_critical>
    113a:	6078      	str	r0, [r7, #4]
    113c:	4b0b      	ldr	r3, [pc, #44]	; (116c <task_sched_enable+0x3c>)
    113e:	781b      	ldrb	r3, [r3, #0]
    1140:	2b00      	cmp	r3, #0
    1142:	d00b      	beq.n	115c <task_sched_enable+0x2c>
    1144:	4b09      	ldr	r3, [pc, #36]	; (116c <task_sched_enable+0x3c>)
    1146:	781b      	ldrb	r3, [r3, #0]
    1148:	3b01      	subs	r3, #1
    114a:	b2da      	uxtb	r2, r3
    114c:	4b07      	ldr	r3, [pc, #28]	; (116c <task_sched_enable+0x3c>)
    114e:	701a      	strb	r2, [r3, #0]
    1150:	4b06      	ldr	r3, [pc, #24]	; (116c <task_sched_enable+0x3c>)
    1152:	781b      	ldrb	r3, [r3, #0]
    1154:	2b00      	cmp	r3, #0
    1156:	d101      	bne.n	115c <task_sched_enable+0x2c>
    1158:	f7ff fe80 	bl	e5c <task_sched>
    115c:	6878      	ldr	r0, [r7, #4]
    115e:	f7ff ffc0 	bl	10e2 <task_exit_critical>
    1162:	bf00      	nop
    1164:	3708      	adds	r7, #8
    1166:	46bd      	mov	sp, r7
    1168:	bd80      	pop	{r7, pc}
    116a:	bf00      	nop
    116c:	200011d4 	ldrdcs	r1, [r0], -r4

00001170 <task_highest_ready>:
    1170:	b580      	push	{r7, lr}
    1172:	b082      	sub	sp, #8
    1174:	af00      	add	r7, sp, #0
    1176:	480a      	ldr	r0, [pc, #40]	; (11a0 <task_highest_ready+0x30>)
    1178:	f000 fa46 	bl	1608 <bitmap_get_first_set>
    117c:	6078      	str	r0, [r7, #4]
    117e:	687a      	ldr	r2, [r7, #4]
    1180:	4613      	mov	r3, r2
    1182:	005b      	lsls	r3, r3, #1
    1184:	4413      	add	r3, r2
    1186:	009b      	lsls	r3, r3, #2
    1188:	4a06      	ldr	r2, [pc, #24]	; (11a4 <task_highest_ready+0x34>)
    118a:	4413      	add	r3, r2
    118c:	4618      	mov	r0, r3
    118e:	f000 fab9 	bl	1704 <list_head>
    1192:	6038      	str	r0, [r7, #0]
    1194:	683b      	ldr	r3, [r7, #0]
    1196:	3b18      	subs	r3, #24
    1198:	4618      	mov	r0, r3
    119a:	3708      	adds	r7, #8
    119c:	46bd      	mov	sp, r7
    119e:	bd80      	pop	{r7, pc}
    11a0:	200011d8 	ldrdcs	r1, [r0], -r8
    11a4:	20000008 	andcs	r0, r0, r8

000011a8 <task_ready>:
    11a8:	b580      	push	{r7, lr}
    11aa:	b082      	sub	sp, #8
    11ac:	af00      	add	r7, sp, #0
    11ae:	6078      	str	r0, [r7, #4]
    11b0:	687b      	ldr	r3, [r7, #4]
    11b2:	689a      	ldr	r2, [r3, #8]
    11b4:	4613      	mov	r3, r2
    11b6:	005b      	lsls	r3, r3, #1
    11b8:	4413      	add	r3, r2
    11ba:	009b      	lsls	r3, r3, #2
    11bc:	4a08      	ldr	r2, [pc, #32]	; (11e0 <task_ready+0x38>)
    11be:	441a      	add	r2, r3
    11c0:	687b      	ldr	r3, [r7, #4]
    11c2:	3318      	adds	r3, #24
    11c4:	4619      	mov	r1, r3
    11c6:	4610      	mov	r0, r2
    11c8:	f000 fb4a 	bl	1860 <list_append_last>
    11cc:	687b      	ldr	r3, [r7, #4]
    11ce:	689b      	ldr	r3, [r3, #8]
    11d0:	4619      	mov	r1, r3
    11d2:	4804      	ldr	r0, [pc, #16]	; (11e4 <task_ready+0x3c>)
    11d4:	f000 f9f1 	bl	15ba <bitmap_set>
    11d8:	bf00      	nop
    11da:	3708      	adds	r7, #8
    11dc:	46bd      	mov	sp, r7
    11de:	bd80      	pop	{r7, pc}
    11e0:	20000008 	andcs	r0, r0, r8
    11e4:	200011d8 	ldrdcs	r1, [r0], -r8

000011e8 <task_unready>:
    11e8:	b580      	push	{r7, lr}
    11ea:	b082      	sub	sp, #8
    11ec:	af00      	add	r7, sp, #0
    11ee:	6078      	str	r0, [r7, #4]
    11f0:	687b      	ldr	r3, [r7, #4]
    11f2:	689a      	ldr	r2, [r3, #8]
    11f4:	4613      	mov	r3, r2
    11f6:	005b      	lsls	r3, r3, #1
    11f8:	4413      	add	r3, r2
    11fa:	009b      	lsls	r3, r3, #2
    11fc:	4a0f      	ldr	r2, [pc, #60]	; (123c <task_unready+0x54>)
    11fe:	441a      	add	r2, r3
    1200:	687b      	ldr	r3, [r7, #4]
    1202:	3318      	adds	r3, #24
    1204:	4619      	mov	r1, r3
    1206:	4610      	mov	r0, r2
    1208:	f000 fb88 	bl	191c <list_remove>
    120c:	687b      	ldr	r3, [r7, #4]
    120e:	689a      	ldr	r2, [r3, #8]
    1210:	4613      	mov	r3, r2
    1212:	005b      	lsls	r3, r3, #1
    1214:	4413      	add	r3, r2
    1216:	009b      	lsls	r3, r3, #2
    1218:	4a08      	ldr	r2, [pc, #32]	; (123c <task_unready+0x54>)
    121a:	4413      	add	r3, r2
    121c:	4618      	mov	r0, r3
    121e:	f000 fa5f 	bl	16e0 <list_count>
    1222:	4603      	mov	r3, r0
    1224:	2b00      	cmp	r3, #0
    1226:	d105      	bne.n	1234 <task_unready+0x4c>
    1228:	687b      	ldr	r3, [r7, #4]
    122a:	689b      	ldr	r3, [r3, #8]
    122c:	4619      	mov	r1, r3
    122e:	4804      	ldr	r0, [pc, #16]	; (1240 <task_unready+0x58>)
    1230:	f000 f9d6 	bl	15e0 <bitmap_clear>
    1234:	bf00      	nop
    1236:	3708      	adds	r7, #8
    1238:	46bd      	mov	sp, r7
    123a:	bd80      	pop	{r7, pc}
    123c:	20000008 	andcs	r0, r0, r8
    1240:	200011d8 	ldrdcs	r1, [r0], -r8

00001244 <task_delay_wait>:
    1244:	b580      	push	{r7, lr}
    1246:	b082      	sub	sp, #8
    1248:	af00      	add	r7, sp, #0
    124a:	6078      	str	r0, [r7, #4]
    124c:	6039      	str	r1, [r7, #0]
    124e:	687b      	ldr	r3, [r7, #4]
    1250:	683a      	ldr	r2, [r7, #0]
    1252:	605a      	str	r2, [r3, #4]
    1254:	687b      	ldr	r3, [r7, #4]
    1256:	330c      	adds	r3, #12
    1258:	4619      	mov	r1, r3
    125a:	4806      	ldr	r0, [pc, #24]	; (1274 <task_delay_wait+0x30>)
    125c:	f000 fad7 	bl	180e <list_insert_head>
    1260:	687b      	ldr	r3, [r7, #4]
    1262:	695b      	ldr	r3, [r3, #20]
    1264:	f043 0202 	orr.w	r2, r3, #2
    1268:	687b      	ldr	r3, [r7, #4]
    126a:	615a      	str	r2, [r3, #20]
    126c:	bf00      	nop
    126e:	3708      	adds	r7, #8
    1270:	46bd      	mov	sp, r7
    1272:	bd80      	pop	{r7, pc}
    1274:	200011dc 	ldrdcs	r1, [r0], -ip

00001278 <task_delay_wakeup>:
    1278:	b580      	push	{r7, lr}
    127a:	b082      	sub	sp, #8
    127c:	af00      	add	r7, sp, #0
    127e:	6078      	str	r0, [r7, #4]
    1280:	687b      	ldr	r3, [r7, #4]
    1282:	330c      	adds	r3, #12
    1284:	4619      	mov	r1, r3
    1286:	4806      	ldr	r0, [pc, #24]	; (12a0 <task_delay_wakeup+0x28>)
    1288:	f000 fb48 	bl	191c <list_remove>
    128c:	687b      	ldr	r3, [r7, #4]
    128e:	695b      	ldr	r3, [r3, #20]
    1290:	f023 0202 	bic.w	r2, r3, #2
    1294:	687b      	ldr	r3, [r7, #4]
    1296:	615a      	str	r2, [r3, #20]
    1298:	bf00      	nop
    129a:	3708      	adds	r7, #8
    129c:	46bd      	mov	sp, r7
    129e:	bd80      	pop	{r7, pc}
    12a0:	200011dc 	ldrdcs	r1, [r0], -ip

000012a4 <task_suspend>:
    12a4:	b580      	push	{r7, lr}
    12a6:	b084      	sub	sp, #16
    12a8:	af00      	add	r7, sp, #0
    12aa:	6078      	str	r0, [r7, #4]
    12ac:	f7ff ff0c 	bl	10c8 <task_enter_critical>
    12b0:	60f8      	str	r0, [r7, #12]
    12b2:	687b      	ldr	r3, [r7, #4]
    12b4:	695b      	ldr	r3, [r3, #20]
    12b6:	f003 0302 	and.w	r3, r3, #2
    12ba:	2b00      	cmp	r3, #0
    12bc:	d116      	bne.n	12ec <task_suspend+0x48>
    12be:	687b      	ldr	r3, [r7, #4]
    12c0:	6a5b      	ldr	r3, [r3, #36]	; 0x24
    12c2:	1c59      	adds	r1, r3, #1
    12c4:	687a      	ldr	r2, [r7, #4]
    12c6:	6251      	str	r1, [r2, #36]	; 0x24
    12c8:	2b00      	cmp	r3, #0
    12ca:	d10f      	bne.n	12ec <task_suspend+0x48>
    12cc:	687b      	ldr	r3, [r7, #4]
    12ce:	695b      	ldr	r3, [r3, #20]
    12d0:	f043 0204 	orr.w	r2, r3, #4
    12d4:	687b      	ldr	r3, [r7, #4]
    12d6:	615a      	str	r2, [r3, #20]
    12d8:	6878      	ldr	r0, [r7, #4]
    12da:	f7ff ff85 	bl	11e8 <task_unready>
    12de:	4b07      	ldr	r3, [pc, #28]	; (12fc <task_suspend+0x58>)
    12e0:	681b      	ldr	r3, [r3, #0]
    12e2:	687a      	ldr	r2, [r7, #4]
    12e4:	429a      	cmp	r2, r3
    12e6:	d101      	bne.n	12ec <task_suspend+0x48>
    12e8:	f7ff fdb8 	bl	e5c <task_sched>
    12ec:	68f8      	ldr	r0, [r7, #12]
    12ee:	f7ff fef8 	bl	10e2 <task_exit_critical>
    12f2:	bf00      	nop
    12f4:	3710      	adds	r7, #16
    12f6:	46bd      	mov	sp, r7
    12f8:	bd80      	pop	{r7, pc}
    12fa:	bf00      	nop
    12fc:	20000000 	andcs	r0, r0, r0

00001300 <task_resume>:
    1300:	b580      	push	{r7, lr}
    1302:	b084      	sub	sp, #16
    1304:	af00      	add	r7, sp, #0
    1306:	6078      	str	r0, [r7, #4]
    1308:	f7ff fede 	bl	10c8 <task_enter_critical>
    130c:	60f8      	str	r0, [r7, #12]
    130e:	687b      	ldr	r3, [r7, #4]
    1310:	695b      	ldr	r3, [r3, #20]
    1312:	f003 0304 	and.w	r3, r3, #4
    1316:	2b00      	cmp	r3, #0
    1318:	d013      	beq.n	1342 <task_resume+0x42>
    131a:	687b      	ldr	r3, [r7, #4]
    131c:	6a5b      	ldr	r3, [r3, #36]	; 0x24
    131e:	1e5a      	subs	r2, r3, #1
    1320:	687b      	ldr	r3, [r7, #4]
    1322:	625a      	str	r2, [r3, #36]	; 0x24
    1324:	687b      	ldr	r3, [r7, #4]
    1326:	6a5b      	ldr	r3, [r3, #36]	; 0x24
    1328:	2b00      	cmp	r3, #0
    132a:	d10a      	bne.n	1342 <task_resume+0x42>
    132c:	687b      	ldr	r3, [r7, #4]
    132e:	695b      	ldr	r3, [r3, #20]
    1330:	f023 0204 	bic.w	r2, r3, #4
    1334:	687b      	ldr	r3, [r7, #4]
    1336:	615a      	str	r2, [r3, #20]
    1338:	6878      	ldr	r0, [r7, #4]
    133a:	f7ff ff35 	bl	11a8 <task_ready>
    133e:	f7ff fd8d 	bl	e5c <task_sched>
    1342:	68f8      	ldr	r0, [r7, #12]
    1344:	f7ff fecd 	bl	10e2 <task_exit_critical>
    1348:	bf00      	nop
    134a:	3710      	adds	r7, #16
    134c:	46bd      	mov	sp, r7
    134e:	bd80      	pop	{r7, pc}

00001350 <task_remove_from_prio_table>:
    1350:	b580      	push	{r7, lr}
    1352:	b082      	sub	sp, #8
    1354:	af00      	add	r7, sp, #0
    1356:	6078      	str	r0, [r7, #4]
    1358:	687b      	ldr	r3, [r7, #4]
    135a:	689a      	ldr	r2, [r3, #8]
    135c:	4613      	mov	r3, r2
    135e:	005b      	lsls	r3, r3, #1
    1360:	4413      	add	r3, r2
    1362:	009b      	lsls	r3, r3, #2
    1364:	4a0f      	ldr	r2, [pc, #60]	; (13a4 <task_remove_from_prio_table+0x54>)
    1366:	441a      	add	r2, r3
    1368:	687b      	ldr	r3, [r7, #4]
    136a:	3318      	adds	r3, #24
    136c:	4619      	mov	r1, r3
    136e:	4610      	mov	r0, r2
    1370:	f000 fad4 	bl	191c <list_remove>
    1374:	687b      	ldr	r3, [r7, #4]
    1376:	689a      	ldr	r2, [r3, #8]
    1378:	4613      	mov	r3, r2
    137a:	005b      	lsls	r3, r3, #1
    137c:	4413      	add	r3, r2
    137e:	009b      	lsls	r3, r3, #2
    1380:	4a08      	ldr	r2, [pc, #32]	; (13a4 <task_remove_from_prio_table+0x54>)
    1382:	4413      	add	r3, r2
    1384:	4618      	mov	r0, r3
    1386:	f000 f9ab 	bl	16e0 <list_count>
    138a:	4603      	mov	r3, r0
    138c:	2b00      	cmp	r3, #0
    138e:	d105      	bne.n	139c <task_remove_from_prio_table+0x4c>
    1390:	687b      	ldr	r3, [r7, #4]
    1392:	689b      	ldr	r3, [r3, #8]
    1394:	4619      	mov	r1, r3
    1396:	4804      	ldr	r0, [pc, #16]	; (13a8 <task_remove_from_prio_table+0x58>)
    1398:	f000 f922 	bl	15e0 <bitmap_clear>
    139c:	bf00      	nop
    139e:	3708      	adds	r7, #8
    13a0:	46bd      	mov	sp, r7
    13a2:	bd80      	pop	{r7, pc}
    13a4:	20000008 	andcs	r0, r0, r8
    13a8:	200011d8 	ldrdcs	r1, [r0], -r8

000013ac <task_remove_from_delay_list>:
    13ac:	b580      	push	{r7, lr}
    13ae:	b082      	sub	sp, #8
    13b0:	af00      	add	r7, sp, #0
    13b2:	6078      	str	r0, [r7, #4]
    13b4:	687b      	ldr	r3, [r7, #4]
    13b6:	330c      	adds	r3, #12
    13b8:	4619      	mov	r1, r3
    13ba:	4803      	ldr	r0, [pc, #12]	; (13c8 <task_remove_from_delay_list+0x1c>)
    13bc:	f000 faae 	bl	191c <list_remove>
    13c0:	bf00      	nop
    13c2:	3708      	adds	r7, #8
    13c4:	46bd      	mov	sp, r7
    13c6:	bd80      	pop	{r7, pc}
    13c8:	200011dc 	ldrdcs	r1, [r0], -ip

000013cc <task_set_clean_callbk>:
    13cc:	b480      	push	{r7}
    13ce:	b085      	sub	sp, #20
    13d0:	af00      	add	r7, sp, #0
    13d2:	60f8      	str	r0, [r7, #12]
    13d4:	60b9      	str	r1, [r7, #8]
    13d6:	607a      	str	r2, [r7, #4]
    13d8:	68fb      	ldr	r3, [r7, #12]
    13da:	68ba      	ldr	r2, [r7, #8]
    13dc:	629a      	str	r2, [r3, #40]	; 0x28
    13de:	68fb      	ldr	r3, [r7, #12]
    13e0:	687a      	ldr	r2, [r7, #4]
    13e2:	62da      	str	r2, [r3, #44]	; 0x2c
    13e4:	bf00      	nop
    13e6:	3714      	adds	r7, #20
    13e8:	46bd      	mov	sp, r7
    13ea:	bc80      	pop	{r7}
    13ec:	4770      	bx	lr

000013ee <task_force_delete>:
    13ee:	b580      	push	{r7, lr}
    13f0:	b084      	sub	sp, #16
    13f2:	af00      	add	r7, sp, #0
    13f4:	6078      	str	r0, [r7, #4]
    13f6:	f7ff fe67 	bl	10c8 <task_enter_critical>
    13fa:	60f8      	str	r0, [r7, #12]
    13fc:	687b      	ldr	r3, [r7, #4]
    13fe:	695b      	ldr	r3, [r3, #20]
    1400:	f003 0302 	and.w	r3, r3, #2
    1404:	2b00      	cmp	r3, #0
    1406:	d003      	beq.n	1410 <task_force_delete+0x22>
    1408:	6878      	ldr	r0, [r7, #4]
    140a:	f7ff ffcf 	bl	13ac <task_remove_from_delay_list>
    140e:	e008      	b.n	1422 <task_force_delete+0x34>
    1410:	687b      	ldr	r3, [r7, #4]
    1412:	695b      	ldr	r3, [r3, #20]
    1414:	f003 0304 	and.w	r3, r3, #4
    1418:	2b00      	cmp	r3, #0
    141a:	d102      	bne.n	1422 <task_force_delete+0x34>
    141c:	6878      	ldr	r0, [r7, #4]
    141e:	f7ff ff97 	bl	1350 <task_remove_from_prio_table>
    1422:	687b      	ldr	r3, [r7, #4]
    1424:	6a9b      	ldr	r3, [r3, #40]	; 0x28
    1426:	2b00      	cmp	r3, #0
    1428:	d005      	beq.n	1436 <task_force_delete+0x48>
    142a:	687b      	ldr	r3, [r7, #4]
    142c:	6a9b      	ldr	r3, [r3, #40]	; 0x28
    142e:	687a      	ldr	r2, [r7, #4]
    1430:	6ad2      	ldr	r2, [r2, #44]	; 0x2c
    1432:	4610      	mov	r0, r2
    1434:	4798      	blx	r3
    1436:	4b07      	ldr	r3, [pc, #28]	; (1454 <task_force_delete+0x66>)
    1438:	681b      	ldr	r3, [r3, #0]
    143a:	687a      	ldr	r2, [r7, #4]
    143c:	429a      	cmp	r2, r3
    143e:	d101      	bne.n	1444 <task_force_delete+0x56>
    1440:	f7ff fd0c 	bl	e5c <task_sched>
    1444:	68f8      	ldr	r0, [r7, #12]
    1446:	f7ff fe4c 	bl	10e2 <task_exit_critical>
    144a:	bf00      	nop
    144c:	3710      	adds	r7, #16
    144e:	46bd      	mov	sp, r7
    1450:	bd80      	pop	{r7, pc}
    1452:	bf00      	nop
    1454:	20000000 	andcs	r0, r0, r0

00001458 <task_request_delete>:
    1458:	b580      	push	{r7, lr}
    145a:	b084      	sub	sp, #16
    145c:	af00      	add	r7, sp, #0
    145e:	6078      	str	r0, [r7, #4]
    1460:	f7ff fe32 	bl	10c8 <task_enter_critical>
    1464:	60f8      	str	r0, [r7, #12]
    1466:	687b      	ldr	r3, [r7, #4]
    1468:	2201      	movs	r2, #1
    146a:	f883 2030 	strb.w	r2, [r3, #48]	; 0x30
    146e:	68f8      	ldr	r0, [r7, #12]
    1470:	f7ff fe37 	bl	10e2 <task_exit_critical>
    1474:	bf00      	nop
    1476:	3710      	adds	r7, #16
    1478:	46bd      	mov	sp, r7
    147a:	bd80      	pop	{r7, pc}

0000147c <is_task_request_delete>:
    147c:	b580      	push	{r7, lr}
    147e:	b082      	sub	sp, #8
    1480:	af00      	add	r7, sp, #0
    1482:	f7ff fe21 	bl	10c8 <task_enter_critical>
    1486:	6078      	str	r0, [r7, #4]
    1488:	4b06      	ldr	r3, [pc, #24]	; (14a4 <is_task_request_delete+0x28>)
    148a:	681b      	ldr	r3, [r3, #0]
    148c:	f893 3030 	ldrb.w	r3, [r3, #48]	; 0x30
    1490:	70fb      	strb	r3, [r7, #3]
    1492:	6878      	ldr	r0, [r7, #4]
    1494:	f7ff fe25 	bl	10e2 <task_exit_critical>
    1498:	78fb      	ldrb	r3, [r7, #3]
    149a:	4618      	mov	r0, r3
    149c:	3708      	adds	r7, #8
    149e:	46bd      	mov	sp, r7
    14a0:	bd80      	pop	{r7, pc}
    14a2:	bf00      	nop
    14a4:	20000000 	andcs	r0, r0, r0

000014a8 <task_delete_self>:
    14a8:	b580      	push	{r7, lr}
    14aa:	b082      	sub	sp, #8
    14ac:	af00      	add	r7, sp, #0
    14ae:	f7ff fe0b 	bl	10c8 <task_enter_critical>
    14b2:	4603      	mov	r3, r0
    14b4:	71fb      	strb	r3, [r7, #7]
    14b6:	4b0e      	ldr	r3, [pc, #56]	; (14f0 <task_delete_self+0x48>)
    14b8:	681b      	ldr	r3, [r3, #0]
    14ba:	4618      	mov	r0, r3
    14bc:	f7ff ff48 	bl	1350 <task_remove_from_prio_table>
    14c0:	4b0b      	ldr	r3, [pc, #44]	; (14f0 <task_delete_self+0x48>)
    14c2:	681b      	ldr	r3, [r3, #0]
    14c4:	6a9b      	ldr	r3, [r3, #40]	; 0x28
    14c6:	2b00      	cmp	r3, #0
    14c8:	d007      	beq.n	14da <task_delete_self+0x32>
    14ca:	4b09      	ldr	r3, [pc, #36]	; (14f0 <task_delete_self+0x48>)
    14cc:	681b      	ldr	r3, [r3, #0]
    14ce:	6a9b      	ldr	r3, [r3, #40]	; 0x28
    14d0:	4a07      	ldr	r2, [pc, #28]	; (14f0 <task_delete_self+0x48>)
    14d2:	6812      	ldr	r2, [r2, #0]
    14d4:	6ad2      	ldr	r2, [r2, #44]	; 0x2c
    14d6:	4610      	mov	r0, r2
    14d8:	4798      	blx	r3
    14da:	f7ff fcbf 	bl	e5c <task_sched>
    14de:	79fb      	ldrb	r3, [r7, #7]
    14e0:	4618      	mov	r0, r3
    14e2:	f7ff fdfe 	bl	10e2 <task_exit_critical>
    14e6:	bf00      	nop
    14e8:	3708      	adds	r7, #8
    14ea:	46bd      	mov	sp, r7
    14ec:	bd80      	pop	{r7, pc}
    14ee:	bf00      	nop
    14f0:	20000000 	andcs	r0, r0, r0

000014f4 <task_get_info>:
    14f4:	b580      	push	{r7, lr}
    14f6:	b084      	sub	sp, #16
    14f8:	af00      	add	r7, sp, #0
    14fa:	6078      	str	r0, [r7, #4]
    14fc:	6039      	str	r1, [r7, #0]
    14fe:	f7ff fde3 	bl	10c8 <task_enter_critical>
    1502:	60f8      	str	r0, [r7, #12]
    1504:	687b      	ldr	r3, [r7, #4]
    1506:	685a      	ldr	r2, [r3, #4]
    1508:	683b      	ldr	r3, [r7, #0]
    150a:	601a      	str	r2, [r3, #0]
    150c:	687b      	ldr	r3, [r7, #4]
    150e:	689a      	ldr	r2, [r3, #8]
    1510:	683b      	ldr	r3, [r7, #0]
    1512:	605a      	str	r2, [r3, #4]
    1514:	687b      	ldr	r3, [r7, #4]
    1516:	695a      	ldr	r2, [r3, #20]
    1518:	683b      	ldr	r3, [r7, #0]
    151a:	609a      	str	r2, [r3, #8]
    151c:	687b      	ldr	r3, [r7, #4]
    151e:	6a1a      	ldr	r2, [r3, #32]
    1520:	683b      	ldr	r3, [r7, #0]
    1522:	60da      	str	r2, [r3, #12]
    1524:	687b      	ldr	r3, [r7, #4]
    1526:	6a5a      	ldr	r2, [r3, #36]	; 0x24
    1528:	683b      	ldr	r3, [r7, #0]
    152a:	611a      	str	r2, [r3, #16]
    152c:	68f8      	ldr	r0, [r7, #12]
    152e:	f7ff fdd8 	bl	10e2 <task_exit_critical>
    1532:	bf00      	nop
    1534:	3710      	adds	r7, #16
    1536:	46bd      	mov	sp, r7
    1538:	bd80      	pop	{r7, pc}

0000153a <dump_task_info>:
    153a:	b580      	push	{r7, lr}
    153c:	b082      	sub	sp, #8
    153e:	af00      	add	r7, sp, #0
    1540:	6078      	str	r0, [r7, #4]
    1542:	480f      	ldr	r0, [pc, #60]	; (1580 <dump_task_info+0x46>)
    1544:	f7ff f92e 	bl	7a4 <printk>
    1548:	687b      	ldr	r3, [r7, #4]
    154a:	681b      	ldr	r3, [r3, #0]
    154c:	4619      	mov	r1, r3
    154e:	480d      	ldr	r0, [pc, #52]	; (1584 <dump_task_info+0x4a>)
    1550:	f7ff f928 	bl	7a4 <printk>
    1554:	687b      	ldr	r3, [r7, #4]
    1556:	685b      	ldr	r3, [r3, #4]
    1558:	4619      	mov	r1, r3
    155a:	480b      	ldr	r0, [pc, #44]	; (1588 <dump_task_info+0x4e>)
    155c:	f7ff f922 	bl	7a4 <printk>
    1560:	687b      	ldr	r3, [r7, #4]
    1562:	68db      	ldr	r3, [r3, #12]
    1564:	4619      	mov	r1, r3
    1566:	4809      	ldr	r0, [pc, #36]	; (158c <dump_task_info+0x52>)
    1568:	f7ff f91c 	bl	7a4 <printk>
    156c:	687b      	ldr	r3, [r7, #4]
    156e:	691b      	ldr	r3, [r3, #16]
    1570:	4619      	mov	r1, r3
    1572:	4807      	ldr	r0, [pc, #28]	; (1590 <dump_task_info+0x56>)
    1574:	f7ff f916 	bl	7a4 <printk>
    1578:	bf00      	nop
    157a:	3708      	adds	r7, #8
    157c:	46bd      	mov	sp, r7
    157e:	bd80      	pop	{r7, pc}
    1580:	00002d30 	andeq	r2, r0, r0, lsr sp
    1584:	00002d3c 	andeq	r2, r0, ip, lsr sp
    1588:	00002d4c 	andeq	r2, r0, ip, asr #26
    158c:	00002d58 	andeq	r2, r0, r8, asr sp
    1590:	00002d64 	andeq	r2, r0, r4, ror #26

00001594 <bitmap_init>:
    1594:	b480      	push	{r7}
    1596:	b083      	sub	sp, #12
    1598:	af00      	add	r7, sp, #0
    159a:	6078      	str	r0, [r7, #4]
    159c:	687b      	ldr	r3, [r7, #4]
    159e:	2200      	movs	r2, #0
    15a0:	601a      	str	r2, [r3, #0]
    15a2:	bf00      	nop
    15a4:	370c      	adds	r7, #12
    15a6:	46bd      	mov	sp, r7
    15a8:	bc80      	pop	{r7}
    15aa:	4770      	bx	lr

000015ac <bitmap_count>:
    15ac:	b480      	push	{r7}
    15ae:	af00      	add	r7, sp, #0
    15b0:	2320      	movs	r3, #32
    15b2:	4618      	mov	r0, r3
    15b4:	46bd      	mov	sp, r7
    15b6:	bc80      	pop	{r7}
    15b8:	4770      	bx	lr

000015ba <bitmap_set>:
    15ba:	b480      	push	{r7}
    15bc:	b083      	sub	sp, #12
    15be:	af00      	add	r7, sp, #0
    15c0:	6078      	str	r0, [r7, #4]
    15c2:	6039      	str	r1, [r7, #0]
    15c4:	687b      	ldr	r3, [r7, #4]
    15c6:	681b      	ldr	r3, [r3, #0]
    15c8:	2101      	movs	r1, #1
    15ca:	683a      	ldr	r2, [r7, #0]
    15cc:	fa01 f202 	lsl.w	r2, r1, r2
    15d0:	431a      	orrs	r2, r3
    15d2:	687b      	ldr	r3, [r7, #4]
    15d4:	601a      	str	r2, [r3, #0]
    15d6:	bf00      	nop
    15d8:	370c      	adds	r7, #12
    15da:	46bd      	mov	sp, r7
    15dc:	bc80      	pop	{r7}
    15de:	4770      	bx	lr

000015e0 <bitmap_clear>:
    15e0:	b480      	push	{r7}
    15e2:	b083      	sub	sp, #12
    15e4:	af00      	add	r7, sp, #0
    15e6:	6078      	str	r0, [r7, #4]
    15e8:	6039      	str	r1, [r7, #0]
    15ea:	687b      	ldr	r3, [r7, #4]
    15ec:	681b      	ldr	r3, [r3, #0]
    15ee:	2101      	movs	r1, #1
    15f0:	683a      	ldr	r2, [r7, #0]
    15f2:	fa01 f202 	lsl.w	r2, r1, r2
    15f6:	43d2      	mvns	r2, r2
    15f8:	401a      	ands	r2, r3
    15fa:	687b      	ldr	r3, [r7, #4]
    15fc:	601a      	str	r2, [r3, #0]
    15fe:	bf00      	nop
    1600:	370c      	adds	r7, #12
    1602:	46bd      	mov	sp, r7
    1604:	bc80      	pop	{r7}
    1606:	4770      	bx	lr

00001608 <bitmap_get_first_set>:
    1608:	b580      	push	{r7, lr}
    160a:	b084      	sub	sp, #16
    160c:	af00      	add	r7, sp, #0
    160e:	6078      	str	r0, [r7, #4]
    1610:	2320      	movs	r3, #32
    1612:	60fb      	str	r3, [r7, #12]
    1614:	687b      	ldr	r3, [r7, #4]
    1616:	681b      	ldr	r3, [r3, #0]
    1618:	b2db      	uxtb	r3, r3
    161a:	2b00      	cmp	r3, #0
    161c:	d006      	beq.n	162c <bitmap_get_first_set+0x24>
    161e:	687b      	ldr	r3, [r7, #4]
    1620:	681b      	ldr	r3, [r3, #0]
    1622:	b2db      	uxtb	r3, r3
    1624:	4a1b      	ldr	r2, [pc, #108]	; (1694 <bitmap_get_first_set+0x8c>)
    1626:	5cd3      	ldrb	r3, [r2, r3]
    1628:	60fb      	str	r3, [r7, #12]
    162a:	e02e      	b.n	168a <bitmap_get_first_set+0x82>
    162c:	687b      	ldr	r3, [r7, #4]
    162e:	681b      	ldr	r3, [r3, #0]
    1630:	f403 437f 	and.w	r3, r3, #65280	; 0xff00
    1634:	2b00      	cmp	r3, #0
    1636:	d008      	beq.n	164a <bitmap_get_first_set+0x42>
    1638:	687b      	ldr	r3, [r7, #4]
    163a:	681b      	ldr	r3, [r3, #0]
    163c:	0a1b      	lsrs	r3, r3, #8
    163e:	b2db      	uxtb	r3, r3
    1640:	4a14      	ldr	r2, [pc, #80]	; (1694 <bitmap_get_first_set+0x8c>)
    1642:	5cd3      	ldrb	r3, [r2, r3]
    1644:	3308      	adds	r3, #8
    1646:	60fb      	str	r3, [r7, #12]
    1648:	e01f      	b.n	168a <bitmap_get_first_set+0x82>
    164a:	687b      	ldr	r3, [r7, #4]
    164c:	681b      	ldr	r3, [r3, #0]
    164e:	f403 037f 	and.w	r3, r3, #16711680	; 0xff0000
    1652:	2b00      	cmp	r3, #0
    1654:	d008      	beq.n	1668 <bitmap_get_first_set+0x60>
    1656:	687b      	ldr	r3, [r7, #4]
    1658:	681b      	ldr	r3, [r3, #0]
    165a:	0c1b      	lsrs	r3, r3, #16
    165c:	b2db      	uxtb	r3, r3
    165e:	4a0d      	ldr	r2, [pc, #52]	; (1694 <bitmap_get_first_set+0x8c>)
    1660:	5cd3      	ldrb	r3, [r2, r3]
    1662:	3310      	adds	r3, #16
    1664:	60fb      	str	r3, [r7, #12]
    1666:	e010      	b.n	168a <bitmap_get_first_set+0x82>
    1668:	687b      	ldr	r3, [r7, #4]
    166a:	681b      	ldr	r3, [r3, #0]
    166c:	f003 437f 	and.w	r3, r3, #4278190080	; 0xff000000
    1670:	2b00      	cmp	r3, #0
    1672:	d007      	beq.n	1684 <bitmap_get_first_set+0x7c>
    1674:	687b      	ldr	r3, [r7, #4]
    1676:	681b      	ldr	r3, [r3, #0]
    1678:	0e1b      	lsrs	r3, r3, #24
    167a:	4a06      	ldr	r2, [pc, #24]	; (1694 <bitmap_get_first_set+0x8c>)
    167c:	5cd3      	ldrb	r3, [r2, r3]
    167e:	3318      	adds	r3, #24
    1680:	60fb      	str	r3, [r7, #12]
    1682:	e002      	b.n	168a <bitmap_get_first_set+0x82>
    1684:	f7ff ff92 	bl	15ac <bitmap_count>
    1688:	60f8      	str	r0, [r7, #12]
    168a:	68fb      	ldr	r3, [r7, #12]
    168c:	4618      	mov	r0, r3
    168e:	3710      	adds	r7, #16
    1690:	46bd      	mov	sp, r7
    1692:	bd80      	pop	{r7, pc}
    1694:	00002d90 	muleq	r0, r0, sp

00001698 <list_node_init>:
    1698:	b480      	push	{r7}
    169a:	b083      	sub	sp, #12
    169c:	af00      	add	r7, sp, #0
    169e:	6078      	str	r0, [r7, #4]
    16a0:	687b      	ldr	r3, [r7, #4]
    16a2:	2b00      	cmp	r3, #0
    16a4:	d005      	beq.n	16b2 <list_node_init+0x1a>
    16a6:	687b      	ldr	r3, [r7, #4]
    16a8:	687a      	ldr	r2, [r7, #4]
    16aa:	601a      	str	r2, [r3, #0]
    16ac:	687b      	ldr	r3, [r7, #4]
    16ae:	687a      	ldr	r2, [r7, #4]
    16b0:	605a      	str	r2, [r3, #4]
    16b2:	bf00      	nop
    16b4:	370c      	adds	r7, #12
    16b6:	46bd      	mov	sp, r7
    16b8:	bc80      	pop	{r7}
    16ba:	4770      	bx	lr

000016bc <list_init>:
    16bc:	b580      	push	{r7, lr}
    16be:	b082      	sub	sp, #8
    16c0:	af00      	add	r7, sp, #0
    16c2:	6078      	str	r0, [r7, #4]
    16c4:	687b      	ldr	r3, [r7, #4]
    16c6:	2b00      	cmp	r3, #0
    16c8:	d006      	beq.n	16d8 <list_init+0x1c>
    16ca:	687b      	ldr	r3, [r7, #4]
    16cc:	2200      	movs	r2, #0
    16ce:	609a      	str	r2, [r3, #8]
    16d0:	687b      	ldr	r3, [r7, #4]
    16d2:	4618      	mov	r0, r3
    16d4:	f7ff ffe0 	bl	1698 <list_node_init>
    16d8:	bf00      	nop
    16da:	3708      	adds	r7, #8
    16dc:	46bd      	mov	sp, r7
    16de:	bd80      	pop	{r7, pc}

000016e0 <list_count>:
    16e0:	b480      	push	{r7}
    16e2:	b085      	sub	sp, #20
    16e4:	af00      	add	r7, sp, #0
    16e6:	6078      	str	r0, [r7, #4]
    16e8:	2300      	movs	r3, #0
    16ea:	60fb      	str	r3, [r7, #12]
    16ec:	687b      	ldr	r3, [r7, #4]
    16ee:	2b00      	cmp	r3, #0
    16f0:	d002      	beq.n	16f8 <list_count+0x18>
    16f2:	687b      	ldr	r3, [r7, #4]
    16f4:	689b      	ldr	r3, [r3, #8]
    16f6:	60fb      	str	r3, [r7, #12]
    16f8:	68fb      	ldr	r3, [r7, #12]
    16fa:	4618      	mov	r0, r3
    16fc:	3714      	adds	r7, #20
    16fe:	46bd      	mov	sp, r7
    1700:	bc80      	pop	{r7}
    1702:	4770      	bx	lr

00001704 <list_head>:
    1704:	b480      	push	{r7}
    1706:	b085      	sub	sp, #20
    1708:	af00      	add	r7, sp, #0
    170a:	6078      	str	r0, [r7, #4]
    170c:	687b      	ldr	r3, [r7, #4]
    170e:	60bb      	str	r3, [r7, #8]
    1710:	2300      	movs	r3, #0
    1712:	60fb      	str	r3, [r7, #12]
    1714:	687b      	ldr	r3, [r7, #4]
    1716:	689b      	ldr	r3, [r3, #8]
    1718:	2b00      	cmp	r3, #0
    171a:	d002      	beq.n	1722 <list_head+0x1e>
    171c:	68bb      	ldr	r3, [r7, #8]
    171e:	685b      	ldr	r3, [r3, #4]
    1720:	60fb      	str	r3, [r7, #12]
    1722:	68fb      	ldr	r3, [r7, #12]
    1724:	4618      	mov	r0, r3
    1726:	3714      	adds	r7, #20
    1728:	46bd      	mov	sp, r7
    172a:	bc80      	pop	{r7}
    172c:	4770      	bx	lr

0000172e <list_tail>:
    172e:	b480      	push	{r7}
    1730:	b085      	sub	sp, #20
    1732:	af00      	add	r7, sp, #0
    1734:	6078      	str	r0, [r7, #4]
    1736:	687b      	ldr	r3, [r7, #4]
    1738:	60bb      	str	r3, [r7, #8]
    173a:	2300      	movs	r3, #0
    173c:	60fb      	str	r3, [r7, #12]
    173e:	687b      	ldr	r3, [r7, #4]
    1740:	689b      	ldr	r3, [r3, #8]
    1742:	2b00      	cmp	r3, #0
    1744:	d002      	beq.n	174c <list_tail+0x1e>
    1746:	68bb      	ldr	r3, [r7, #8]
    1748:	681b      	ldr	r3, [r3, #0]
    174a:	60fb      	str	r3, [r7, #12]
    174c:	68fb      	ldr	r3, [r7, #12]
    174e:	4618      	mov	r0, r3
    1750:	3714      	adds	r7, #20
    1752:	46bd      	mov	sp, r7
    1754:	bc80      	pop	{r7}
    1756:	4770      	bx	lr

00001758 <node_prev>:
    1758:	b480      	push	{r7}
    175a:	b085      	sub	sp, #20
    175c:	af00      	add	r7, sp, #0
    175e:	6078      	str	r0, [r7, #4]
    1760:	2300      	movs	r3, #0
    1762:	60fb      	str	r3, [r7, #12]
    1764:	687b      	ldr	r3, [r7, #4]
    1766:	2b00      	cmp	r3, #0
    1768:	d002      	beq.n	1770 <node_prev+0x18>
    176a:	687b      	ldr	r3, [r7, #4]
    176c:	681b      	ldr	r3, [r3, #0]
    176e:	60fb      	str	r3, [r7, #12]
    1770:	68fb      	ldr	r3, [r7, #12]
    1772:	4618      	mov	r0, r3
    1774:	3714      	adds	r7, #20
    1776:	46bd      	mov	sp, r7
    1778:	bc80      	pop	{r7}
    177a:	4770      	bx	lr

0000177c <node_next>:
    177c:	b480      	push	{r7}
    177e:	b085      	sub	sp, #20
    1780:	af00      	add	r7, sp, #0
    1782:	6078      	str	r0, [r7, #4]
    1784:	2300      	movs	r3, #0
    1786:	60fb      	str	r3, [r7, #12]
    1788:	687b      	ldr	r3, [r7, #4]
    178a:	2b00      	cmp	r3, #0
    178c:	d002      	beq.n	1794 <node_next+0x18>
    178e:	687b      	ldr	r3, [r7, #4]
    1790:	685b      	ldr	r3, [r3, #4]
    1792:	60fb      	str	r3, [r7, #12]
    1794:	68fb      	ldr	r3, [r7, #12]
    1796:	4618      	mov	r0, r3
    1798:	3714      	adds	r7, #20
    179a:	46bd      	mov	sp, r7
    179c:	bc80      	pop	{r7}
    179e:	4770      	bx	lr

000017a0 <list_remove_all>:
    17a0:	b480      	push	{r7}
    17a2:	b087      	sub	sp, #28
    17a4:	af00      	add	r7, sp, #0
    17a6:	6078      	str	r0, [r7, #4]
    17a8:	2300      	movs	r3, #0
    17aa:	60fb      	str	r3, [r7, #12]
    17ac:	2300      	movs	r3, #0
    17ae:	613b      	str	r3, [r7, #16]
    17b0:	2300      	movs	r3, #0
    17b2:	60bb      	str	r3, [r7, #8]
    17b4:	687b      	ldr	r3, [r7, #4]
    17b6:	2b00      	cmp	r3, #0
    17b8:	d023      	beq.n	1802 <list_remove_all+0x62>
    17ba:	687b      	ldr	r3, [r7, #4]
    17bc:	60fb      	str	r3, [r7, #12]
    17be:	68fb      	ldr	r3, [r7, #12]
    17c0:	685b      	ldr	r3, [r3, #4]
    17c2:	613b      	str	r3, [r7, #16]
    17c4:	687b      	ldr	r3, [r7, #4]
    17c6:	689b      	ldr	r3, [r3, #8]
    17c8:	617b      	str	r3, [r7, #20]
    17ca:	e00d      	b.n	17e8 <list_remove_all+0x48>
    17cc:	693b      	ldr	r3, [r7, #16]
    17ce:	60bb      	str	r3, [r7, #8]
    17d0:	68bb      	ldr	r3, [r7, #8]
    17d2:	685b      	ldr	r3, [r3, #4]
    17d4:	613b      	str	r3, [r7, #16]
    17d6:	68bb      	ldr	r3, [r7, #8]
    17d8:	68ba      	ldr	r2, [r7, #8]
    17da:	605a      	str	r2, [r3, #4]
    17dc:	68bb      	ldr	r3, [r7, #8]
    17de:	68ba      	ldr	r2, [r7, #8]
    17e0:	601a      	str	r2, [r3, #0]
    17e2:	697b      	ldr	r3, [r7, #20]
    17e4:	3b01      	subs	r3, #1
    17e6:	617b      	str	r3, [r7, #20]
    17e8:	697b      	ldr	r3, [r7, #20]
    17ea:	2b00      	cmp	r3, #0
    17ec:	d1ee      	bne.n	17cc <list_remove_all+0x2c>
    17ee:	68fb      	ldr	r3, [r7, #12]
    17f0:	68fa      	ldr	r2, [r7, #12]
    17f2:	601a      	str	r2, [r3, #0]
    17f4:	68fb      	ldr	r3, [r7, #12]
    17f6:	68fa      	ldr	r2, [r7, #12]
    17f8:	605a      	str	r2, [r3, #4]
    17fa:	687b      	ldr	r3, [r7, #4]
    17fc:	2200      	movs	r2, #0
    17fe:	609a      	str	r2, [r3, #8]
    1800:	e000      	b.n	1804 <list_remove_all+0x64>
    1802:	bf00      	nop
    1804:	bf00      	nop
    1806:	371c      	adds	r7, #28
    1808:	46bd      	mov	sp, r7
    180a:	bc80      	pop	{r7}
    180c:	4770      	bx	lr

0000180e <list_insert_head>:
    180e:	b480      	push	{r7}
    1810:	b085      	sub	sp, #20
    1812:	af00      	add	r7, sp, #0
    1814:	6078      	str	r0, [r7, #4]
    1816:	6039      	str	r1, [r7, #0]
    1818:	2300      	movs	r3, #0
    181a:	60fb      	str	r3, [r7, #12]
    181c:	2300      	movs	r3, #0
    181e:	60bb      	str	r3, [r7, #8]
    1820:	687b      	ldr	r3, [r7, #4]
    1822:	2b00      	cmp	r3, #0
    1824:	d016      	beq.n	1854 <list_insert_head+0x46>
    1826:	687b      	ldr	r3, [r7, #4]
    1828:	60fb      	str	r3, [r7, #12]
    182a:	68fb      	ldr	r3, [r7, #12]
    182c:	685b      	ldr	r3, [r3, #4]
    182e:	60bb      	str	r3, [r7, #8]
    1830:	68fb      	ldr	r3, [r7, #12]
    1832:	683a      	ldr	r2, [r7, #0]
    1834:	605a      	str	r2, [r3, #4]
    1836:	68bb      	ldr	r3, [r7, #8]
    1838:	683a      	ldr	r2, [r7, #0]
    183a:	601a      	str	r2, [r3, #0]
    183c:	683b      	ldr	r3, [r7, #0]
    183e:	68fa      	ldr	r2, [r7, #12]
    1840:	601a      	str	r2, [r3, #0]
    1842:	683b      	ldr	r3, [r7, #0]
    1844:	68ba      	ldr	r2, [r7, #8]
    1846:	605a      	str	r2, [r3, #4]
    1848:	687b      	ldr	r3, [r7, #4]
    184a:	689b      	ldr	r3, [r3, #8]
    184c:	1c5a      	adds	r2, r3, #1
    184e:	687b      	ldr	r3, [r7, #4]
    1850:	609a      	str	r2, [r3, #8]
    1852:	e000      	b.n	1856 <list_insert_head+0x48>
    1854:	bf00      	nop
    1856:	bf00      	nop
    1858:	3714      	adds	r7, #20
    185a:	46bd      	mov	sp, r7
    185c:	bc80      	pop	{r7}
    185e:	4770      	bx	lr

00001860 <list_append_last>:
    1860:	b480      	push	{r7}
    1862:	b085      	sub	sp, #20
    1864:	af00      	add	r7, sp, #0
    1866:	6078      	str	r0, [r7, #4]
    1868:	6039      	str	r1, [r7, #0]
    186a:	2300      	movs	r3, #0
    186c:	60fb      	str	r3, [r7, #12]
    186e:	2300      	movs	r3, #0
    1870:	60bb      	str	r3, [r7, #8]
    1872:	687b      	ldr	r3, [r7, #4]
    1874:	2b00      	cmp	r3, #0
    1876:	d016      	beq.n	18a6 <list_append_last+0x46>
    1878:	687b      	ldr	r3, [r7, #4]
    187a:	60fb      	str	r3, [r7, #12]
    187c:	68fb      	ldr	r3, [r7, #12]
    187e:	681b      	ldr	r3, [r3, #0]
    1880:	60bb      	str	r3, [r7, #8]
    1882:	683b      	ldr	r3, [r7, #0]
    1884:	68fa      	ldr	r2, [r7, #12]
    1886:	605a      	str	r2, [r3, #4]
    1888:	683b      	ldr	r3, [r7, #0]
    188a:	68ba      	ldr	r2, [r7, #8]
    188c:	601a      	str	r2, [r3, #0]
    188e:	68bb      	ldr	r3, [r7, #8]
    1890:	683a      	ldr	r2, [r7, #0]
    1892:	605a      	str	r2, [r3, #4]
    1894:	68fb      	ldr	r3, [r7, #12]
    1896:	683a      	ldr	r2, [r7, #0]
    1898:	601a      	str	r2, [r3, #0]
    189a:	687b      	ldr	r3, [r7, #4]
    189c:	689b      	ldr	r3, [r3, #8]
    189e:	1c5a      	adds	r2, r3, #1
    18a0:	687b      	ldr	r3, [r7, #4]
    18a2:	609a      	str	r2, [r3, #8]
    18a4:	e000      	b.n	18a8 <list_append_last+0x48>
    18a6:	bf00      	nop
    18a8:	bf00      	nop
    18aa:	3714      	adds	r7, #20
    18ac:	46bd      	mov	sp, r7
    18ae:	bc80      	pop	{r7}
    18b0:	4770      	bx	lr

000018b2 <list_remove_first>:
    18b2:	b480      	push	{r7}
    18b4:	b087      	sub	sp, #28
    18b6:	af00      	add	r7, sp, #0
    18b8:	6078      	str	r0, [r7, #4]
    18ba:	2300      	movs	r3, #0
    18bc:	613b      	str	r3, [r7, #16]
    18be:	2300      	movs	r3, #0
    18c0:	60fb      	str	r3, [r7, #12]
    18c2:	2300      	movs	r3, #0
    18c4:	617b      	str	r3, [r7, #20]
    18c6:	687b      	ldr	r3, [r7, #4]
    18c8:	2b00      	cmp	r3, #0
    18ca:	d020      	beq.n	190e <list_remove_first+0x5c>
    18cc:	687b      	ldr	r3, [r7, #4]
    18ce:	613b      	str	r3, [r7, #16]
    18d0:	693b      	ldr	r3, [r7, #16]
    18d2:	685b      	ldr	r3, [r3, #4]
    18d4:	617b      	str	r3, [r7, #20]
    18d6:	697a      	ldr	r2, [r7, #20]
    18d8:	693b      	ldr	r3, [r7, #16]
    18da:	429a      	cmp	r2, r3
    18dc:	d102      	bne.n	18e4 <list_remove_first+0x32>
    18de:	2300      	movs	r3, #0
    18e0:	617b      	str	r3, [r7, #20]
    18e2:	e015      	b.n	1910 <list_remove_first+0x5e>
    18e4:	697b      	ldr	r3, [r7, #20]
    18e6:	685b      	ldr	r3, [r3, #4]
    18e8:	60fb      	str	r3, [r7, #12]
    18ea:	693b      	ldr	r3, [r7, #16]
    18ec:	68fa      	ldr	r2, [r7, #12]
    18ee:	605a      	str	r2, [r3, #4]
    18f0:	68fb      	ldr	r3, [r7, #12]
    18f2:	693a      	ldr	r2, [r7, #16]
    18f4:	601a      	str	r2, [r3, #0]
    18f6:	697b      	ldr	r3, [r7, #20]
    18f8:	697a      	ldr	r2, [r7, #20]
    18fa:	605a      	str	r2, [r3, #4]
    18fc:	697b      	ldr	r3, [r7, #20]
    18fe:	697a      	ldr	r2, [r7, #20]
    1900:	601a      	str	r2, [r3, #0]
    1902:	687b      	ldr	r3, [r7, #4]
    1904:	689b      	ldr	r3, [r3, #8]
    1906:	1e5a      	subs	r2, r3, #1
    1908:	687b      	ldr	r3, [r7, #4]
    190a:	609a      	str	r2, [r3, #8]
    190c:	e000      	b.n	1910 <list_remove_first+0x5e>
    190e:	bf00      	nop
    1910:	697b      	ldr	r3, [r7, #20]
    1912:	4618      	mov	r0, r3
    1914:	371c      	adds	r7, #28
    1916:	46bd      	mov	sp, r7
    1918:	bc80      	pop	{r7}
    191a:	4770      	bx	lr

0000191c <list_remove>:
    191c:	b480      	push	{r7}
    191e:	b085      	sub	sp, #20
    1920:	af00      	add	r7, sp, #0
    1922:	6078      	str	r0, [r7, #4]
    1924:	6039      	str	r1, [r7, #0]
    1926:	2300      	movs	r3, #0
    1928:	60fb      	str	r3, [r7, #12]
    192a:	2300      	movs	r3, #0
    192c:	60bb      	str	r3, [r7, #8]
    192e:	687b      	ldr	r3, [r7, #4]
    1930:	2b00      	cmp	r3, #0
    1932:	d01a      	beq.n	196a <list_remove+0x4e>
    1934:	683b      	ldr	r3, [r7, #0]
    1936:	2b00      	cmp	r3, #0
    1938:	d017      	beq.n	196a <list_remove+0x4e>
    193a:	683b      	ldr	r3, [r7, #0]
    193c:	685b      	ldr	r3, [r3, #4]
    193e:	60fb      	str	r3, [r7, #12]
    1940:	683b      	ldr	r3, [r7, #0]
    1942:	681b      	ldr	r3, [r3, #0]
    1944:	60bb      	str	r3, [r7, #8]
    1946:	68fb      	ldr	r3, [r7, #12]
    1948:	2b00      	cmp	r3, #0
    194a:	d010      	beq.n	196e <list_remove+0x52>
    194c:	68bb      	ldr	r3, [r7, #8]
    194e:	2b00      	cmp	r3, #0
    1950:	d00d      	beq.n	196e <list_remove+0x52>
    1952:	68bb      	ldr	r3, [r7, #8]
    1954:	68fa      	ldr	r2, [r7, #12]
    1956:	605a      	str	r2, [r3, #4]
    1958:	68fb      	ldr	r3, [r7, #12]
    195a:	68ba      	ldr	r2, [r7, #8]
    195c:	601a      	str	r2, [r3, #0]
    195e:	687b      	ldr	r3, [r7, #4]
    1960:	689b      	ldr	r3, [r3, #8]
    1962:	1e5a      	subs	r2, r3, #1
    1964:	687b      	ldr	r3, [r7, #4]
    1966:	609a      	str	r2, [r3, #8]
    1968:	e002      	b.n	1970 <list_remove+0x54>
    196a:	bf00      	nop
    196c:	e000      	b.n	1970 <list_remove+0x54>
    196e:	bf00      	nop
    1970:	bf00      	nop
    1972:	3714      	adds	r7, #20
    1974:	46bd      	mov	sp, r7
    1976:	bc80      	pop	{r7}
    1978:	4770      	bx	lr
    197a:	bf00      	nop

0000197c <event_init>:
    197c:	b580      	push	{r7, lr}
    197e:	b082      	sub	sp, #8
    1980:	af00      	add	r7, sp, #0
    1982:	6078      	str	r0, [r7, #4]
    1984:	6039      	str	r1, [r7, #0]
    1986:	687b      	ldr	r3, [r7, #4]
    1988:	683a      	ldr	r2, [r7, #0]
    198a:	601a      	str	r2, [r3, #0]
    198c:	687b      	ldr	r3, [r7, #4]
    198e:	3304      	adds	r3, #4
    1990:	4618      	mov	r0, r3
    1992:	f7ff fe93 	bl	16bc <list_init>
    1996:	bf00      	nop
    1998:	3708      	adds	r7, #8
    199a:	46bd      	mov	sp, r7
    199c:	bd80      	pop	{r7, pc}

0000199e <event_wait>:
    199e:	b580      	push	{r7, lr}
    19a0:	b086      	sub	sp, #24
    19a2:	af00      	add	r7, sp, #0
    19a4:	60f8      	str	r0, [r7, #12]
    19a6:	60b9      	str	r1, [r7, #8]
    19a8:	607a      	str	r2, [r7, #4]
    19aa:	603b      	str	r3, [r7, #0]
    19ac:	f7ff fb8c 	bl	10c8 <task_enter_critical>
    19b0:	6178      	str	r0, [r7, #20]
    19b2:	68bb      	ldr	r3, [r7, #8]
    19b4:	695a      	ldr	r2, [r3, #20]
    19b6:	683b      	ldr	r3, [r7, #0]
    19b8:	431a      	orrs	r2, r3
    19ba:	68bb      	ldr	r3, [r7, #8]
    19bc:	615a      	str	r2, [r3, #20]
    19be:	68bb      	ldr	r3, [r7, #8]
    19c0:	68fa      	ldr	r2, [r7, #12]
    19c2:	635a      	str	r2, [r3, #52]	; 0x34
    19c4:	68bb      	ldr	r3, [r7, #8]
    19c6:	2200      	movs	r2, #0
    19c8:	63da      	str	r2, [r3, #60]	; 0x3c
    19ca:	68b8      	ldr	r0, [r7, #8]
    19cc:	f7ff fc0c 	bl	11e8 <task_unready>
    19d0:	68fb      	ldr	r3, [r7, #12]
    19d2:	1d1a      	adds	r2, r3, #4
    19d4:	68bb      	ldr	r3, [r7, #8]
    19d6:	3318      	adds	r3, #24
    19d8:	4619      	mov	r1, r3
    19da:	4610      	mov	r0, r2
    19dc:	f7ff ff40 	bl	1860 <list_append_last>
    19e0:	6a3b      	ldr	r3, [r7, #32]
    19e2:	2b00      	cmp	r3, #0
    19e4:	d003      	beq.n	19ee <event_wait+0x50>
    19e6:	6a39      	ldr	r1, [r7, #32]
    19e8:	68b8      	ldr	r0, [r7, #8]
    19ea:	f7ff fc2b 	bl	1244 <task_delay_wait>
    19ee:	6978      	ldr	r0, [r7, #20]
    19f0:	f7ff fb77 	bl	10e2 <task_exit_critical>
    19f4:	bf00      	nop
    19f6:	3718      	adds	r7, #24
    19f8:	46bd      	mov	sp, r7
    19fa:	bd80      	pop	{r7, pc}

000019fc <event_wakeup>:
    19fc:	b580      	push	{r7, lr}
    19fe:	b088      	sub	sp, #32
    1a00:	af00      	add	r7, sp, #0
    1a02:	60f8      	str	r0, [r7, #12]
    1a04:	60b9      	str	r1, [r7, #8]
    1a06:	607a      	str	r2, [r7, #4]
    1a08:	2300      	movs	r3, #0
    1a0a:	61bb      	str	r3, [r7, #24]
    1a0c:	2300      	movs	r3, #0
    1a0e:	61fb      	str	r3, [r7, #28]
    1a10:	f7ff fb5a 	bl	10c8 <task_enter_critical>
    1a14:	6178      	str	r0, [r7, #20]
    1a16:	68fb      	ldr	r3, [r7, #12]
    1a18:	3304      	adds	r3, #4
    1a1a:	4618      	mov	r0, r3
    1a1c:	f7ff ff49 	bl	18b2 <list_remove_first>
    1a20:	61b8      	str	r0, [r7, #24]
    1a22:	69bb      	ldr	r3, [r7, #24]
    1a24:	2b00      	cmp	r3, #0
    1a26:	d018      	beq.n	1a5a <event_wakeup+0x5e>
    1a28:	69bb      	ldr	r3, [r7, #24]
    1a2a:	3b18      	subs	r3, #24
    1a2c:	61fb      	str	r3, [r7, #28]
    1a2e:	69fb      	ldr	r3, [r7, #28]
    1a30:	2200      	movs	r2, #0
    1a32:	635a      	str	r2, [r3, #52]	; 0x34
    1a34:	69fb      	ldr	r3, [r7, #28]
    1a36:	68ba      	ldr	r2, [r7, #8]
    1a38:	639a      	str	r2, [r3, #56]	; 0x38
    1a3a:	69fb      	ldr	r3, [r7, #28]
    1a3c:	695b      	ldr	r3, [r3, #20]
    1a3e:	f423 027f 	bic.w	r2, r3, #16711680	; 0xff0000
    1a42:	69fb      	ldr	r3, [r7, #28]
    1a44:	615a      	str	r2, [r3, #20]
    1a46:	69fb      	ldr	r3, [r7, #28]
    1a48:	685b      	ldr	r3, [r3, #4]
    1a4a:	2b00      	cmp	r3, #0
    1a4c:	d002      	beq.n	1a54 <event_wakeup+0x58>
    1a4e:	69f8      	ldr	r0, [r7, #28]
    1a50:	f7ff fc12 	bl	1278 <task_delay_wakeup>
    1a54:	69f8      	ldr	r0, [r7, #28]
    1a56:	f7ff fba7 	bl	11a8 <task_ready>
    1a5a:	6978      	ldr	r0, [r7, #20]
    1a5c:	f7ff fb41 	bl	10e2 <task_exit_critical>
    1a60:	69fb      	ldr	r3, [r7, #28]
    1a62:	4618      	mov	r0, r3
    1a64:	3720      	adds	r7, #32
    1a66:	46bd      	mov	sp, r7
    1a68:	bd80      	pop	{r7, pc}

00001a6a <event_wakeup_task>:
    1a6a:	b580      	push	{r7, lr}
    1a6c:	b086      	sub	sp, #24
    1a6e:	af00      	add	r7, sp, #0
    1a70:	60f8      	str	r0, [r7, #12]
    1a72:	60b9      	str	r1, [r7, #8]
    1a74:	607a      	str	r2, [r7, #4]
    1a76:	603b      	str	r3, [r7, #0]
    1a78:	f7ff fb26 	bl	10c8 <task_enter_critical>
    1a7c:	6178      	str	r0, [r7, #20]
    1a7e:	68fb      	ldr	r3, [r7, #12]
    1a80:	1d1a      	adds	r2, r3, #4
    1a82:	68bb      	ldr	r3, [r7, #8]
    1a84:	3318      	adds	r3, #24
    1a86:	4619      	mov	r1, r3
    1a88:	4610      	mov	r0, r2
    1a8a:	f7ff ff47 	bl	191c <list_remove>
    1a8e:	68bb      	ldr	r3, [r7, #8]
    1a90:	2200      	movs	r2, #0
    1a92:	635a      	str	r2, [r3, #52]	; 0x34
    1a94:	68bb      	ldr	r3, [r7, #8]
    1a96:	687a      	ldr	r2, [r7, #4]
    1a98:	639a      	str	r2, [r3, #56]	; 0x38
    1a9a:	68bb      	ldr	r3, [r7, #8]
    1a9c:	695b      	ldr	r3, [r3, #20]
    1a9e:	f423 027f 	bic.w	r2, r3, #16711680	; 0xff0000
    1aa2:	68bb      	ldr	r3, [r7, #8]
    1aa4:	615a      	str	r2, [r3, #20]
    1aa6:	68bb      	ldr	r3, [r7, #8]
    1aa8:	685b      	ldr	r3, [r3, #4]
    1aaa:	2b00      	cmp	r3, #0
    1aac:	d002      	beq.n	1ab4 <event_wakeup_task+0x4a>
    1aae:	68b8      	ldr	r0, [r7, #8]
    1ab0:	f7ff fbe2 	bl	1278 <task_delay_wakeup>
    1ab4:	68b8      	ldr	r0, [r7, #8]
    1ab6:	f7ff fb77 	bl	11a8 <task_ready>
    1aba:	6978      	ldr	r0, [r7, #20]
    1abc:	f7ff fb11 	bl	10e2 <task_exit_critical>
    1ac0:	68bb      	ldr	r3, [r7, #8]
    1ac2:	4618      	mov	r0, r3
    1ac4:	3718      	adds	r7, #24
    1ac6:	46bd      	mov	sp, r7
    1ac8:	bd80      	pop	{r7, pc}

00001aca <event_remove_task>:
    1aca:	b580      	push	{r7, lr}
    1acc:	b086      	sub	sp, #24
    1ace:	af00      	add	r7, sp, #0
    1ad0:	60f8      	str	r0, [r7, #12]
    1ad2:	60b9      	str	r1, [r7, #8]
    1ad4:	607a      	str	r2, [r7, #4]
    1ad6:	f7ff faf7 	bl	10c8 <task_enter_critical>
    1ada:	6178      	str	r0, [r7, #20]
    1adc:	68fb      	ldr	r3, [r7, #12]
    1ade:	6b5b      	ldr	r3, [r3, #52]	; 0x34
    1ae0:	1d1a      	adds	r2, r3, #4
    1ae2:	68fb      	ldr	r3, [r7, #12]
    1ae4:	3318      	adds	r3, #24
    1ae6:	4619      	mov	r1, r3
    1ae8:	4610      	mov	r0, r2
    1aea:	f7ff ff17 	bl	191c <list_remove>
    1aee:	68fb      	ldr	r3, [r7, #12]
    1af0:	2200      	movs	r2, #0
    1af2:	635a      	str	r2, [r3, #52]	; 0x34
    1af4:	68fb      	ldr	r3, [r7, #12]
    1af6:	68ba      	ldr	r2, [r7, #8]
    1af8:	639a      	str	r2, [r3, #56]	; 0x38
    1afa:	68fb      	ldr	r3, [r7, #12]
    1afc:	687a      	ldr	r2, [r7, #4]
    1afe:	63da      	str	r2, [r3, #60]	; 0x3c
    1b00:	68fb      	ldr	r3, [r7, #12]
    1b02:	695b      	ldr	r3, [r3, #20]
    1b04:	f423 027f 	bic.w	r2, r3, #16711680	; 0xff0000
    1b08:	68fb      	ldr	r3, [r7, #12]
    1b0a:	615a      	str	r2, [r3, #20]
    1b0c:	6978      	ldr	r0, [r7, #20]
    1b0e:	f7ff fae8 	bl	10e2 <task_exit_critical>
    1b12:	bf00      	nop
    1b14:	3718      	adds	r7, #24
    1b16:	46bd      	mov	sp, r7
    1b18:	bd80      	pop	{r7, pc}

00001b1a <event_remove_all>:
    1b1a:	b580      	push	{r7, lr}
    1b1c:	b088      	sub	sp, #32
    1b1e:	af00      	add	r7, sp, #0
    1b20:	60f8      	str	r0, [r7, #12]
    1b22:	60b9      	str	r1, [r7, #8]
    1b24:	607a      	str	r2, [r7, #4]
    1b26:	2300      	movs	r3, #0
    1b28:	61fb      	str	r3, [r7, #28]
    1b2a:	2300      	movs	r3, #0
    1b2c:	61bb      	str	r3, [r7, #24]
    1b2e:	f7ff facb 	bl	10c8 <task_enter_critical>
    1b32:	6178      	str	r0, [r7, #20]
    1b34:	491d      	ldr	r1, [pc, #116]	; (1bac <event_remove_all+0x92>)
    1b36:	481e      	ldr	r0, [pc, #120]	; (1bb0 <event_remove_all+0x96>)
    1b38:	f7fe fe34 	bl	7a4 <printk>
    1b3c:	68fb      	ldr	r3, [r7, #12]
    1b3e:	3304      	adds	r3, #4
    1b40:	4618      	mov	r0, r3
    1b42:	f7ff fdcd 	bl	16e0 <list_count>
    1b46:	61b8      	str	r0, [r7, #24]
    1b48:	e01e      	b.n	1b88 <event_remove_all+0x6e>
    1b4a:	481a      	ldr	r0, [pc, #104]	; (1bb4 <event_remove_all+0x9a>)
    1b4c:	f7fe fe2a 	bl	7a4 <printk>
    1b50:	69fb      	ldr	r3, [r7, #28]
    1b52:	3b18      	subs	r3, #24
    1b54:	613b      	str	r3, [r7, #16]
    1b56:	693b      	ldr	r3, [r7, #16]
    1b58:	2200      	movs	r2, #0
    1b5a:	635a      	str	r2, [r3, #52]	; 0x34
    1b5c:	693b      	ldr	r3, [r7, #16]
    1b5e:	68ba      	ldr	r2, [r7, #8]
    1b60:	639a      	str	r2, [r3, #56]	; 0x38
    1b62:	693b      	ldr	r3, [r7, #16]
    1b64:	687a      	ldr	r2, [r7, #4]
    1b66:	63da      	str	r2, [r3, #60]	; 0x3c
    1b68:	693b      	ldr	r3, [r7, #16]
    1b6a:	695b      	ldr	r3, [r3, #20]
    1b6c:	f423 027f 	bic.w	r2, r3, #16711680	; 0xff0000
    1b70:	693b      	ldr	r3, [r7, #16]
    1b72:	615a      	str	r2, [r3, #20]
    1b74:	693b      	ldr	r3, [r7, #16]
    1b76:	685b      	ldr	r3, [r3, #4]
    1b78:	2b00      	cmp	r3, #0
    1b7a:	d002      	beq.n	1b82 <event_remove_all+0x68>
    1b7c:	6938      	ldr	r0, [r7, #16]
    1b7e:	f7ff fb7b 	bl	1278 <task_delay_wakeup>
    1b82:	6938      	ldr	r0, [r7, #16]
    1b84:	f7ff fb10 	bl	11a8 <task_ready>
    1b88:	68fb      	ldr	r3, [r7, #12]
    1b8a:	3304      	adds	r3, #4
    1b8c:	4618      	mov	r0, r3
    1b8e:	f7ff fe90 	bl	18b2 <list_remove_first>
    1b92:	61f8      	str	r0, [r7, #28]
    1b94:	69fb      	ldr	r3, [r7, #28]
    1b96:	2b00      	cmp	r3, #0
    1b98:	d1d7      	bne.n	1b4a <event_remove_all+0x30>
    1b9a:	6978      	ldr	r0, [r7, #20]
    1b9c:	f7ff faa1 	bl	10e2 <task_exit_critical>
    1ba0:	69bb      	ldr	r3, [r7, #24]
    1ba2:	4618      	mov	r0, r3
    1ba4:	3720      	adds	r7, #32
    1ba6:	46bd      	mov	sp, r7
    1ba8:	bd80      	pop	{r7, pc}
    1baa:	bf00      	nop
    1bac:	00002ea4 	andeq	r2, r0, r4, lsr #29
    1bb0:	00002e90 	muleq	r0, r0, lr
    1bb4:	00002e98 	muleq	r0, r8, lr

00001bb8 <event_wait_count>:
    1bb8:	b580      	push	{r7, lr}
    1bba:	b084      	sub	sp, #16
    1bbc:	af00      	add	r7, sp, #0
    1bbe:	6078      	str	r0, [r7, #4]
    1bc0:	2300      	movs	r3, #0
    1bc2:	60fb      	str	r3, [r7, #12]
    1bc4:	f7ff fa80 	bl	10c8 <task_enter_critical>
    1bc8:	60b8      	str	r0, [r7, #8]
    1bca:	687b      	ldr	r3, [r7, #4]
    1bcc:	3304      	adds	r3, #4
    1bce:	4618      	mov	r0, r3
    1bd0:	f7ff fd86 	bl	16e0 <list_count>
    1bd4:	60f8      	str	r0, [r7, #12]
    1bd6:	68b8      	ldr	r0, [r7, #8]
    1bd8:	f7ff fa83 	bl	10e2 <task_exit_critical>
    1bdc:	68fb      	ldr	r3, [r7, #12]
    1bde:	4618      	mov	r0, r3
    1be0:	3710      	adds	r7, #16
    1be2:	46bd      	mov	sp, r7
    1be4:	bd80      	pop	{r7, pc}
    1be6:	bf00      	nop

00001be8 <sem_init>:
    1be8:	b580      	push	{r7, lr}
    1bea:	b084      	sub	sp, #16
    1bec:	af00      	add	r7, sp, #0
    1bee:	60f8      	str	r0, [r7, #12]
    1bf0:	60b9      	str	r1, [r7, #8]
    1bf2:	607a      	str	r2, [r7, #4]
    1bf4:	68fb      	ldr	r3, [r7, #12]
    1bf6:	f44f 3180 	mov.w	r1, #65536	; 0x10000
    1bfa:	4618      	mov	r0, r3
    1bfc:	f7ff febe 	bl	197c <event_init>
    1c00:	687b      	ldr	r3, [r7, #4]
    1c02:	2b00      	cmp	r3, #0
    1c04:	d103      	bne.n	1c0e <sem_init+0x26>
    1c06:	68fb      	ldr	r3, [r7, #12]
    1c08:	68ba      	ldr	r2, [r7, #8]
    1c0a:	611a      	str	r2, [r3, #16]
    1c0c:	e006      	b.n	1c1c <sem_init+0x34>
    1c0e:	68ba      	ldr	r2, [r7, #8]
    1c10:	687b      	ldr	r3, [r7, #4]
    1c12:	429a      	cmp	r2, r3
    1c14:	bf28      	it	cs
    1c16:	461a      	movcs	r2, r3
    1c18:	68fb      	ldr	r3, [r7, #12]
    1c1a:	611a      	str	r2, [r3, #16]
    1c1c:	bf00      	nop
    1c1e:	3710      	adds	r7, #16
    1c20:	46bd      	mov	sp, r7
    1c22:	bd80      	pop	{r7, pc}

00001c24 <sem_acquire>:
    1c24:	b580      	push	{r7, lr}
    1c26:	b086      	sub	sp, #24
    1c28:	af02      	add	r7, sp, #8
    1c2a:	6078      	str	r0, [r7, #4]
    1c2c:	6039      	str	r1, [r7, #0]
    1c2e:	f7ff fa4b 	bl	10c8 <task_enter_critical>
    1c32:	60f8      	str	r0, [r7, #12]
    1c34:	687b      	ldr	r3, [r7, #4]
    1c36:	691b      	ldr	r3, [r3, #16]
    1c38:	2b00      	cmp	r3, #0
    1c3a:	d009      	beq.n	1c50 <sem_acquire+0x2c>
    1c3c:	687b      	ldr	r3, [r7, #4]
    1c3e:	691b      	ldr	r3, [r3, #16]
    1c40:	1e5a      	subs	r2, r3, #1
    1c42:	687b      	ldr	r3, [r7, #4]
    1c44:	611a      	str	r2, [r3, #16]
    1c46:	68f8      	ldr	r0, [r7, #12]
    1c48:	f7ff fa4b 	bl	10e2 <task_exit_critical>
    1c4c:	2300      	movs	r3, #0
    1c4e:	e011      	b.n	1c74 <sem_acquire+0x50>
    1c50:	6878      	ldr	r0, [r7, #4]
    1c52:	4b0a      	ldr	r3, [pc, #40]	; (1c7c <sem_acquire+0x58>)
    1c54:	6819      	ldr	r1, [r3, #0]
    1c56:	683b      	ldr	r3, [r7, #0]
    1c58:	9300      	str	r3, [sp, #0]
    1c5a:	f44f 3380 	mov.w	r3, #65536	; 0x10000
    1c5e:	2200      	movs	r2, #0
    1c60:	f7ff fe9d 	bl	199e <event_wait>
    1c64:	68f8      	ldr	r0, [r7, #12]
    1c66:	f7ff fa3c 	bl	10e2 <task_exit_critical>
    1c6a:	f7ff f8f7 	bl	e5c <task_sched>
    1c6e:	4b03      	ldr	r3, [pc, #12]	; (1c7c <sem_acquire+0x58>)
    1c70:	681b      	ldr	r3, [r3, #0]
    1c72:	6bdb      	ldr	r3, [r3, #60]	; 0x3c
    1c74:	4618      	mov	r0, r3
    1c76:	3710      	adds	r7, #16
    1c78:	46bd      	mov	sp, r7
    1c7a:	bd80      	pop	{r7, pc}
    1c7c:	20000000 	andcs	r0, r0, r0

00001c80 <sem_acquire_no_wait>:
    1c80:	b580      	push	{r7, lr}
    1c82:	b084      	sub	sp, #16
    1c84:	af00      	add	r7, sp, #0
    1c86:	6078      	str	r0, [r7, #4]
    1c88:	f7ff fa1e 	bl	10c8 <task_enter_critical>
    1c8c:	60f8      	str	r0, [r7, #12]
    1c8e:	687b      	ldr	r3, [r7, #4]
    1c90:	691b      	ldr	r3, [r3, #16]
    1c92:	2b00      	cmp	r3, #0
    1c94:	d009      	beq.n	1caa <sem_acquire_no_wait+0x2a>
    1c96:	687b      	ldr	r3, [r7, #4]
    1c98:	691b      	ldr	r3, [r3, #16]
    1c9a:	1e5a      	subs	r2, r3, #1
    1c9c:	687b      	ldr	r3, [r7, #4]
    1c9e:	611a      	str	r2, [r3, #16]
    1ca0:	68f8      	ldr	r0, [r7, #12]
    1ca2:	f7ff fa1e 	bl	10e2 <task_exit_critical>
    1ca6:	2300      	movs	r3, #0
    1ca8:	e005      	b.n	1cb6 <sem_acquire_no_wait+0x36>
    1caa:	68f8      	ldr	r0, [r7, #12]
    1cac:	f7ff fa19 	bl	10e2 <task_exit_critical>
    1cb0:	4b03      	ldr	r3, [pc, #12]	; (1cc0 <sem_acquire_no_wait+0x40>)
    1cb2:	681b      	ldr	r3, [r3, #0]
    1cb4:	6bdb      	ldr	r3, [r3, #60]	; 0x3c
    1cb6:	4618      	mov	r0, r3
    1cb8:	3710      	adds	r7, #16
    1cba:	46bd      	mov	sp, r7
    1cbc:	bd80      	pop	{r7, pc}
    1cbe:	bf00      	nop
    1cc0:	20000000 	andcs	r0, r0, r0

00001cc4 <sem_release>:
    1cc4:	b580      	push	{r7, lr}
    1cc6:	b084      	sub	sp, #16
    1cc8:	af00      	add	r7, sp, #0
    1cca:	6078      	str	r0, [r7, #4]
    1ccc:	f7ff f9fc 	bl	10c8 <task_enter_critical>
    1cd0:	60f8      	str	r0, [r7, #12]
    1cd2:	687b      	ldr	r3, [r7, #4]
    1cd4:	4618      	mov	r0, r3
    1cd6:	f7ff ff6f 	bl	1bb8 <event_wait_count>
    1cda:	4603      	mov	r3, r0
    1cdc:	2b00      	cmp	r3, #0
    1cde:	d010      	beq.n	1d02 <sem_release+0x3e>
    1ce0:	687b      	ldr	r3, [r7, #4]
    1ce2:	2200      	movs	r2, #0
    1ce4:	2100      	movs	r1, #0
    1ce6:	4618      	mov	r0, r3
    1ce8:	f7ff fe88 	bl	19fc <event_wakeup>
    1cec:	60b8      	str	r0, [r7, #8]
    1cee:	68bb      	ldr	r3, [r7, #8]
    1cf0:	689a      	ldr	r2, [r3, #8]
    1cf2:	4b11      	ldr	r3, [pc, #68]	; (1d38 <sem_release+0x74>)
    1cf4:	681b      	ldr	r3, [r3, #0]
    1cf6:	689b      	ldr	r3, [r3, #8]
    1cf8:	429a      	cmp	r2, r3
    1cfa:	d215      	bcs.n	1d28 <sem_release+0x64>
    1cfc:	f7ff f8ae 	bl	e5c <task_sched>
    1d00:	e012      	b.n	1d28 <sem_release+0x64>
    1d02:	687b      	ldr	r3, [r7, #4]
    1d04:	691b      	ldr	r3, [r3, #16]
    1d06:	1c5a      	adds	r2, r3, #1
    1d08:	687b      	ldr	r3, [r7, #4]
    1d0a:	611a      	str	r2, [r3, #16]
    1d0c:	687b      	ldr	r3, [r7, #4]
    1d0e:	695b      	ldr	r3, [r3, #20]
    1d10:	2b00      	cmp	r3, #0
    1d12:	d009      	beq.n	1d28 <sem_release+0x64>
    1d14:	687b      	ldr	r3, [r7, #4]
    1d16:	691a      	ldr	r2, [r3, #16]
    1d18:	687b      	ldr	r3, [r7, #4]
    1d1a:	695b      	ldr	r3, [r3, #20]
    1d1c:	429a      	cmp	r2, r3
    1d1e:	d903      	bls.n	1d28 <sem_release+0x64>
    1d20:	687b      	ldr	r3, [r7, #4]
    1d22:	695a      	ldr	r2, [r3, #20]
    1d24:	687b      	ldr	r3, [r7, #4]
    1d26:	611a      	str	r2, [r3, #16]
    1d28:	68f8      	ldr	r0, [r7, #12]
    1d2a:	f7ff f9da 	bl	10e2 <task_exit_critical>
    1d2e:	bf00      	nop
    1d30:	3710      	adds	r7, #16
    1d32:	46bd      	mov	sp, r7
    1d34:	bd80      	pop	{r7, pc}
    1d36:	bf00      	nop
    1d38:	20000000 	andcs	r0, r0, r0

00001d3c <sem_get_info>:
    1d3c:	b580      	push	{r7, lr}
    1d3e:	b084      	sub	sp, #16
    1d40:	af00      	add	r7, sp, #0
    1d42:	6078      	str	r0, [r7, #4]
    1d44:	6039      	str	r1, [r7, #0]
    1d46:	f7ff f9bf 	bl	10c8 <task_enter_critical>
    1d4a:	60f8      	str	r0, [r7, #12]
    1d4c:	687b      	ldr	r3, [r7, #4]
    1d4e:	691a      	ldr	r2, [r3, #16]
    1d50:	683b      	ldr	r3, [r7, #0]
    1d52:	601a      	str	r2, [r3, #0]
    1d54:	687b      	ldr	r3, [r7, #4]
    1d56:	695a      	ldr	r2, [r3, #20]
    1d58:	683b      	ldr	r3, [r7, #0]
    1d5a:	605a      	str	r2, [r3, #4]
    1d5c:	687b      	ldr	r3, [r7, #4]
    1d5e:	4618      	mov	r0, r3
    1d60:	f7ff ff2a 	bl	1bb8 <event_wait_count>
    1d64:	4602      	mov	r2, r0
    1d66:	683b      	ldr	r3, [r7, #0]
    1d68:	609a      	str	r2, [r3, #8]
    1d6a:	68f8      	ldr	r0, [r7, #12]
    1d6c:	f7ff f9b9 	bl	10e2 <task_exit_critical>
    1d70:	bf00      	nop
    1d72:	3710      	adds	r7, #16
    1d74:	46bd      	mov	sp, r7
    1d76:	bd80      	pop	{r7, pc}

00001d78 <sem_destory>:
    1d78:	b580      	push	{r7, lr}
    1d7a:	b084      	sub	sp, #16
    1d7c:	af00      	add	r7, sp, #0
    1d7e:	6078      	str	r0, [r7, #4]
    1d80:	f7ff f9a2 	bl	10c8 <task_enter_critical>
    1d84:	60f8      	str	r0, [r7, #12]
    1d86:	687b      	ldr	r3, [r7, #4]
    1d88:	2202      	movs	r2, #2
    1d8a:	2100      	movs	r1, #0
    1d8c:	4618      	mov	r0, r3
    1d8e:	f7ff fec4 	bl	1b1a <event_remove_all>
    1d92:	60b8      	str	r0, [r7, #8]
    1d94:	687b      	ldr	r3, [r7, #4]
    1d96:	2200      	movs	r2, #0
    1d98:	611a      	str	r2, [r3, #16]
    1d9a:	68f8      	ldr	r0, [r7, #12]
    1d9c:	f7ff f9a1 	bl	10e2 <task_exit_critical>
    1da0:	68bb      	ldr	r3, [r7, #8]
    1da2:	2b00      	cmp	r3, #0
    1da4:	d001      	beq.n	1daa <sem_destory+0x32>
    1da6:	f7ff f859 	bl	e5c <task_sched>
    1daa:	68bb      	ldr	r3, [r7, #8]
    1dac:	4618      	mov	r0, r3
    1dae:	3710      	adds	r7, #16
    1db0:	46bd      	mov	sp, r7
    1db2:	bd80      	pop	{r7, pc}

00001db4 <mbox_init>:
    1db4:	b580      	push	{r7, lr}
    1db6:	b084      	sub	sp, #16
    1db8:	af00      	add	r7, sp, #0
    1dba:	60f8      	str	r0, [r7, #12]
    1dbc:	60b9      	str	r1, [r7, #8]
    1dbe:	607a      	str	r2, [r7, #4]
    1dc0:	68fb      	ldr	r3, [r7, #12]
    1dc2:	f44f 3100 	mov.w	r1, #131072	; 0x20000
    1dc6:	4618      	mov	r0, r3
    1dc8:	f7ff fdd8 	bl	197c <event_init>
    1dcc:	68fb      	ldr	r3, [r7, #12]
    1dce:	68ba      	ldr	r2, [r7, #8]
    1dd0:	621a      	str	r2, [r3, #32]
    1dd2:	68fb      	ldr	r3, [r7, #12]
    1dd4:	687a      	ldr	r2, [r7, #4]
    1dd6:	61da      	str	r2, [r3, #28]
    1dd8:	68fb      	ldr	r3, [r7, #12]
    1dda:	2200      	movs	r2, #0
    1ddc:	615a      	str	r2, [r3, #20]
    1dde:	68fb      	ldr	r3, [r7, #12]
    1de0:	2200      	movs	r2, #0
    1de2:	619a      	str	r2, [r3, #24]
    1de4:	68fb      	ldr	r3, [r7, #12]
    1de6:	2200      	movs	r2, #0
    1de8:	611a      	str	r2, [r3, #16]
    1dea:	bf00      	nop
    1dec:	3710      	adds	r7, #16
    1dee:	46bd      	mov	sp, r7
    1df0:	bd80      	pop	{r7, pc}

00001df2 <mbox_get>:
    1df2:	b580      	push	{r7, lr}
    1df4:	b088      	sub	sp, #32
    1df6:	af02      	add	r7, sp, #8
    1df8:	60f8      	str	r0, [r7, #12]
    1dfa:	60b9      	str	r1, [r7, #8]
    1dfc:	607a      	str	r2, [r7, #4]
    1dfe:	f7ff f963 	bl	10c8 <task_enter_critical>
    1e02:	6178      	str	r0, [r7, #20]
    1e04:	68fb      	ldr	r3, [r7, #12]
    1e06:	691b      	ldr	r3, [r3, #16]
    1e08:	2b00      	cmp	r3, #0
    1e0a:	d01e      	beq.n	1e4a <mbox_get+0x58>
    1e0c:	68fb      	ldr	r3, [r7, #12]
    1e0e:	691b      	ldr	r3, [r3, #16]
    1e10:	1e5a      	subs	r2, r3, #1
    1e12:	68fb      	ldr	r3, [r7, #12]
    1e14:	611a      	str	r2, [r3, #16]
    1e16:	68fb      	ldr	r3, [r7, #12]
    1e18:	6a1a      	ldr	r2, [r3, #32]
    1e1a:	68fb      	ldr	r3, [r7, #12]
    1e1c:	695b      	ldr	r3, [r3, #20]
    1e1e:	1c58      	adds	r0, r3, #1
    1e20:	68f9      	ldr	r1, [r7, #12]
    1e22:	6148      	str	r0, [r1, #20]
    1e24:	009b      	lsls	r3, r3, #2
    1e26:	4413      	add	r3, r2
    1e28:	681a      	ldr	r2, [r3, #0]
    1e2a:	68bb      	ldr	r3, [r7, #8]
    1e2c:	601a      	str	r2, [r3, #0]
    1e2e:	68fb      	ldr	r3, [r7, #12]
    1e30:	695a      	ldr	r2, [r3, #20]
    1e32:	68fb      	ldr	r3, [r7, #12]
    1e34:	69db      	ldr	r3, [r3, #28]
    1e36:	429a      	cmp	r2, r3
    1e38:	d302      	bcc.n	1e40 <mbox_get+0x4e>
    1e3a:	68fb      	ldr	r3, [r7, #12]
    1e3c:	2200      	movs	r2, #0
    1e3e:	615a      	str	r2, [r3, #20]
    1e40:	6978      	ldr	r0, [r7, #20]
    1e42:	f7ff f94e 	bl	10e2 <task_exit_critical>
    1e46:	2300      	movs	r3, #0
    1e48:	e016      	b.n	1e78 <mbox_get+0x86>
    1e4a:	68f8      	ldr	r0, [r7, #12]
    1e4c:	4b0c      	ldr	r3, [pc, #48]	; (1e80 <mbox_get+0x8e>)
    1e4e:	6819      	ldr	r1, [r3, #0]
    1e50:	687b      	ldr	r3, [r7, #4]
    1e52:	9300      	str	r3, [sp, #0]
    1e54:	f44f 3300 	mov.w	r3, #131072	; 0x20000
    1e58:	2200      	movs	r2, #0
    1e5a:	f7ff fda0 	bl	199e <event_wait>
    1e5e:	6978      	ldr	r0, [r7, #20]
    1e60:	f7ff f93f 	bl	10e2 <task_exit_critical>
    1e64:	f7fe fffa 	bl	e5c <task_sched>
    1e68:	4b05      	ldr	r3, [pc, #20]	; (1e80 <mbox_get+0x8e>)
    1e6a:	681b      	ldr	r3, [r3, #0]
    1e6c:	6b9a      	ldr	r2, [r3, #56]	; 0x38
    1e6e:	68bb      	ldr	r3, [r7, #8]
    1e70:	601a      	str	r2, [r3, #0]
    1e72:	4b03      	ldr	r3, [pc, #12]	; (1e80 <mbox_get+0x8e>)
    1e74:	681b      	ldr	r3, [r3, #0]
    1e76:	6bdb      	ldr	r3, [r3, #60]	; 0x3c
    1e78:	4618      	mov	r0, r3
    1e7a:	3718      	adds	r7, #24
    1e7c:	46bd      	mov	sp, r7
    1e7e:	bd80      	pop	{r7, pc}
    1e80:	20000000 	andcs	r0, r0, r0

00001e84 <mbox_get_no_wait>:
    1e84:	b580      	push	{r7, lr}
    1e86:	b084      	sub	sp, #16
    1e88:	af00      	add	r7, sp, #0
    1e8a:	6078      	str	r0, [r7, #4]
    1e8c:	6039      	str	r1, [r7, #0]
    1e8e:	f7ff f91b 	bl	10c8 <task_enter_critical>
    1e92:	60f8      	str	r0, [r7, #12]
    1e94:	687b      	ldr	r3, [r7, #4]
    1e96:	691b      	ldr	r3, [r3, #16]
    1e98:	2b00      	cmp	r3, #0
    1e9a:	d01e      	beq.n	1eda <mbox_get_no_wait+0x56>
    1e9c:	687b      	ldr	r3, [r7, #4]
    1e9e:	691b      	ldr	r3, [r3, #16]
    1ea0:	1e5a      	subs	r2, r3, #1
    1ea2:	687b      	ldr	r3, [r7, #4]
    1ea4:	611a      	str	r2, [r3, #16]
    1ea6:	687b      	ldr	r3, [r7, #4]
    1ea8:	6a1a      	ldr	r2, [r3, #32]
    1eaa:	687b      	ldr	r3, [r7, #4]
    1eac:	695b      	ldr	r3, [r3, #20]
    1eae:	1c58      	adds	r0, r3, #1
    1eb0:	6879      	ldr	r1, [r7, #4]
    1eb2:	6148      	str	r0, [r1, #20]
    1eb4:	009b      	lsls	r3, r3, #2
    1eb6:	4413      	add	r3, r2
    1eb8:	681a      	ldr	r2, [r3, #0]
    1eba:	683b      	ldr	r3, [r7, #0]
    1ebc:	601a      	str	r2, [r3, #0]
    1ebe:	687b      	ldr	r3, [r7, #4]
    1ec0:	695a      	ldr	r2, [r3, #20]
    1ec2:	687b      	ldr	r3, [r7, #4]
    1ec4:	69db      	ldr	r3, [r3, #28]
    1ec6:	429a      	cmp	r2, r3
    1ec8:	d302      	bcc.n	1ed0 <mbox_get_no_wait+0x4c>
    1eca:	687b      	ldr	r3, [r7, #4]
    1ecc:	2200      	movs	r2, #0
    1ece:	615a      	str	r2, [r3, #20]
    1ed0:	68f8      	ldr	r0, [r7, #12]
    1ed2:	f7ff f906 	bl	10e2 <task_exit_critical>
    1ed6:	2300      	movs	r3, #0
    1ed8:	e005      	b.n	1ee6 <mbox_get_no_wait+0x62>
    1eda:	68f8      	ldr	r0, [r7, #12]
    1edc:	f7ff f901 	bl	10e2 <task_exit_critical>
    1ee0:	4b03      	ldr	r3, [pc, #12]	; (1ef0 <mbox_get_no_wait+0x6c>)
    1ee2:	681b      	ldr	r3, [r3, #0]
    1ee4:	6bdb      	ldr	r3, [r3, #60]	; 0x3c
    1ee6:	4618      	mov	r0, r3
    1ee8:	3710      	adds	r7, #16
    1eea:	46bd      	mov	sp, r7
    1eec:	bd80      	pop	{r7, pc}
    1eee:	bf00      	nop
    1ef0:	20000000 	andcs	r0, r0, r0

00001ef4 <mbox_send>:
    1ef4:	b580      	push	{r7, lr}
    1ef6:	b086      	sub	sp, #24
    1ef8:	af00      	add	r7, sp, #0
    1efa:	60f8      	str	r0, [r7, #12]
    1efc:	60b9      	str	r1, [r7, #8]
    1efe:	607a      	str	r2, [r7, #4]
    1f00:	f7ff f8e2 	bl	10c8 <task_enter_critical>
    1f04:	6178      	str	r0, [r7, #20]
    1f06:	2300      	movs	r3, #0
    1f08:	613b      	str	r3, [r7, #16]
    1f0a:	68fb      	ldr	r3, [r7, #12]
    1f0c:	4618      	mov	r0, r3
    1f0e:	f7ff fe53 	bl	1bb8 <event_wait_count>
    1f12:	4603      	mov	r3, r0
    1f14:	2b00      	cmp	r3, #0
    1f16:	d010      	beq.n	1f3a <mbox_send+0x46>
    1f18:	68fb      	ldr	r3, [r7, #12]
    1f1a:	2200      	movs	r2, #0
    1f1c:	68b9      	ldr	r1, [r7, #8]
    1f1e:	4618      	mov	r0, r3
    1f20:	f7ff fd6c 	bl	19fc <event_wakeup>
    1f24:	6138      	str	r0, [r7, #16]
    1f26:	693b      	ldr	r3, [r7, #16]
    1f28:	689a      	ldr	r2, [r3, #8]
    1f2a:	4b28      	ldr	r3, [pc, #160]	; (1fcc <mbox_send+0xd8>)
    1f2c:	681b      	ldr	r3, [r3, #0]
    1f2e:	689b      	ldr	r3, [r3, #8]
    1f30:	429a      	cmp	r2, r3
    1f32:	d243      	bcs.n	1fbc <mbox_send+0xc8>
    1f34:	f7fe ff92 	bl	e5c <task_sched>
    1f38:	e040      	b.n	1fbc <mbox_send+0xc8>
    1f3a:	68fb      	ldr	r3, [r7, #12]
    1f3c:	691a      	ldr	r2, [r3, #16]
    1f3e:	68fb      	ldr	r3, [r7, #12]
    1f40:	69db      	ldr	r3, [r3, #28]
    1f42:	429a      	cmp	r2, r3
    1f44:	d304      	bcc.n	1f50 <mbox_send+0x5c>
    1f46:	6978      	ldr	r0, [r7, #20]
    1f48:	f7ff f8cb 	bl	10e2 <task_exit_critical>
    1f4c:	2303      	movs	r3, #3
    1f4e:	e039      	b.n	1fc4 <mbox_send+0xd0>
    1f50:	687a      	ldr	r2, [r7, #4]
    1f52:	4b1f      	ldr	r3, [pc, #124]	; (1fd0 <mbox_send+0xdc>)
    1f54:	4013      	ands	r3, r2
    1f56:	2b00      	cmp	r3, #0
    1f58:	d017      	beq.n	1f8a <mbox_send+0x96>
    1f5a:	68fb      	ldr	r3, [r7, #12]
    1f5c:	695b      	ldr	r3, [r3, #20]
    1f5e:	2b00      	cmp	r3, #0
    1f60:	d105      	bne.n	1f6e <mbox_send+0x7a>
    1f62:	68fb      	ldr	r3, [r7, #12]
    1f64:	69db      	ldr	r3, [r3, #28]
    1f66:	1e5a      	subs	r2, r3, #1
    1f68:	68fb      	ldr	r3, [r7, #12]
    1f6a:	615a      	str	r2, [r3, #20]
    1f6c:	e004      	b.n	1f78 <mbox_send+0x84>
    1f6e:	68fb      	ldr	r3, [r7, #12]
    1f70:	695b      	ldr	r3, [r3, #20]
    1f72:	1e5a      	subs	r2, r3, #1
    1f74:	68fb      	ldr	r3, [r7, #12]
    1f76:	615a      	str	r2, [r3, #20]
    1f78:	68fb      	ldr	r3, [r7, #12]
    1f7a:	6a1a      	ldr	r2, [r3, #32]
    1f7c:	68fb      	ldr	r3, [r7, #12]
    1f7e:	695b      	ldr	r3, [r3, #20]
    1f80:	009b      	lsls	r3, r3, #2
    1f82:	4413      	add	r3, r2
    1f84:	68ba      	ldr	r2, [r7, #8]
    1f86:	601a      	str	r2, [r3, #0]
    1f88:	e013      	b.n	1fb2 <mbox_send+0xbe>
    1f8a:	68fb      	ldr	r3, [r7, #12]
    1f8c:	6a1a      	ldr	r2, [r3, #32]
    1f8e:	68fb      	ldr	r3, [r7, #12]
    1f90:	699b      	ldr	r3, [r3, #24]
    1f92:	1c58      	adds	r0, r3, #1
    1f94:	68f9      	ldr	r1, [r7, #12]
    1f96:	6188      	str	r0, [r1, #24]
    1f98:	009b      	lsls	r3, r3, #2
    1f9a:	4413      	add	r3, r2
    1f9c:	68ba      	ldr	r2, [r7, #8]
    1f9e:	601a      	str	r2, [r3, #0]
    1fa0:	68fb      	ldr	r3, [r7, #12]
    1fa2:	699a      	ldr	r2, [r3, #24]
    1fa4:	68fb      	ldr	r3, [r7, #12]
    1fa6:	69db      	ldr	r3, [r3, #28]
    1fa8:	429a      	cmp	r2, r3
    1faa:	d302      	bcc.n	1fb2 <mbox_send+0xbe>
    1fac:	68fb      	ldr	r3, [r7, #12]
    1fae:	2200      	movs	r2, #0
    1fb0:	619a      	str	r2, [r3, #24]
    1fb2:	68fb      	ldr	r3, [r7, #12]
    1fb4:	691b      	ldr	r3, [r3, #16]
    1fb6:	1c5a      	adds	r2, r3, #1
    1fb8:	68fb      	ldr	r3, [r7, #12]
    1fba:	611a      	str	r2, [r3, #16]
    1fbc:	6978      	ldr	r0, [r7, #20]
    1fbe:	f7ff f890 	bl	10e2 <task_exit_critical>
    1fc2:	2300      	movs	r3, #0
    1fc4:	4618      	mov	r0, r3
    1fc6:	3718      	adds	r7, #24
    1fc8:	46bd      	mov	sp, r7
    1fca:	bd80      	pop	{r7, pc}
    1fcc:	20000000 	andcs	r0, r0, r0
    1fd0:	12345678 	eorsne	r5, r4, #120, 12	; 0x7800000

00001fd4 <mbox_flush>:
    1fd4:	b580      	push	{r7, lr}
    1fd6:	b084      	sub	sp, #16
    1fd8:	af00      	add	r7, sp, #0
    1fda:	6078      	str	r0, [r7, #4]
    1fdc:	f7ff f874 	bl	10c8 <task_enter_critical>
    1fe0:	60f8      	str	r0, [r7, #12]
    1fe2:	687b      	ldr	r3, [r7, #4]
    1fe4:	4618      	mov	r0, r3
    1fe6:	f7ff fde7 	bl	1bb8 <event_wait_count>
    1fea:	4603      	mov	r3, r0
    1fec:	2b00      	cmp	r3, #0
    1fee:	d108      	bne.n	2002 <mbox_flush+0x2e>
    1ff0:	687b      	ldr	r3, [r7, #4]
    1ff2:	2200      	movs	r2, #0
    1ff4:	615a      	str	r2, [r3, #20]
    1ff6:	687b      	ldr	r3, [r7, #4]
    1ff8:	2200      	movs	r2, #0
    1ffa:	619a      	str	r2, [r3, #24]
    1ffc:	687b      	ldr	r3, [r7, #4]
    1ffe:	2200      	movs	r2, #0
    2000:	611a      	str	r2, [r3, #16]
    2002:	68f8      	ldr	r0, [r7, #12]
    2004:	f7ff f86d 	bl	10e2 <task_exit_critical>
    2008:	bf00      	nop
    200a:	3710      	adds	r7, #16
    200c:	46bd      	mov	sp, r7
    200e:	bd80      	pop	{r7, pc}

00002010 <mbox_destory>:
    2010:	b580      	push	{r7, lr}
    2012:	b084      	sub	sp, #16
    2014:	af00      	add	r7, sp, #0
    2016:	6078      	str	r0, [r7, #4]
    2018:	f7ff f856 	bl	10c8 <task_enter_critical>
    201c:	60f8      	str	r0, [r7, #12]
    201e:	687b      	ldr	r3, [r7, #4]
    2020:	2202      	movs	r2, #2
    2022:	2100      	movs	r1, #0
    2024:	4618      	mov	r0, r3
    2026:	f7ff fd78 	bl	1b1a <event_remove_all>
    202a:	60b8      	str	r0, [r7, #8]
    202c:	68f8      	ldr	r0, [r7, #12]
    202e:	f7ff f858 	bl	10e2 <task_exit_critical>
    2032:	68bb      	ldr	r3, [r7, #8]
    2034:	2b00      	cmp	r3, #0
    2036:	d001      	beq.n	203c <mbox_destory+0x2c>
    2038:	f7fe ff10 	bl	e5c <task_sched>
    203c:	68bb      	ldr	r3, [r7, #8]
    203e:	4618      	mov	r0, r3
    2040:	3710      	adds	r7, #16
    2042:	46bd      	mov	sp, r7
    2044:	bd80      	pop	{r7, pc}

00002046 <mbox_get_info>:
    2046:	b580      	push	{r7, lr}
    2048:	b084      	sub	sp, #16
    204a:	af00      	add	r7, sp, #0
    204c:	6078      	str	r0, [r7, #4]
    204e:	6039      	str	r1, [r7, #0]
    2050:	f7ff f83a 	bl	10c8 <task_enter_critical>
    2054:	60f8      	str	r0, [r7, #12]
    2056:	687b      	ldr	r3, [r7, #4]
    2058:	691a      	ldr	r2, [r3, #16]
    205a:	683b      	ldr	r3, [r7, #0]
    205c:	601a      	str	r2, [r3, #0]
    205e:	687b      	ldr	r3, [r7, #4]
    2060:	69da      	ldr	r2, [r3, #28]
    2062:	683b      	ldr	r3, [r7, #0]
    2064:	605a      	str	r2, [r3, #4]
    2066:	687b      	ldr	r3, [r7, #4]
    2068:	4618      	mov	r0, r3
    206a:	f7ff fda5 	bl	1bb8 <event_wait_count>
    206e:	4602      	mov	r2, r0
    2070:	683b      	ldr	r3, [r7, #0]
    2072:	609a      	str	r2, [r3, #8]
    2074:	68f8      	ldr	r0, [r7, #12]
    2076:	f7ff f834 	bl	10e2 <task_exit_critical>
    207a:	bf00      	nop
    207c:	3710      	adds	r7, #16
    207e:	46bd      	mov	sp, r7
    2080:	bd80      	pop	{r7, pc}
    2082:	bf00      	nop

00002084 <mem_block_init>:
    2084:	b580      	push	{r7, lr}
    2086:	b086      	sub	sp, #24
    2088:	af00      	add	r7, sp, #0
    208a:	60f8      	str	r0, [r7, #12]
    208c:	60b9      	str	r1, [r7, #8]
    208e:	607a      	str	r2, [r7, #4]
    2090:	603b      	str	r3, [r7, #0]
    2092:	68bb      	ldr	r3, [r7, #8]
    2094:	617b      	str	r3, [r7, #20]
    2096:	687b      	ldr	r3, [r7, #4]
    2098:	683a      	ldr	r2, [r7, #0]
    209a:	fb02 f303 	mul.w	r3, r2, r3
    209e:	697a      	ldr	r2, [r7, #20]
    20a0:	4413      	add	r3, r2
    20a2:	613b      	str	r3, [r7, #16]
    20a4:	687b      	ldr	r3, [r7, #4]
    20a6:	2b07      	cmp	r3, #7
    20a8:	d926      	bls.n	20f8 <mem_block_init+0x74>
    20aa:	68fb      	ldr	r3, [r7, #12]
    20ac:	f44f 3140 	mov.w	r1, #196608	; 0x30000
    20b0:	4618      	mov	r0, r3
    20b2:	f7ff fc63 	bl	197c <event_init>
    20b6:	68fb      	ldr	r3, [r7, #12]
    20b8:	68ba      	ldr	r2, [r7, #8]
    20ba:	611a      	str	r2, [r3, #16]
    20bc:	68fb      	ldr	r3, [r7, #12]
    20be:	687a      	ldr	r2, [r7, #4]
    20c0:	615a      	str	r2, [r3, #20]
    20c2:	68fb      	ldr	r3, [r7, #12]
    20c4:	683a      	ldr	r2, [r7, #0]
    20c6:	619a      	str	r2, [r3, #24]
    20c8:	68fb      	ldr	r3, [r7, #12]
    20ca:	331c      	adds	r3, #28
    20cc:	4618      	mov	r0, r3
    20ce:	f7ff faf5 	bl	16bc <list_init>
    20d2:	e00c      	b.n	20ee <mem_block_init+0x6a>
    20d4:	6978      	ldr	r0, [r7, #20]
    20d6:	f7ff fadf 	bl	1698 <list_node_init>
    20da:	68fb      	ldr	r3, [r7, #12]
    20dc:	331c      	adds	r3, #28
    20de:	6979      	ldr	r1, [r7, #20]
    20e0:	4618      	mov	r0, r3
    20e2:	f7ff fbbd 	bl	1860 <list_append_last>
    20e6:	697a      	ldr	r2, [r7, #20]
    20e8:	687b      	ldr	r3, [r7, #4]
    20ea:	4413      	add	r3, r2
    20ec:	617b      	str	r3, [r7, #20]
    20ee:	697a      	ldr	r2, [r7, #20]
    20f0:	693b      	ldr	r3, [r7, #16]
    20f2:	429a      	cmp	r2, r3
    20f4:	d3ee      	bcc.n	20d4 <mem_block_init+0x50>
    20f6:	e000      	b.n	20fa <mem_block_init+0x76>
    20f8:	bf00      	nop
    20fa:	bf00      	nop
    20fc:	3718      	adds	r7, #24
    20fe:	46bd      	mov	sp, r7
    2100:	bd80      	pop	{r7, pc}

00002102 <mem_block_alloc>:
    2102:	b580      	push	{r7, lr}
    2104:	b088      	sub	sp, #32
    2106:	af02      	add	r7, sp, #8
    2108:	60f8      	str	r0, [r7, #12]
    210a:	60b9      	str	r1, [r7, #8]
    210c:	607a      	str	r2, [r7, #4]
    210e:	f7fe ffdb 	bl	10c8 <task_enter_critical>
    2112:	6178      	str	r0, [r7, #20]
    2114:	68fb      	ldr	r3, [r7, #12]
    2116:	331c      	adds	r3, #28
    2118:	4618      	mov	r0, r3
    211a:	f7ff fae1 	bl	16e0 <list_count>
    211e:	4603      	mov	r3, r0
    2120:	2b00      	cmp	r3, #0
    2122:	d00c      	beq.n	213e <mem_block_alloc+0x3c>
    2124:	68fb      	ldr	r3, [r7, #12]
    2126:	331c      	adds	r3, #28
    2128:	4618      	mov	r0, r3
    212a:	f7ff fbc2 	bl	18b2 <list_remove_first>
    212e:	4602      	mov	r2, r0
    2130:	68bb      	ldr	r3, [r7, #8]
    2132:	601a      	str	r2, [r3, #0]
    2134:	6978      	ldr	r0, [r7, #20]
    2136:	f7fe ffd4 	bl	10e2 <task_exit_critical>
    213a:	2300      	movs	r3, #0
    213c:	e016      	b.n	216c <mem_block_alloc+0x6a>
    213e:	68f8      	ldr	r0, [r7, #12]
    2140:	4b0c      	ldr	r3, [pc, #48]	; (2174 <mem_block_alloc+0x72>)
    2142:	6819      	ldr	r1, [r3, #0]
    2144:	687b      	ldr	r3, [r7, #4]
    2146:	9300      	str	r3, [sp, #0]
    2148:	f44f 3340 	mov.w	r3, #196608	; 0x30000
    214c:	2200      	movs	r2, #0
    214e:	f7ff fc26 	bl	199e <event_wait>
    2152:	6978      	ldr	r0, [r7, #20]
    2154:	f7fe ffc5 	bl	10e2 <task_exit_critical>
    2158:	f7fe fe80 	bl	e5c <task_sched>
    215c:	4b05      	ldr	r3, [pc, #20]	; (2174 <mem_block_alloc+0x72>)
    215e:	681b      	ldr	r3, [r3, #0]
    2160:	6b9a      	ldr	r2, [r3, #56]	; 0x38
    2162:	68bb      	ldr	r3, [r7, #8]
    2164:	601a      	str	r2, [r3, #0]
    2166:	4b03      	ldr	r3, [pc, #12]	; (2174 <mem_block_alloc+0x72>)
    2168:	681b      	ldr	r3, [r3, #0]
    216a:	6bdb      	ldr	r3, [r3, #60]	; 0x3c
    216c:	4618      	mov	r0, r3
    216e:	3718      	adds	r7, #24
    2170:	46bd      	mov	sp, r7
    2172:	bd80      	pop	{r7, pc}
    2174:	20000000 	andcs	r0, r0, r0

00002178 <mem_block_alloc_no_wait>:
    2178:	b580      	push	{r7, lr}
    217a:	b084      	sub	sp, #16
    217c:	af00      	add	r7, sp, #0
    217e:	6078      	str	r0, [r7, #4]
    2180:	6039      	str	r1, [r7, #0]
    2182:	f7fe ffa1 	bl	10c8 <task_enter_critical>
    2186:	60f8      	str	r0, [r7, #12]
    2188:	687b      	ldr	r3, [r7, #4]
    218a:	331c      	adds	r3, #28
    218c:	4618      	mov	r0, r3
    218e:	f7ff faa7 	bl	16e0 <list_count>
    2192:	4603      	mov	r3, r0
    2194:	2b00      	cmp	r3, #0
    2196:	d00c      	beq.n	21b2 <mem_block_alloc_no_wait+0x3a>
    2198:	687b      	ldr	r3, [r7, #4]
    219a:	331c      	adds	r3, #28
    219c:	4618      	mov	r0, r3
    219e:	f7ff fb88 	bl	18b2 <list_remove_first>
    21a2:	4602      	mov	r2, r0
    21a4:	683b      	ldr	r3, [r7, #0]
    21a6:	601a      	str	r2, [r3, #0]
    21a8:	68f8      	ldr	r0, [r7, #12]
    21aa:	f7fe ff9a 	bl	10e2 <task_exit_critical>
    21ae:	2300      	movs	r3, #0
    21b0:	e003      	b.n	21ba <mem_block_alloc_no_wait+0x42>
    21b2:	68f8      	ldr	r0, [r7, #12]
    21b4:	f7fe ff95 	bl	10e2 <task_exit_critical>
    21b8:	2303      	movs	r3, #3
    21ba:	4618      	mov	r0, r3
    21bc:	3710      	adds	r7, #16
    21be:	46bd      	mov	sp, r7
    21c0:	bd80      	pop	{r7, pc}

000021c2 <mem_block_free>:
    21c2:	b580      	push	{r7, lr}
    21c4:	b084      	sub	sp, #16
    21c6:	af00      	add	r7, sp, #0
    21c8:	6078      	str	r0, [r7, #4]
    21ca:	6039      	str	r1, [r7, #0]
    21cc:	f7fe ff7c 	bl	10c8 <task_enter_critical>
    21d0:	60f8      	str	r0, [r7, #12]
    21d2:	687b      	ldr	r3, [r7, #4]
    21d4:	4618      	mov	r0, r3
    21d6:	f7ff fcef 	bl	1bb8 <event_wait_count>
    21da:	4603      	mov	r3, r0
    21dc:	2b00      	cmp	r3, #0
    21de:	d010      	beq.n	2202 <mem_block_free+0x40>
    21e0:	687b      	ldr	r3, [r7, #4]
    21e2:	2200      	movs	r2, #0
    21e4:	6839      	ldr	r1, [r7, #0]
    21e6:	4618      	mov	r0, r3
    21e8:	f7ff fc08 	bl	19fc <event_wakeup>
    21ec:	60b8      	str	r0, [r7, #8]
    21ee:	68bb      	ldr	r3, [r7, #8]
    21f0:	689a      	ldr	r2, [r3, #8]
    21f2:	4b0a      	ldr	r3, [pc, #40]	; (221c <mem_block_free+0x5a>)
    21f4:	681b      	ldr	r3, [r3, #0]
    21f6:	689b      	ldr	r3, [r3, #8]
    21f8:	429a      	cmp	r2, r3
    21fa:	d908      	bls.n	220e <mem_block_free+0x4c>
    21fc:	f7fe fe2e 	bl	e5c <task_sched>
    2200:	e005      	b.n	220e <mem_block_free+0x4c>
    2202:	687b      	ldr	r3, [r7, #4]
    2204:	331c      	adds	r3, #28
    2206:	6839      	ldr	r1, [r7, #0]
    2208:	4618      	mov	r0, r3
    220a:	f7ff fb29 	bl	1860 <list_append_last>
    220e:	68f8      	ldr	r0, [r7, #12]
    2210:	f7fe ff67 	bl	10e2 <task_exit_critical>
    2214:	bf00      	nop
    2216:	3710      	adds	r7, #16
    2218:	46bd      	mov	sp, r7
    221a:	bd80      	pop	{r7, pc}
    221c:	20000000 	andcs	r0, r0, r0

00002220 <mem_block_get_info>:
    2220:	b580      	push	{r7, lr}
    2222:	b084      	sub	sp, #16
    2224:	af00      	add	r7, sp, #0
    2226:	6078      	str	r0, [r7, #4]
    2228:	6039      	str	r1, [r7, #0]
    222a:	f7fe ff4d 	bl	10c8 <task_enter_critical>
    222e:	60f8      	str	r0, [r7, #12]
    2230:	687b      	ldr	r3, [r7, #4]
    2232:	331c      	adds	r3, #28
    2234:	4618      	mov	r0, r3
    2236:	f7ff fa53 	bl	16e0 <list_count>
    223a:	4602      	mov	r2, r0
    223c:	683b      	ldr	r3, [r7, #0]
    223e:	601a      	str	r2, [r3, #0]
    2240:	687b      	ldr	r3, [r7, #4]
    2242:	699a      	ldr	r2, [r3, #24]
    2244:	683b      	ldr	r3, [r7, #0]
    2246:	605a      	str	r2, [r3, #4]
    2248:	687b      	ldr	r3, [r7, #4]
    224a:	695a      	ldr	r2, [r3, #20]
    224c:	683b      	ldr	r3, [r7, #0]
    224e:	609a      	str	r2, [r3, #8]
    2250:	687b      	ldr	r3, [r7, #4]
    2252:	4618      	mov	r0, r3
    2254:	f7ff fcb0 	bl	1bb8 <event_wait_count>
    2258:	4602      	mov	r2, r0
    225a:	683b      	ldr	r3, [r7, #0]
    225c:	60da      	str	r2, [r3, #12]
    225e:	68f8      	ldr	r0, [r7, #12]
    2260:	f7fe ff3f 	bl	10e2 <task_exit_critical>
    2264:	bf00      	nop
    2266:	3710      	adds	r7, #16
    2268:	46bd      	mov	sp, r7
    226a:	bd80      	pop	{r7, pc}

0000226c <mem_block_destory>:
    226c:	b580      	push	{r7, lr}
    226e:	b084      	sub	sp, #16
    2270:	af00      	add	r7, sp, #0
    2272:	6078      	str	r0, [r7, #4]
    2274:	f7fe ff28 	bl	10c8 <task_enter_critical>
    2278:	60f8      	str	r0, [r7, #12]
    227a:	687b      	ldr	r3, [r7, #4]
    227c:	2202      	movs	r2, #2
    227e:	2100      	movs	r1, #0
    2280:	4618      	mov	r0, r3
    2282:	f7ff fc4a 	bl	1b1a <event_remove_all>
    2286:	60b8      	str	r0, [r7, #8]
    2288:	68f8      	ldr	r0, [r7, #12]
    228a:	f7fe ff2a 	bl	10e2 <task_exit_critical>
    228e:	68bb      	ldr	r3, [r7, #8]
    2290:	2b00      	cmp	r3, #0
    2292:	d001      	beq.n	2298 <mem_block_destory+0x2c>
    2294:	f7fe fde2 	bl	e5c <task_sched>
    2298:	68bb      	ldr	r3, [r7, #8]
    229a:	4618      	mov	r0, r3
    229c:	3710      	adds	r7, #16
    229e:	46bd      	mov	sp, r7
    22a0:	bd80      	pop	{r7, pc}
    22a2:	bf00      	nop

000022a4 <timer_init>:
    22a4:	b580      	push	{r7, lr}
    22a6:	b084      	sub	sp, #16
    22a8:	af00      	add	r7, sp, #0
    22aa:	60f8      	str	r0, [r7, #12]
    22ac:	60b9      	str	r1, [r7, #8]
    22ae:	607a      	str	r2, [r7, #4]
    22b0:	603b      	str	r3, [r7, #0]
    22b2:	68fb      	ldr	r3, [r7, #12]
    22b4:	4618      	mov	r0, r3
    22b6:	f7ff f9ef 	bl	1698 <list_node_init>
    22ba:	68fb      	ldr	r3, [r7, #12]
    22bc:	68ba      	ldr	r2, [r7, #8]
    22be:	60da      	str	r2, [r3, #12]
    22c0:	68fb      	ldr	r3, [r7, #12]
    22c2:	687a      	ldr	r2, [r7, #4]
    22c4:	609a      	str	r2, [r3, #8]
    22c6:	68fb      	ldr	r3, [r7, #12]
    22c8:	683a      	ldr	r2, [r7, #0]
    22ca:	615a      	str	r2, [r3, #20]
    22cc:	68fb      	ldr	r3, [r7, #12]
    22ce:	69ba      	ldr	r2, [r7, #24]
    22d0:	619a      	str	r2, [r3, #24]
    22d2:	68fb      	ldr	r3, [r7, #12]
    22d4:	69fa      	ldr	r2, [r7, #28]
    22d6:	61da      	str	r2, [r3, #28]
    22d8:	68bb      	ldr	r3, [r7, #8]
    22da:	2b00      	cmp	r3, #0
    22dc:	d103      	bne.n	22e6 <timer_init+0x42>
    22de:	68fb      	ldr	r3, [r7, #12]
    22e0:	687a      	ldr	r2, [r7, #4]
    22e2:	611a      	str	r2, [r3, #16]
    22e4:	e003      	b.n	22ee <timer_init+0x4a>
    22e6:	68fb      	ldr	r3, [r7, #12]
    22e8:	68da      	ldr	r2, [r3, #12]
    22ea:	68fb      	ldr	r3, [r7, #12]
    22ec:	611a      	str	r2, [r3, #16]
    22ee:	68fb      	ldr	r3, [r7, #12]
    22f0:	2200      	movs	r2, #0
    22f2:	f883 2020 	strb.w	r2, [r3, #32]
    22f6:	bf00      	nop
    22f8:	3710      	adds	r7, #16
    22fa:	46bd      	mov	sp, r7
    22fc:	bd80      	pop	{r7, pc}

000022fe <timer_start>:
    22fe:	b580      	push	{r7, lr}
    2300:	b084      	sub	sp, #16
    2302:	af00      	add	r7, sp, #0
    2304:	6078      	str	r0, [r7, #4]
    2306:	687b      	ldr	r3, [r7, #4]
    2308:	f893 3020 	ldrb.w	r3, [r3, #32]
    230c:	2b00      	cmp	r3, #0
    230e:	d001      	beq.n	2314 <timer_start+0x16>
    2310:	2b03      	cmp	r3, #3
    2312:	d12d      	bne.n	2370 <timer_start+0x72>
    2314:	687b      	ldr	r3, [r7, #4]
    2316:	68db      	ldr	r3, [r3, #12]
    2318:	2b00      	cmp	r3, #0
    231a:	d002      	beq.n	2322 <timer_start+0x24>
    231c:	687b      	ldr	r3, [r7, #4]
    231e:	68db      	ldr	r3, [r3, #12]
    2320:	e001      	b.n	2326 <timer_start+0x28>
    2322:	687b      	ldr	r3, [r7, #4]
    2324:	689b      	ldr	r3, [r3, #8]
    2326:	687a      	ldr	r2, [r7, #4]
    2328:	6113      	str	r3, [r2, #16]
    232a:	687b      	ldr	r3, [r7, #4]
    232c:	2201      	movs	r2, #1
    232e:	f883 2020 	strb.w	r2, [r3, #32]
    2332:	687b      	ldr	r3, [r7, #4]
    2334:	69db      	ldr	r3, [r3, #28]
    2336:	f003 0301 	and.w	r3, r3, #1
    233a:	2b00      	cmp	r3, #0
    233c:	d00b      	beq.n	2356 <timer_start+0x58>
    233e:	f7fe fec3 	bl	10c8 <task_enter_critical>
    2342:	60f8      	str	r0, [r7, #12]
    2344:	687b      	ldr	r3, [r7, #4]
    2346:	4619      	mov	r1, r3
    2348:	480c      	ldr	r0, [pc, #48]	; (237c <timer_start+0x7e>)
    234a:	f7ff fa89 	bl	1860 <list_append_last>
    234e:	68f8      	ldr	r0, [r7, #12]
    2350:	f7fe fec7 	bl	10e2 <task_exit_critical>
    2354:	e00d      	b.n	2372 <timer_start+0x74>
    2356:	2100      	movs	r1, #0
    2358:	4809      	ldr	r0, [pc, #36]	; (2380 <timer_start+0x82>)
    235a:	f7ff fc63 	bl	1c24 <sem_acquire>
    235e:	687b      	ldr	r3, [r7, #4]
    2360:	4619      	mov	r1, r3
    2362:	4808      	ldr	r0, [pc, #32]	; (2384 <timer_start+0x86>)
    2364:	f7ff fa7c 	bl	1860 <list_append_last>
    2368:	4805      	ldr	r0, [pc, #20]	; (2380 <timer_start+0x82>)
    236a:	f7ff fcab 	bl	1cc4 <sem_release>
    236e:	e000      	b.n	2372 <timer_start+0x74>
    2370:	bf00      	nop
    2372:	bf00      	nop
    2374:	3710      	adds	r7, #16
    2376:	46bd      	mov	sp, r7
    2378:	bd80      	pop	{r7, pc}
    237a:	bf00      	nop
    237c:	200011e8 	andcs	r1, r0, r8, ror #3
    2380:	20001200 	andcs	r1, r0, r0, lsl #4
    2384:	200011f4 	strdcs	r1, [r0], -r4

00002388 <timer_stop>:
    2388:	b580      	push	{r7, lr}
    238a:	b084      	sub	sp, #16
    238c:	af00      	add	r7, sp, #0
    238e:	6078      	str	r0, [r7, #4]
    2390:	687b      	ldr	r3, [r7, #4]
    2392:	f893 3020 	ldrb.w	r3, [r3, #32]
    2396:	3b01      	subs	r3, #1
    2398:	2b01      	cmp	r3, #1
    239a:	d822      	bhi.n	23e2 <timer_stop+0x5a>
    239c:	687b      	ldr	r3, [r7, #4]
    239e:	69db      	ldr	r3, [r3, #28]
    23a0:	f003 0301 	and.w	r3, r3, #1
    23a4:	2b00      	cmp	r3, #0
    23a6:	d00b      	beq.n	23c0 <timer_stop+0x38>
    23a8:	f7fe fe8e 	bl	10c8 <task_enter_critical>
    23ac:	60f8      	str	r0, [r7, #12]
    23ae:	687b      	ldr	r3, [r7, #4]
    23b0:	4619      	mov	r1, r3
    23b2:	480e      	ldr	r0, [pc, #56]	; (23ec <timer_stop+0x64>)
    23b4:	f7ff fab2 	bl	191c <list_remove>
    23b8:	68f8      	ldr	r0, [r7, #12]
    23ba:	f7fe fe92 	bl	10e2 <task_exit_critical>
    23be:	e00b      	b.n	23d8 <timer_stop+0x50>
    23c0:	2100      	movs	r1, #0
    23c2:	480b      	ldr	r0, [pc, #44]	; (23f0 <timer_stop+0x68>)
    23c4:	f7ff fc2e 	bl	1c24 <sem_acquire>
    23c8:	687b      	ldr	r3, [r7, #4]
    23ca:	4619      	mov	r1, r3
    23cc:	4809      	ldr	r0, [pc, #36]	; (23f4 <timer_stop+0x6c>)
    23ce:	f7ff faa5 	bl	191c <list_remove>
    23d2:	4807      	ldr	r0, [pc, #28]	; (23f0 <timer_stop+0x68>)
    23d4:	f7ff fc76 	bl	1cc4 <sem_release>
    23d8:	687b      	ldr	r3, [r7, #4]
    23da:	2203      	movs	r2, #3
    23dc:	f883 2020 	strb.w	r2, [r3, #32]
    23e0:	e000      	b.n	23e4 <timer_stop+0x5c>
    23e2:	bf00      	nop
    23e4:	bf00      	nop
    23e6:	3710      	adds	r7, #16
    23e8:	46bd      	mov	sp, r7
    23ea:	bd80      	pop	{r7, pc}
    23ec:	200011e8 	andcs	r1, r0, r8, ror #3
    23f0:	20001200 	andcs	r1, r0, r0, lsl #4
    23f4:	200011f4 	strdcs	r1, [r0], -r4

000023f8 <timer_call_func_list>:
    23f8:	b580      	push	{r7, lr}
    23fa:	b084      	sub	sp, #16
    23fc:	af00      	add	r7, sp, #0
    23fe:	6078      	str	r0, [r7, #4]
    2400:	687b      	ldr	r3, [r7, #4]
    2402:	685b      	ldr	r3, [r3, #4]
    2404:	60fb      	str	r3, [r7, #12]
    2406:	e02b      	b.n	2460 <timer_call_func_list+0x68>
    2408:	68fb      	ldr	r3, [r7, #12]
    240a:	60bb      	str	r3, [r7, #8]
    240c:	68bb      	ldr	r3, [r7, #8]
    240e:	691b      	ldr	r3, [r3, #16]
    2410:	2b00      	cmp	r3, #0
    2412:	d008      	beq.n	2426 <timer_call_func_list+0x2e>
    2414:	68bb      	ldr	r3, [r7, #8]
    2416:	691b      	ldr	r3, [r3, #16]
    2418:	1e5a      	subs	r2, r3, #1
    241a:	68bb      	ldr	r3, [r7, #8]
    241c:	611a      	str	r2, [r3, #16]
    241e:	68bb      	ldr	r3, [r7, #8]
    2420:	691b      	ldr	r3, [r3, #16]
    2422:	2b00      	cmp	r3, #0
    2424:	d119      	bne.n	245a <timer_call_func_list+0x62>
    2426:	68bb      	ldr	r3, [r7, #8]
    2428:	2202      	movs	r2, #2
    242a:	f883 2020 	strb.w	r2, [r3, #32]
    242e:	68bb      	ldr	r3, [r7, #8]
    2430:	695b      	ldr	r3, [r3, #20]
    2432:	68ba      	ldr	r2, [r7, #8]
    2434:	6992      	ldr	r2, [r2, #24]
    2436:	4610      	mov	r0, r2
    2438:	4798      	blx	r3
    243a:	68bb      	ldr	r3, [r7, #8]
    243c:	2201      	movs	r2, #1
    243e:	f883 2020 	strb.w	r2, [r3, #32]
    2442:	68bb      	ldr	r3, [r7, #8]
    2444:	689b      	ldr	r3, [r3, #8]
    2446:	2b00      	cmp	r3, #0
    2448:	d004      	beq.n	2454 <timer_call_func_list+0x5c>
    244a:	68bb      	ldr	r3, [r7, #8]
    244c:	689a      	ldr	r2, [r3, #8]
    244e:	68bb      	ldr	r3, [r7, #8]
    2450:	611a      	str	r2, [r3, #16]
    2452:	e002      	b.n	245a <timer_call_func_list+0x62>
    2454:	68b8      	ldr	r0, [r7, #8]
    2456:	f7ff ff97 	bl	2388 <timer_stop>
    245a:	68fb      	ldr	r3, [r7, #12]
    245c:	685b      	ldr	r3, [r3, #4]
    245e:	60fb      	str	r3, [r7, #12]
    2460:	687b      	ldr	r3, [r7, #4]
    2462:	68fa      	ldr	r2, [r7, #12]
    2464:	429a      	cmp	r2, r3
    2466:	d1cf      	bne.n	2408 <timer_call_func_list+0x10>
    2468:	bf00      	nop
    246a:	bf00      	nop
    246c:	3710      	adds	r7, #16
    246e:	46bd      	mov	sp, r7
    2470:	bd80      	pop	{r7, pc}

00002472 <timer_destory>:
    2472:	b580      	push	{r7, lr}
    2474:	b082      	sub	sp, #8
    2476:	af00      	add	r7, sp, #0
    2478:	6078      	str	r0, [r7, #4]
    247a:	6878      	ldr	r0, [r7, #4]
    247c:	f7ff ff84 	bl	2388 <timer_stop>
    2480:	687b      	ldr	r3, [r7, #4]
    2482:	2204      	movs	r2, #4
    2484:	f883 2020 	strb.w	r2, [r3, #32]
    2488:	bf00      	nop
    248a:	3708      	adds	r7, #8
    248c:	46bd      	mov	sp, r7
    248e:	bd80      	pop	{r7, pc}

00002490 <timer_soft_task>:
    2490:	b580      	push	{r7, lr}
    2492:	b082      	sub	sp, #8
    2494:	af00      	add	r7, sp, #0
    2496:	6078      	str	r0, [r7, #4]
    2498:	2100      	movs	r1, #0
    249a:	4807      	ldr	r0, [pc, #28]	; (24b8 <timer_soft_task+0x28>)
    249c:	f7ff fbc2 	bl	1c24 <sem_acquire>
    24a0:	2100      	movs	r1, #0
    24a2:	4806      	ldr	r0, [pc, #24]	; (24bc <timer_soft_task+0x2c>)
    24a4:	f7ff fbbe 	bl	1c24 <sem_acquire>
    24a8:	4805      	ldr	r0, [pc, #20]	; (24c0 <timer_soft_task+0x30>)
    24aa:	f7ff ffa5 	bl	23f8 <timer_call_func_list>
    24ae:	4803      	ldr	r0, [pc, #12]	; (24bc <timer_soft_task+0x2c>)
    24b0:	f7ff fc08 	bl	1cc4 <sem_release>
    24b4:	e7f0      	b.n	2498 <timer_soft_task+0x8>
    24b6:	bf00      	nop
    24b8:	20001218 	andcs	r1, r0, r8, lsl r2
    24bc:	20001200 	andcs	r1, r0, r0, lsl #4
    24c0:	200011f4 	strdcs	r1, [r0], -r4

000024c4 <timer_module_tick_notify>:
    24c4:	b580      	push	{r7, lr}
    24c6:	b082      	sub	sp, #8
    24c8:	af00      	add	r7, sp, #0
    24ca:	f7fe fdfd 	bl	10c8 <task_enter_critical>
    24ce:	6078      	str	r0, [r7, #4]
    24d0:	4806      	ldr	r0, [pc, #24]	; (24ec <timer_module_tick_notify+0x28>)
    24d2:	f7ff ff91 	bl	23f8 <timer_call_func_list>
    24d6:	6878      	ldr	r0, [r7, #4]
    24d8:	f7fe fe03 	bl	10e2 <task_exit_critical>
    24dc:	4804      	ldr	r0, [pc, #16]	; (24f0 <timer_module_tick_notify+0x2c>)
    24de:	f7ff fbf1 	bl	1cc4 <sem_release>
    24e2:	bf00      	nop
    24e4:	3708      	adds	r7, #8
    24e6:	46bd      	mov	sp, r7
    24e8:	bd80      	pop	{r7, pc}
    24ea:	bf00      	nop
    24ec:	200011e8 	andcs	r1, r0, r8, ror #3
    24f0:	20001218 	andcs	r1, r0, r8, lsl r2

000024f4 <timer_module_init>:
    24f4:	b580      	push	{r7, lr}
    24f6:	b082      	sub	sp, #8
    24f8:	af02      	add	r7, sp, #8
    24fa:	480d      	ldr	r0, [pc, #52]	; (2530 <timer_module_init+0x3c>)
    24fc:	f7ff f8de 	bl	16bc <list_init>
    2500:	480c      	ldr	r0, [pc, #48]	; (2534 <timer_module_init+0x40>)
    2502:	f7ff f8db 	bl	16bc <list_init>
    2506:	2201      	movs	r2, #1
    2508:	2101      	movs	r1, #1
    250a:	480b      	ldr	r0, [pc, #44]	; (2538 <timer_module_init+0x44>)
    250c:	f7ff fb6c 	bl	1be8 <sem_init>
    2510:	2200      	movs	r2, #0
    2512:	2100      	movs	r1, #0
    2514:	4809      	ldr	r0, [pc, #36]	; (253c <timer_module_init+0x48>)
    2516:	f7ff fb67 	bl	1be8 <sem_init>
    251a:	4b09      	ldr	r3, [pc, #36]	; (2540 <timer_module_init+0x4c>)
    251c:	9300      	str	r3, [sp, #0]
    251e:	2301      	movs	r3, #1
    2520:	2200      	movs	r2, #0
    2522:	4908      	ldr	r1, [pc, #32]	; (2544 <timer_module_init+0x50>)
    2524:	4808      	ldr	r0, [pc, #32]	; (2548 <timer_module_init+0x54>)
    2526:	f7fe fbe0 	bl	cea <task_init>
    252a:	bf00      	nop
    252c:	46bd      	mov	sp, r7
    252e:	bd80      	pop	{r7, pc}
    2530:	200011e8 	andcs	r1, r0, r8, ror #3
    2534:	200011f4 	strdcs	r1, [r0], -r4
    2538:	20001200 	andcs	r1, r0, r0, lsl #4
    253c:	20001218 	andcs	r1, r0, r8, lsl r2
    2540:	20002278 	andcs	r2, r0, r8, ror r2
    2544:	00002491 	muleq	r0, r1, r4
    2548:	20001230 	andcs	r1, r0, r0, lsr r2

0000254c <mutex_init>:
    254c:	b580      	push	{r7, lr}
    254e:	b082      	sub	sp, #8
    2550:	af00      	add	r7, sp, #0
    2552:	6078      	str	r0, [r7, #4]
    2554:	687b      	ldr	r3, [r7, #4]
    2556:	f44f 2180 	mov.w	r1, #262144	; 0x40000
    255a:	4618      	mov	r0, r3
    255c:	f7ff fa0e 	bl	197c <event_init>
    2560:	687b      	ldr	r3, [r7, #4]
    2562:	2200      	movs	r2, #0
    2564:	615a      	str	r2, [r3, #20]
    2566:	687b      	ldr	r3, [r7, #4]
    2568:	2220      	movs	r2, #32
    256a:	619a      	str	r2, [r3, #24]
    256c:	687b      	ldr	r3, [r7, #4]
    256e:	2200      	movs	r2, #0
    2570:	611a      	str	r2, [r3, #16]
    2572:	bf00      	nop
    2574:	3708      	adds	r7, #8
    2576:	46bd      	mov	sp, r7
    2578:	bd80      	pop	{r7, pc}

0000257a <mutex_lock>:
    257a:	b580      	push	{r7, lr}
    257c:	b086      	sub	sp, #24
    257e:	af02      	add	r7, sp, #8
    2580:	6078      	str	r0, [r7, #4]
    2582:	6039      	str	r1, [r7, #0]
    2584:	f7fe fda0 	bl	10c8 <task_enter_critical>
    2588:	60f8      	str	r0, [r7, #12]
    258a:	687b      	ldr	r3, [r7, #4]
    258c:	691b      	ldr	r3, [r3, #16]
    258e:	2b00      	cmp	r3, #0
    2590:	d112      	bne.n	25b8 <mutex_lock+0x3e>
    2592:	4b2c      	ldr	r3, [pc, #176]	; (2644 <mutex_lock+0xca>)
    2594:	681a      	ldr	r2, [r3, #0]
    2596:	687b      	ldr	r3, [r7, #4]
    2598:	615a      	str	r2, [r3, #20]
    259a:	4b2a      	ldr	r3, [pc, #168]	; (2644 <mutex_lock+0xca>)
    259c:	681b      	ldr	r3, [r3, #0]
    259e:	689a      	ldr	r2, [r3, #8]
    25a0:	687b      	ldr	r3, [r7, #4]
    25a2:	619a      	str	r2, [r3, #24]
    25a4:	687b      	ldr	r3, [r7, #4]
    25a6:	691b      	ldr	r3, [r3, #16]
    25a8:	1c5a      	adds	r2, r3, #1
    25aa:	687b      	ldr	r3, [r7, #4]
    25ac:	611a      	str	r2, [r3, #16]
    25ae:	68f8      	ldr	r0, [r7, #12]
    25b0:	f7fe fd97 	bl	10e2 <task_exit_critical>
    25b4:	2300      	movs	r3, #0
    25b6:	e041      	b.n	263c <mutex_lock+0xc2>
    25b8:	687b      	ldr	r3, [r7, #4]
    25ba:	695a      	ldr	r2, [r3, #20]
    25bc:	4b21      	ldr	r3, [pc, #132]	; (2644 <mutex_lock+0xca>)
    25be:	681b      	ldr	r3, [r3, #0]
    25c0:	429a      	cmp	r2, r3
    25c2:	d109      	bne.n	25d8 <mutex_lock+0x5e>
    25c4:	687b      	ldr	r3, [r7, #4]
    25c6:	691b      	ldr	r3, [r3, #16]
    25c8:	1c5a      	adds	r2, r3, #1
    25ca:	687b      	ldr	r3, [r7, #4]
    25cc:	611a      	str	r2, [r3, #16]
    25ce:	68f8      	ldr	r0, [r7, #12]
    25d0:	f7fe fd87 	bl	10e2 <task_exit_critical>
    25d4:	2300      	movs	r3, #0
    25d6:	e031      	b.n	263c <mutex_lock+0xc2>
    25d8:	4b1a      	ldr	r3, [pc, #104]	; (2644 <mutex_lock+0xca>)
    25da:	681b      	ldr	r3, [r3, #0]
    25dc:	689a      	ldr	r2, [r3, #8]
    25de:	687b      	ldr	r3, [r7, #4]
    25e0:	695b      	ldr	r3, [r3, #20]
    25e2:	689b      	ldr	r3, [r3, #8]
    25e4:	429a      	cmp	r2, r3
    25e6:	d217      	bcs.n	2618 <mutex_lock+0x9e>
    25e8:	687b      	ldr	r3, [r7, #4]
    25ea:	695b      	ldr	r3, [r3, #20]
    25ec:	60bb      	str	r3, [r7, #8]
    25ee:	68bb      	ldr	r3, [r7, #8]
    25f0:	695b      	ldr	r3, [r3, #20]
    25f2:	2b00      	cmp	r3, #0
    25f4:	d10b      	bne.n	260e <mutex_lock+0x94>
    25f6:	68b8      	ldr	r0, [r7, #8]
    25f8:	f7fe fdf6 	bl	11e8 <task_unready>
    25fc:	4b11      	ldr	r3, [pc, #68]	; (2644 <mutex_lock+0xca>)
    25fe:	681b      	ldr	r3, [r3, #0]
    2600:	689a      	ldr	r2, [r3, #8]
    2602:	68bb      	ldr	r3, [r7, #8]
    2604:	609a      	str	r2, [r3, #8]
    2606:	68b8      	ldr	r0, [r7, #8]
    2608:	f7fe fdce 	bl	11a8 <task_ready>
    260c:	e004      	b.n	2618 <mutex_lock+0x9e>
    260e:	4b0d      	ldr	r3, [pc, #52]	; (2644 <mutex_lock+0xca>)
    2610:	681b      	ldr	r3, [r3, #0]
    2612:	689a      	ldr	r2, [r3, #8]
    2614:	68bb      	ldr	r3, [r7, #8]
    2616:	609a      	str	r2, [r3, #8]
    2618:	6878      	ldr	r0, [r7, #4]
    261a:	4b0a      	ldr	r3, [pc, #40]	; (2644 <mutex_lock+0xca>)
    261c:	6819      	ldr	r1, [r3, #0]
    261e:	683b      	ldr	r3, [r7, #0]
    2620:	9300      	str	r3, [sp, #0]
    2622:	f44f 2380 	mov.w	r3, #262144	; 0x40000
    2626:	2200      	movs	r2, #0
    2628:	f7ff f9b9 	bl	199e <event_wait>
    262c:	68f8      	ldr	r0, [r7, #12]
    262e:	f7fe fd58 	bl	10e2 <task_exit_critical>
    2632:	f7fe fc13 	bl	e5c <task_sched>
    2636:	4b03      	ldr	r3, [pc, #12]	; (2644 <mutex_lock+0xca>)
    2638:	681b      	ldr	r3, [r3, #0]
    263a:	6bdb      	ldr	r3, [r3, #60]	; 0x3c
    263c:	4618      	mov	r0, r3
    263e:	3710      	adds	r7, #16
    2640:	46bd      	mov	sp, r7
    2642:	bd80      	pop	{r7, pc}
    2644:	20000000 	andcs	r0, r0, r0

00002648 <mutex_lock_no_wait>:
    2648:	b580      	push	{r7, lr}
    264a:	b084      	sub	sp, #16
    264c:	af00      	add	r7, sp, #0
    264e:	6078      	str	r0, [r7, #4]
    2650:	f7fe fd3a 	bl	10c8 <task_enter_critical>
    2654:	60f8      	str	r0, [r7, #12]
    2656:	687b      	ldr	r3, [r7, #4]
    2658:	691b      	ldr	r3, [r3, #16]
    265a:	2b00      	cmp	r3, #0
    265c:	d112      	bne.n	2684 <mutex_lock_no_wait+0x3c>
    265e:	4b15      	ldr	r3, [pc, #84]	; (26b4 <mutex_lock_no_wait+0x6c>)
    2660:	681a      	ldr	r2, [r3, #0]
    2662:	687b      	ldr	r3, [r7, #4]
    2664:	615a      	str	r2, [r3, #20]
    2666:	4b13      	ldr	r3, [pc, #76]	; (26b4 <mutex_lock_no_wait+0x6c>)
    2668:	681b      	ldr	r3, [r3, #0]
    266a:	689a      	ldr	r2, [r3, #8]
    266c:	687b      	ldr	r3, [r7, #4]
    266e:	619a      	str	r2, [r3, #24]
    2670:	687b      	ldr	r3, [r7, #4]
    2672:	691b      	ldr	r3, [r3, #16]
    2674:	1c5a      	adds	r2, r3, #1
    2676:	687b      	ldr	r3, [r7, #4]
    2678:	611a      	str	r2, [r3, #16]
    267a:	68f8      	ldr	r0, [r7, #12]
    267c:	f7fe fd31 	bl	10e2 <task_exit_critical>
    2680:	2300      	movs	r3, #0
    2682:	e013      	b.n	26ac <mutex_lock_no_wait+0x64>
    2684:	687b      	ldr	r3, [r7, #4]
    2686:	695a      	ldr	r2, [r3, #20]
    2688:	4b0a      	ldr	r3, [pc, #40]	; (26b4 <mutex_lock_no_wait+0x6c>)
    268a:	681b      	ldr	r3, [r3, #0]
    268c:	429a      	cmp	r2, r3
    268e:	d109      	bne.n	26a4 <mutex_lock_no_wait+0x5c>
    2690:	687b      	ldr	r3, [r7, #4]
    2692:	691b      	ldr	r3, [r3, #16]
    2694:	1c5a      	adds	r2, r3, #1
    2696:	687b      	ldr	r3, [r7, #4]
    2698:	611a      	str	r2, [r3, #16]
    269a:	68f8      	ldr	r0, [r7, #12]
    269c:	f7fe fd21 	bl	10e2 <task_exit_critical>
    26a0:	2300      	movs	r3, #0
    26a2:	e003      	b.n	26ac <mutex_lock_no_wait+0x64>
    26a4:	68f8      	ldr	r0, [r7, #12]
    26a6:	f7fe fd1c 	bl	10e2 <task_exit_critical>
    26aa:	2303      	movs	r3, #3
    26ac:	4618      	mov	r0, r3
    26ae:	3710      	adds	r7, #16
    26b0:	46bd      	mov	sp, r7
    26b2:	bd80      	pop	{r7, pc}
    26b4:	20000000 	andcs	r0, r0, r0

000026b8 <mutex_unlock>:
    26b8:	b580      	push	{r7, lr}
    26ba:	b084      	sub	sp, #16
    26bc:	af00      	add	r7, sp, #0
    26be:	6078      	str	r0, [r7, #4]
    26c0:	f7fe fd02 	bl	10c8 <task_enter_critical>
    26c4:	60f8      	str	r0, [r7, #12]
    26c6:	687b      	ldr	r3, [r7, #4]
    26c8:	691b      	ldr	r3, [r3, #16]
    26ca:	2b00      	cmp	r3, #0
    26cc:	d104      	bne.n	26d8 <mutex_unlock+0x20>
    26ce:	68f8      	ldr	r0, [r7, #12]
    26d0:	f7fe fd07 	bl	10e2 <task_exit_critical>
    26d4:	2300      	movs	r3, #0
    26d6:	e060      	b.n	279a <mutex_unlock+0xe2>
    26d8:	687b      	ldr	r3, [r7, #4]
    26da:	695a      	ldr	r2, [r3, #20]
    26dc:	4b31      	ldr	r3, [pc, #196]	; (27a4 <mutex_unlock+0xec>)
    26de:	681b      	ldr	r3, [r3, #0]
    26e0:	429a      	cmp	r2, r3
    26e2:	d004      	beq.n	26ee <mutex_unlock+0x36>
    26e4:	68f8      	ldr	r0, [r7, #12]
    26e6:	f7fe fcfc 	bl	10e2 <task_exit_critical>
    26ea:	2304      	movs	r3, #4
    26ec:	e055      	b.n	279a <mutex_unlock+0xe2>
    26ee:	687b      	ldr	r3, [r7, #4]
    26f0:	691b      	ldr	r3, [r3, #16]
    26f2:	1e5a      	subs	r2, r3, #1
    26f4:	687b      	ldr	r3, [r7, #4]
    26f6:	611a      	str	r2, [r3, #16]
    26f8:	687b      	ldr	r3, [r7, #4]
    26fa:	691b      	ldr	r3, [r3, #16]
    26fc:	2b00      	cmp	r3, #0
    26fe:	d004      	beq.n	270a <mutex_unlock+0x52>
    2700:	68f8      	ldr	r0, [r7, #12]
    2702:	f7fe fcee 	bl	10e2 <task_exit_critical>
    2706:	2300      	movs	r3, #0
    2708:	e047      	b.n	279a <mutex_unlock+0xe2>
    270a:	687b      	ldr	r3, [r7, #4]
    270c:	699a      	ldr	r2, [r3, #24]
    270e:	687b      	ldr	r3, [r7, #4]
    2710:	695b      	ldr	r3, [r3, #20]
    2712:	689b      	ldr	r3, [r3, #8]
    2714:	429a      	cmp	r2, r3
    2716:	d019      	beq.n	274c <mutex_unlock+0x94>
    2718:	687b      	ldr	r3, [r7, #4]
    271a:	695b      	ldr	r3, [r3, #20]
    271c:	695b      	ldr	r3, [r3, #20]
    271e:	2b00      	cmp	r3, #0
    2720:	d10f      	bne.n	2742 <mutex_unlock+0x8a>
    2722:	687b      	ldr	r3, [r7, #4]
    2724:	695b      	ldr	r3, [r3, #20]
    2726:	4618      	mov	r0, r3
    2728:	f7fe fd5e 	bl	11e8 <task_unready>
    272c:	4b1d      	ldr	r3, [pc, #116]	; (27a4 <mutex_unlock+0xec>)
    272e:	681b      	ldr	r3, [r3, #0]
    2730:	687a      	ldr	r2, [r7, #4]
    2732:	6992      	ldr	r2, [r2, #24]
    2734:	609a      	str	r2, [r3, #8]
    2736:	687b      	ldr	r3, [r7, #4]
    2738:	695b      	ldr	r3, [r3, #20]
    273a:	4618      	mov	r0, r3
    273c:	f7fe fd34 	bl	11a8 <task_ready>
    2740:	e004      	b.n	274c <mutex_unlock+0x94>
    2742:	4b18      	ldr	r3, [pc, #96]	; (27a4 <mutex_unlock+0xec>)
    2744:	681b      	ldr	r3, [r3, #0]
    2746:	687a      	ldr	r2, [r7, #4]
    2748:	6992      	ldr	r2, [r2, #24]
    274a:	609a      	str	r2, [r3, #8]
    274c:	687b      	ldr	r3, [r7, #4]
    274e:	4618      	mov	r0, r3
    2750:	f7ff fa32 	bl	1bb8 <event_wait_count>
    2754:	4603      	mov	r3, r0
    2756:	2b00      	cmp	r3, #0
    2758:	d01b      	beq.n	2792 <mutex_unlock+0xda>
    275a:	687b      	ldr	r3, [r7, #4]
    275c:	2200      	movs	r2, #0
    275e:	2100      	movs	r1, #0
    2760:	4618      	mov	r0, r3
    2762:	f7ff f94b 	bl	19fc <event_wakeup>
    2766:	60b8      	str	r0, [r7, #8]
    2768:	687b      	ldr	r3, [r7, #4]
    276a:	68ba      	ldr	r2, [r7, #8]
    276c:	615a      	str	r2, [r3, #20]
    276e:	68bb      	ldr	r3, [r7, #8]
    2770:	689a      	ldr	r2, [r3, #8]
    2772:	687b      	ldr	r3, [r7, #4]
    2774:	619a      	str	r2, [r3, #24]
    2776:	687b      	ldr	r3, [r7, #4]
    2778:	691b      	ldr	r3, [r3, #16]
    277a:	1c5a      	adds	r2, r3, #1
    277c:	687b      	ldr	r3, [r7, #4]
    277e:	611a      	str	r2, [r3, #16]
    2780:	68bb      	ldr	r3, [r7, #8]
    2782:	689a      	ldr	r2, [r3, #8]
    2784:	4b07      	ldr	r3, [pc, #28]	; (27a4 <mutex_unlock+0xec>)
    2786:	681b      	ldr	r3, [r3, #0]
    2788:	689b      	ldr	r3, [r3, #8]
    278a:	429a      	cmp	r2, r3
    278c:	d201      	bcs.n	2792 <mutex_unlock+0xda>
    278e:	f7fe fb65 	bl	e5c <task_sched>
    2792:	68f8      	ldr	r0, [r7, #12]
    2794:	f7fe fca5 	bl	10e2 <task_exit_critical>
    2798:	2300      	movs	r3, #0
    279a:	4618      	mov	r0, r3
    279c:	3710      	adds	r7, #16
    279e:	46bd      	mov	sp, r7
    27a0:	bd80      	pop	{r7, pc}
    27a2:	bf00      	nop
    27a4:	20000000 	andcs	r0, r0, r0

000027a8 <mutex_destory>:
    27a8:	b580      	push	{r7, lr}
    27aa:	b084      	sub	sp, #16
    27ac:	af00      	add	r7, sp, #0
    27ae:	6078      	str	r0, [r7, #4]
    27b0:	2300      	movs	r3, #0
    27b2:	60fb      	str	r3, [r7, #12]
    27b4:	f7fe fc88 	bl	10c8 <task_enter_critical>
    27b8:	60b8      	str	r0, [r7, #8]
    27ba:	687b      	ldr	r3, [r7, #4]
    27bc:	691b      	ldr	r3, [r3, #16]
    27be:	2b00      	cmp	r3, #0
    27c0:	d020      	beq.n	2804 <mutex_destory+0x5c>
    27c2:	687b      	ldr	r3, [r7, #4]
    27c4:	699a      	ldr	r2, [r3, #24]
    27c6:	687b      	ldr	r3, [r7, #4]
    27c8:	695b      	ldr	r3, [r3, #20]
    27ca:	689b      	ldr	r3, [r3, #8]
    27cc:	429a      	cmp	r2, r3
    27ce:	d019      	beq.n	2804 <mutex_destory+0x5c>
    27d0:	687b      	ldr	r3, [r7, #4]
    27d2:	695b      	ldr	r3, [r3, #20]
    27d4:	695b      	ldr	r3, [r3, #20]
    27d6:	2b00      	cmp	r3, #0
    27d8:	d10f      	bne.n	27fa <mutex_destory+0x52>
    27da:	687b      	ldr	r3, [r7, #4]
    27dc:	695b      	ldr	r3, [r3, #20]
    27de:	4618      	mov	r0, r3
    27e0:	f7fe fd02 	bl	11e8 <task_unready>
    27e4:	687b      	ldr	r3, [r7, #4]
    27e6:	695b      	ldr	r3, [r3, #20]
    27e8:	687a      	ldr	r2, [r7, #4]
    27ea:	6992      	ldr	r2, [r2, #24]
    27ec:	609a      	str	r2, [r3, #8]
    27ee:	687b      	ldr	r3, [r7, #4]
    27f0:	695b      	ldr	r3, [r3, #20]
    27f2:	4618      	mov	r0, r3
    27f4:	f7fe fcd8 	bl	11a8 <task_ready>
    27f8:	e004      	b.n	2804 <mutex_destory+0x5c>
    27fa:	687b      	ldr	r3, [r7, #4]
    27fc:	695b      	ldr	r3, [r3, #20]
    27fe:	687a      	ldr	r2, [r7, #4]
    2800:	6992      	ldr	r2, [r2, #24]
    2802:	609a      	str	r2, [r3, #8]
    2804:	687b      	ldr	r3, [r7, #4]
    2806:	2202      	movs	r2, #2
    2808:	2100      	movs	r1, #0
    280a:	4618      	mov	r0, r3
    280c:	f7ff f985 	bl	1b1a <event_remove_all>
    2810:	60f8      	str	r0, [r7, #12]
    2812:	68fb      	ldr	r3, [r7, #12]
    2814:	2b00      	cmp	r3, #0
    2816:	d001      	beq.n	281c <mutex_destory+0x74>
    2818:	f7fe fb20 	bl	e5c <task_sched>
    281c:	68b8      	ldr	r0, [r7, #8]
    281e:	f7fe fc60 	bl	10e2 <task_exit_critical>
    2822:	2300      	movs	r3, #0
    2824:	4618      	mov	r0, r3
    2826:	3710      	adds	r7, #16
    2828:	46bd      	mov	sp, r7
    282a:	bd80      	pop	{r7, pc}

0000282c <mutex_get_info>:
    282c:	b580      	push	{r7, lr}
    282e:	b084      	sub	sp, #16
    2830:	af00      	add	r7, sp, #0
    2832:	6078      	str	r0, [r7, #4]
    2834:	6039      	str	r1, [r7, #0]
    2836:	f7fe fc47 	bl	10c8 <task_enter_critical>
    283a:	60f8      	str	r0, [r7, #12]
    283c:	687b      	ldr	r3, [r7, #4]
    283e:	4618      	mov	r0, r3
    2840:	f7ff f9ba 	bl	1bb8 <event_wait_count>
    2844:	4602      	mov	r2, r0
    2846:	683b      	ldr	r3, [r7, #0]
    2848:	601a      	str	r2, [r3, #0]
    284a:	687b      	ldr	r3, [r7, #4]
    284c:	699a      	ldr	r2, [r3, #24]
    284e:	683b      	ldr	r3, [r7, #0]
    2850:	605a      	str	r2, [r3, #4]
    2852:	687b      	ldr	r3, [r7, #4]
    2854:	695b      	ldr	r3, [r3, #20]
    2856:	2b00      	cmp	r3, #0
    2858:	d005      	beq.n	2866 <mutex_get_info+0x3a>
    285a:	687b      	ldr	r3, [r7, #4]
    285c:	695b      	ldr	r3, [r3, #20]
    285e:	689a      	ldr	r2, [r3, #8]
    2860:	683b      	ldr	r3, [r7, #0]
    2862:	609a      	str	r2, [r3, #8]
    2864:	e002      	b.n	286c <mutex_get_info+0x40>
    2866:	683b      	ldr	r3, [r7, #0]
    2868:	2220      	movs	r2, #32
    286a:	609a      	str	r2, [r3, #8]
    286c:	687b      	ldr	r3, [r7, #4]
    286e:	695a      	ldr	r2, [r3, #20]
    2870:	683b      	ldr	r3, [r7, #0]
    2872:	60da      	str	r2, [r3, #12]
    2874:	687b      	ldr	r3, [r7, #4]
    2876:	691a      	ldr	r2, [r3, #16]
    2878:	683b      	ldr	r3, [r7, #0]
    287a:	611a      	str	r2, [r3, #16]
    287c:	68f8      	ldr	r0, [r7, #12]
    287e:	f7fe fc30 	bl	10e2 <task_exit_critical>
    2882:	bf00      	nop
    2884:	3710      	adds	r7, #16
    2886:	46bd      	mov	sp, r7
    2888:	bd80      	pop	{r7, pc}
    288a:	bf00      	nop

0000288c <flag_group_init>:
    288c:	b580      	push	{r7, lr}
    288e:	b082      	sub	sp, #8
    2890:	af00      	add	r7, sp, #0
    2892:	6078      	str	r0, [r7, #4]
    2894:	6039      	str	r1, [r7, #0]
    2896:	687b      	ldr	r3, [r7, #4]
    2898:	f44f 21a0 	mov.w	r1, #327680	; 0x50000
    289c:	4618      	mov	r0, r3
    289e:	f7ff f86d 	bl	197c <event_init>
    28a2:	687b      	ldr	r3, [r7, #4]
    28a4:	683a      	ldr	r2, [r7, #0]
    28a6:	611a      	str	r2, [r3, #16]
    28a8:	bf00      	nop
    28aa:	3708      	adds	r7, #8
    28ac:	46bd      	mov	sp, r7
    28ae:	bd80      	pop	{r7, pc}

000028b0 <flag_group_check_and_consume>:
    28b0:	b480      	push	{r7}
    28b2:	b08b      	sub	sp, #44	; 0x2c
    28b4:	af00      	add	r7, sp, #0
    28b6:	60f8      	str	r0, [r7, #12]
    28b8:	60b9      	str	r1, [r7, #8]
    28ba:	607a      	str	r2, [r7, #4]
    28bc:	687b      	ldr	r3, [r7, #4]
    28be:	681b      	ldr	r3, [r3, #0]
    28c0:	627b      	str	r3, [r7, #36]	; 0x24
    28c2:	68bb      	ldr	r3, [r7, #8]
    28c4:	f003 0301 	and.w	r3, r3, #1
    28c8:	623b      	str	r3, [r7, #32]
    28ca:	68bb      	ldr	r3, [r7, #8]
    28cc:	f003 0302 	and.w	r3, r3, #2
    28d0:	61fb      	str	r3, [r7, #28]
    28d2:	68bb      	ldr	r3, [r7, #8]
    28d4:	f003 0380 	and.w	r3, r3, #128	; 0x80
    28d8:	61bb      	str	r3, [r7, #24]
    28da:	6a3b      	ldr	r3, [r7, #32]
    28dc:	2b00      	cmp	r3, #0
    28de:	d004      	beq.n	28ea <flag_group_check_and_consume+0x3a>
    28e0:	68fb      	ldr	r3, [r7, #12]
    28e2:	691a      	ldr	r2, [r3, #16]
    28e4:	6a7b      	ldr	r3, [r7, #36]	; 0x24
    28e6:	4013      	ands	r3, r2
    28e8:	e004      	b.n	28f4 <flag_group_check_and_consume+0x44>
    28ea:	68fb      	ldr	r3, [r7, #12]
    28ec:	691b      	ldr	r3, [r3, #16]
    28ee:	43da      	mvns	r2, r3
    28f0:	6a7b      	ldr	r3, [r7, #36]	; 0x24
    28f2:	4013      	ands	r3, r2
    28f4:	617b      	str	r3, [r7, #20]
    28f6:	69fb      	ldr	r3, [r7, #28]
    28f8:	2b00      	cmp	r3, #0
    28fa:	d003      	beq.n	2904 <flag_group_check_and_consume+0x54>
    28fc:	697a      	ldr	r2, [r7, #20]
    28fe:	6a7b      	ldr	r3, [r7, #36]	; 0x24
    2900:	429a      	cmp	r2, r3
    2902:	d005      	beq.n	2910 <flag_group_check_and_consume+0x60>
    2904:	69fb      	ldr	r3, [r7, #28]
    2906:	2b00      	cmp	r3, #0
    2908:	d11b      	bne.n	2942 <flag_group_check_and_consume+0x92>
    290a:	697b      	ldr	r3, [r7, #20]
    290c:	2b00      	cmp	r3, #0
    290e:	d018      	beq.n	2942 <flag_group_check_and_consume+0x92>
    2910:	69bb      	ldr	r3, [r7, #24]
    2912:	2b00      	cmp	r3, #0
    2914:	d010      	beq.n	2938 <flag_group_check_and_consume+0x88>
    2916:	6a3b      	ldr	r3, [r7, #32]
    2918:	2b00      	cmp	r3, #0
    291a:	d007      	beq.n	292c <flag_group_check_and_consume+0x7c>
    291c:	68fb      	ldr	r3, [r7, #12]
    291e:	691a      	ldr	r2, [r3, #16]
    2920:	6a7b      	ldr	r3, [r7, #36]	; 0x24
    2922:	43db      	mvns	r3, r3
    2924:	401a      	ands	r2, r3
    2926:	68fb      	ldr	r3, [r7, #12]
    2928:	611a      	str	r2, [r3, #16]
    292a:	e005      	b.n	2938 <flag_group_check_and_consume+0x88>
    292c:	68fb      	ldr	r3, [r7, #12]
    292e:	691a      	ldr	r2, [r3, #16]
    2930:	6a7b      	ldr	r3, [r7, #36]	; 0x24
    2932:	431a      	orrs	r2, r3
    2934:	68fb      	ldr	r3, [r7, #12]
    2936:	611a      	str	r2, [r3, #16]
    2938:	687b      	ldr	r3, [r7, #4]
    293a:	697a      	ldr	r2, [r7, #20]
    293c:	601a      	str	r2, [r3, #0]
    293e:	2300      	movs	r3, #0
    2940:	e003      	b.n	294a <flag_group_check_and_consume+0x9a>
    2942:	687b      	ldr	r3, [r7, #4]
    2944:	697a      	ldr	r2, [r7, #20]
    2946:	601a      	str	r2, [r3, #0]
    2948:	2303      	movs	r3, #3
    294a:	4618      	mov	r0, r3
    294c:	372c      	adds	r7, #44	; 0x2c
    294e:	46bd      	mov	sp, r7
    2950:	bc80      	pop	{r7}
    2952:	4770      	bx	lr

00002954 <flag_group_wait>:
    2954:	b580      	push	{r7, lr}
    2956:	b08a      	sub	sp, #40	; 0x28
    2958:	af02      	add	r7, sp, #8
    295a:	60f8      	str	r0, [r7, #12]
    295c:	60b9      	str	r1, [r7, #8]
    295e:	607a      	str	r2, [r7, #4]
    2960:	603b      	str	r3, [r7, #0]
    2962:	687b      	ldr	r3, [r7, #4]
    2964:	617b      	str	r3, [r7, #20]
    2966:	f7fe fbaf 	bl	10c8 <task_enter_critical>
    296a:	61f8      	str	r0, [r7, #28]
    296c:	f107 0314 	add.w	r3, r7, #20
    2970:	461a      	mov	r2, r3
    2972:	68b9      	ldr	r1, [r7, #8]
    2974:	68f8      	ldr	r0, [r7, #12]
    2976:	f7ff ff9b 	bl	28b0 <flag_group_check_and_consume>
    297a:	61b8      	str	r0, [r7, #24]
    297c:	69bb      	ldr	r3, [r7, #24]
    297e:	2b00      	cmp	r3, #0
    2980:	d01c      	beq.n	29bc <flag_group_wait+0x68>
    2982:	4b14      	ldr	r3, [pc, #80]	; (29d4 <flag_group_wait+0x80>)
    2984:	681b      	ldr	r3, [r3, #0]
    2986:	68ba      	ldr	r2, [r7, #8]
    2988:	641a      	str	r2, [r3, #64]	; 0x40
    298a:	4b12      	ldr	r3, [pc, #72]	; (29d4 <flag_group_wait+0x80>)
    298c:	681b      	ldr	r3, [r3, #0]
    298e:	687a      	ldr	r2, [r7, #4]
    2990:	645a      	str	r2, [r3, #68]	; 0x44
    2992:	68f8      	ldr	r0, [r7, #12]
    2994:	4b0f      	ldr	r3, [pc, #60]	; (29d4 <flag_group_wait+0x80>)
    2996:	6819      	ldr	r1, [r3, #0]
    2998:	6abb      	ldr	r3, [r7, #40]	; 0x28
    299a:	9300      	str	r3, [sp, #0]
    299c:	f44f 23a0 	mov.w	r3, #327680	; 0x50000
    29a0:	2200      	movs	r2, #0
    29a2:	f7fe fffc 	bl	199e <event_wait>
    29a6:	69f8      	ldr	r0, [r7, #28]
    29a8:	f7fe fb9b 	bl	10e2 <task_exit_critical>
    29ac:	f7fe fa56 	bl	e5c <task_sched>
    29b0:	4b08      	ldr	r3, [pc, #32]	; (29d4 <flag_group_wait+0x80>)
    29b2:	681b      	ldr	r3, [r3, #0]
    29b4:	6c5a      	ldr	r2, [r3, #68]	; 0x44
    29b6:	683b      	ldr	r3, [r7, #0]
    29b8:	601a      	str	r2, [r3, #0]
    29ba:	e005      	b.n	29c8 <flag_group_wait+0x74>
    29bc:	697a      	ldr	r2, [r7, #20]
    29be:	683b      	ldr	r3, [r7, #0]
    29c0:	601a      	str	r2, [r3, #0]
    29c2:	69f8      	ldr	r0, [r7, #28]
    29c4:	f7fe fb8d 	bl	10e2 <task_exit_critical>
    29c8:	69bb      	ldr	r3, [r7, #24]
    29ca:	4618      	mov	r0, r3
    29cc:	3720      	adds	r7, #32
    29ce:	46bd      	mov	sp, r7
    29d0:	bd80      	pop	{r7, pc}
    29d2:	bf00      	nop
    29d4:	20000000 	andcs	r0, r0, r0

000029d8 <flag_group_no_wait_get>:
    29d8:	b580      	push	{r7, lr}
    29da:	b088      	sub	sp, #32
    29dc:	af00      	add	r7, sp, #0
    29de:	60f8      	str	r0, [r7, #12]
    29e0:	60b9      	str	r1, [r7, #8]
    29e2:	607a      	str	r2, [r7, #4]
    29e4:	603b      	str	r3, [r7, #0]
    29e6:	687b      	ldr	r3, [r7, #4]
    29e8:	61fb      	str	r3, [r7, #28]
    29ea:	f7fe fb6d 	bl	10c8 <task_enter_critical>
    29ee:	61b8      	str	r0, [r7, #24]
    29f0:	1d3b      	adds	r3, r7, #4
    29f2:	461a      	mov	r2, r3
    29f4:	68b9      	ldr	r1, [r7, #8]
    29f6:	68f8      	ldr	r0, [r7, #12]
    29f8:	f7ff ff5a 	bl	28b0 <flag_group_check_and_consume>
    29fc:	6178      	str	r0, [r7, #20]
    29fe:	69b8      	ldr	r0, [r7, #24]
    2a00:	f7fe fb6f 	bl	10e2 <task_exit_critical>
    2a04:	683b      	ldr	r3, [r7, #0]
    2a06:	69fa      	ldr	r2, [r7, #28]
    2a08:	601a      	str	r2, [r3, #0]
    2a0a:	697b      	ldr	r3, [r7, #20]
    2a0c:	4618      	mov	r0, r3
    2a0e:	3720      	adds	r7, #32
    2a10:	46bd      	mov	sp, r7
    2a12:	bd80      	pop	{r7, pc}

00002a14 <flag_group_notify>:
    2a14:	b580      	push	{r7, lr}
    2a16:	b08c      	sub	sp, #48	; 0x30
    2a18:	af00      	add	r7, sp, #0
    2a1a:	60f8      	str	r0, [r7, #12]
    2a1c:	460b      	mov	r3, r1
    2a1e:	607a      	str	r2, [r7, #4]
    2a20:	72fb      	strb	r3, [r7, #11]
    2a22:	f7fe fb51 	bl	10c8 <task_enter_critical>
    2a26:	6278      	str	r0, [r7, #36]	; 0x24
    2a28:	2300      	movs	r3, #0
    2a2a:	f887 302b 	strb.w	r3, [r7, #43]	; 0x2b
    2a2e:	7afb      	ldrb	r3, [r7, #11]
    2a30:	2b00      	cmp	r3, #0
    2a32:	d006      	beq.n	2a42 <flag_group_notify+0x2e>
    2a34:	68fb      	ldr	r3, [r7, #12]
    2a36:	691a      	ldr	r2, [r3, #16]
    2a38:	687b      	ldr	r3, [r7, #4]
    2a3a:	431a      	orrs	r2, r3
    2a3c:	68fb      	ldr	r3, [r7, #12]
    2a3e:	611a      	str	r2, [r3, #16]
    2a40:	e006      	b.n	2a50 <flag_group_notify+0x3c>
    2a42:	68fb      	ldr	r3, [r7, #12]
    2a44:	691a      	ldr	r2, [r3, #16]
    2a46:	687b      	ldr	r3, [r7, #4]
    2a48:	43db      	mvns	r3, r3
    2a4a:	401a      	ands	r2, r3
    2a4c:	68fb      	ldr	r3, [r7, #12]
    2a4e:	611a      	str	r2, [r3, #16]
    2a50:	68fb      	ldr	r3, [r7, #12]
    2a52:	3304      	adds	r3, #4
    2a54:	623b      	str	r3, [r7, #32]
    2a56:	6a3b      	ldr	r3, [r7, #32]
    2a58:	685b      	ldr	r3, [r3, #4]
    2a5a:	62fb      	str	r3, [r7, #44]	; 0x2c
    2a5c:	e022      	b.n	2aa4 <flag_group_notify+0x90>
    2a5e:	6afb      	ldr	r3, [r7, #44]	; 0x2c
    2a60:	3b18      	subs	r3, #24
    2a62:	61fb      	str	r3, [r7, #28]
    2a64:	69fb      	ldr	r3, [r7, #28]
    2a66:	6c5b      	ldr	r3, [r3, #68]	; 0x44
    2a68:	613b      	str	r3, [r7, #16]
    2a6a:	6afb      	ldr	r3, [r7, #44]	; 0x2c
    2a6c:	685b      	ldr	r3, [r3, #4]
    2a6e:	61bb      	str	r3, [r7, #24]
    2a70:	69fb      	ldr	r3, [r7, #28]
    2a72:	6c1b      	ldr	r3, [r3, #64]	; 0x40
    2a74:	f107 0210 	add.w	r2, r7, #16
    2a78:	4619      	mov	r1, r3
    2a7a:	68f8      	ldr	r0, [r7, #12]
    2a7c:	f7ff ff18 	bl	28b0 <flag_group_check_and_consume>
    2a80:	6178      	str	r0, [r7, #20]
    2a82:	697b      	ldr	r3, [r7, #20]
    2a84:	2b00      	cmp	r3, #0
    2a86:	d10b      	bne.n	2aa0 <flag_group_notify+0x8c>
    2a88:	693a      	ldr	r2, [r7, #16]
    2a8a:	69fb      	ldr	r3, [r7, #28]
    2a8c:	645a      	str	r2, [r3, #68]	; 0x44
    2a8e:	68f8      	ldr	r0, [r7, #12]
    2a90:	2300      	movs	r3, #0
    2a92:	2200      	movs	r2, #0
    2a94:	69f9      	ldr	r1, [r7, #28]
    2a96:	f7fe ffe8 	bl	1a6a <event_wakeup_task>
    2a9a:	2301      	movs	r3, #1
    2a9c:	f887 302b 	strb.w	r3, [r7, #43]	; 0x2b
    2aa0:	69bb      	ldr	r3, [r7, #24]
    2aa2:	62fb      	str	r3, [r7, #44]	; 0x2c
    2aa4:	6a3b      	ldr	r3, [r7, #32]
    2aa6:	6afa      	ldr	r2, [r7, #44]	; 0x2c
    2aa8:	429a      	cmp	r2, r3
    2aaa:	d1d8      	bne.n	2a5e <flag_group_notify+0x4a>
    2aac:	f897 302b 	ldrb.w	r3, [r7, #43]	; 0x2b
    2ab0:	2b00      	cmp	r3, #0
    2ab2:	d001      	beq.n	2ab8 <flag_group_notify+0xa4>
    2ab4:	f7fe f9d2 	bl	e5c <task_sched>
    2ab8:	6a78      	ldr	r0, [r7, #36]	; 0x24
    2aba:	f7fe fb12 	bl	10e2 <task_exit_critical>
    2abe:	bf00      	nop
    2ac0:	3730      	adds	r7, #48	; 0x30
    2ac2:	46bd      	mov	sp, r7
    2ac4:	bd80      	pop	{r7, pc}

00002ac6 <flag_group_get_info>:
    2ac6:	b580      	push	{r7, lr}
    2ac8:	b084      	sub	sp, #16
    2aca:	af00      	add	r7, sp, #0
    2acc:	6078      	str	r0, [r7, #4]
    2ace:	6039      	str	r1, [r7, #0]
    2ad0:	f7fe fafa 	bl	10c8 <task_enter_critical>
    2ad4:	60f8      	str	r0, [r7, #12]
    2ad6:	687b      	ldr	r3, [r7, #4]
    2ad8:	691a      	ldr	r2, [r3, #16]
    2ada:	683b      	ldr	r3, [r7, #0]
    2adc:	601a      	str	r2, [r3, #0]
    2ade:	687b      	ldr	r3, [r7, #4]
    2ae0:	4618      	mov	r0, r3
    2ae2:	f7ff f869 	bl	1bb8 <event_wait_count>
    2ae6:	4602      	mov	r2, r0
    2ae8:	683b      	ldr	r3, [r7, #0]
    2aea:	605a      	str	r2, [r3, #4]
    2aec:	68f8      	ldr	r0, [r7, #12]
    2aee:	f7fe faf8 	bl	10e2 <task_exit_critical>
    2af2:	bf00      	nop
    2af4:	3710      	adds	r7, #16
    2af6:	46bd      	mov	sp, r7
    2af8:	bd80      	pop	{r7, pc}

00002afa <flag_group_destory>:
    2afa:	b580      	push	{r7, lr}
    2afc:	b084      	sub	sp, #16
    2afe:	af00      	add	r7, sp, #0
    2b00:	6078      	str	r0, [r7, #4]
    2b02:	f7fe fae1 	bl	10c8 <task_enter_critical>
    2b06:	60f8      	str	r0, [r7, #12]
    2b08:	687b      	ldr	r3, [r7, #4]
    2b0a:	2202      	movs	r2, #2
    2b0c:	2100      	movs	r1, #0
    2b0e:	4618      	mov	r0, r3
    2b10:	f7ff f803 	bl	1b1a <event_remove_all>
    2b14:	60b8      	str	r0, [r7, #8]
    2b16:	68f8      	ldr	r0, [r7, #12]
    2b18:	f7fe fae3 	bl	10e2 <task_exit_critical>
    2b1c:	68bb      	ldr	r3, [r7, #8]
    2b1e:	2b00      	cmp	r3, #0
    2b20:	d001      	beq.n	2b26 <flag_group_destory+0x2c>
    2b22:	f7fe f99b 	bl	e5c <task_sched>
    2b26:	68bb      	ldr	r3, [r7, #8]
    2b28:	4618      	mov	r0, r3
    2b2a:	3710      	adds	r7, #16
    2b2c:	46bd      	mov	sp, r7
    2b2e:	bd80      	pop	{r7, pc}

00002b30 <clear_bss>:
    2b30:	b480      	push	{r7}
    2b32:	b083      	sub	sp, #12
    2b34:	af00      	add	r7, sp, #0
    2b36:	4b0a      	ldr	r3, [pc, #40]	; (2b60 <clear_bss+0x30>)
    2b38:	681b      	ldr	r3, [r3, #0]
    2b3a:	607b      	str	r3, [r7, #4]
    2b3c:	e005      	b.n	2b4a <clear_bss+0x1a>
    2b3e:	687b      	ldr	r3, [r7, #4]
    2b40:	2200      	movs	r2, #0
    2b42:	701a      	strb	r2, [r3, #0]
    2b44:	687b      	ldr	r3, [r7, #4]
    2b46:	3301      	adds	r3, #1
    2b48:	607b      	str	r3, [r7, #4]
    2b4a:	687a      	ldr	r2, [r7, #4]
    2b4c:	4b05      	ldr	r3, [pc, #20]	; (2b64 <clear_bss+0x34>)
    2b4e:	681b      	ldr	r3, [r3, #0]
    2b50:	429a      	cmp	r2, r3
    2b52:	d3f4      	bcc.n	2b3e <clear_bss+0xe>
    2b54:	bf00      	nop
    2b56:	bf00      	nop
    2b58:	370c      	adds	r7, #12
    2b5a:	46bd      	mov	sp, r7
    2b5c:	bc80      	pop	{r7}
    2b5e:	4770      	bx	lr
    2b60:	20000000 	andcs	r0, r0, r0
    2b64:	200063ac 	andcs	r6, r0, ip, lsr #7

00002b68 <task1_entry>:
    2b68:	b580      	push	{r7, lr}
    2b6a:	b082      	sub	sp, #8
    2b6c:	af00      	add	r7, sp, #0
    2b6e:	6078      	str	r0, [r7, #4]
    2b70:	200a      	movs	r0, #10
    2b72:	f7fd fb89 	bl	288 <init_systick>
    2b76:	21ff      	movs	r1, #255	; 0xff
    2b78:	4807      	ldr	r0, [pc, #28]	; (2b98 <task1_entry+0x30>)
    2b7a:	f7ff fe87 	bl	288c <flag_group_init>
    2b7e:	4907      	ldr	r1, [pc, #28]	; (2b9c <task1_entry+0x34>)
    2b80:	4807      	ldr	r0, [pc, #28]	; (2ba0 <task1_entry+0x38>)
    2b82:	f7fd fe0f 	bl	7a4 <printk>
    2b86:	2001      	movs	r0, #1
    2b88:	f7fe f9d2 	bl	f30 <task_delay_s>
    2b8c:	2206      	movs	r2, #6
    2b8e:	2100      	movs	r1, #0
    2b90:	4801      	ldr	r0, [pc, #4]	; (2b98 <task1_entry+0x30>)
    2b92:	f7ff ff3f 	bl	2a14 <flag_group_notify>
    2b96:	e7f2      	b.n	2b7e <task1_entry+0x16>
    2b98:	20006398 	mulcs	r0, r8, r3
    2b9c:	00002ef0 	strdeq	r2, [r0], -r0
    2ba0:	00002eb8 			; <UNDEFINED> instruction: 0x00002eb8

00002ba4 <task2_entry>:
    2ba4:	b580      	push	{r7, lr}
    2ba6:	b086      	sub	sp, #24
    2ba8:	af02      	add	r7, sp, #8
    2baa:	6078      	str	r0, [r7, #4]
    2bac:	2300      	movs	r3, #0
    2bae:	60fb      	str	r3, [r7, #12]
    2bb0:	f107 030c 	add.w	r3, r7, #12
    2bb4:	f44f 62fa 	mov.w	r2, #2000	; 0x7d0
    2bb8:	9200      	str	r2, [sp, #0]
    2bba:	2204      	movs	r2, #4
    2bbc:	2182      	movs	r1, #130	; 0x82
    2bbe:	4804      	ldr	r0, [pc, #16]	; (2bd0 <task2_entry+0x2c>)
    2bc0:	f7ff fec8 	bl	2954 <flag_group_wait>
    2bc4:	4903      	ldr	r1, [pc, #12]	; (2bd4 <task2_entry+0x30>)
    2bc6:	4804      	ldr	r0, [pc, #16]	; (2bd8 <task2_entry+0x34>)
    2bc8:	f7fd fdec 	bl	7a4 <printk>
    2bcc:	e7f0      	b.n	2bb0 <task2_entry+0xc>
    2bce:	bf00      	nop
    2bd0:	20006398 	mulcs	r0, r8, r3
    2bd4:	00002efc 	strdeq	r2, [r0], -ip
    2bd8:	00002eb8 			; <UNDEFINED> instruction: 0x00002eb8

00002bdc <task3_entry>:
    2bdc:	b580      	push	{r7, lr}
    2bde:	b082      	sub	sp, #8
    2be0:	af00      	add	r7, sp, #0
    2be2:	6078      	str	r0, [r7, #4]
    2be4:	4903      	ldr	r1, [pc, #12]	; (2bf4 <task3_entry+0x18>)
    2be6:	4804      	ldr	r0, [pc, #16]	; (2bf8 <task3_entry+0x1c>)
    2be8:	f7fd fddc 	bl	7a4 <printk>
    2bec:	2001      	movs	r0, #1
    2bee:	f7fe f99f 	bl	f30 <task_delay_s>
    2bf2:	e7f7      	b.n	2be4 <task3_entry+0x8>
    2bf4:	00002f08 	andeq	r2, r0, r8, lsl #30
    2bf8:	00002eb8 			; <UNDEFINED> instruction: 0x00002eb8

00002bfc <task4_entry>:
    2bfc:	b580      	push	{r7, lr}
    2bfe:	b082      	sub	sp, #8
    2c00:	af00      	add	r7, sp, #0
    2c02:	6078      	str	r0, [r7, #4]
    2c04:	4906      	ldr	r1, [pc, #24]	; (2c20 <task4_entry+0x24>)
    2c06:	4807      	ldr	r0, [pc, #28]	; (2c24 <task4_entry+0x28>)
    2c08:	f7fd fdcc 	bl	7a4 <printk>
    2c0c:	f000 f854 	bl	2cb8 <testcase>
    2c10:	4903      	ldr	r1, [pc, #12]	; (2c20 <task4_entry+0x24>)
    2c12:	4804      	ldr	r0, [pc, #16]	; (2c24 <task4_entry+0x28>)
    2c14:	f7fd fdc6 	bl	7a4 <printk>
    2c18:	2001      	movs	r0, #1
    2c1a:	f7fe f989 	bl	f30 <task_delay_s>
    2c1e:	e7f1      	b.n	2c04 <task4_entry+0x8>
    2c20:	00002f14 	andeq	r2, r0, r4, lsl pc
    2c24:	00002eb8 			; <UNDEFINED> instruction: 0x00002eb8

00002c28 <main>:
    2c28:	b580      	push	{r7, lr}
    2c2a:	b082      	sub	sp, #8
    2c2c:	af02      	add	r7, sp, #8
    2c2e:	f7ff ff7f 	bl	2b30 <clear_bss>
    2c32:	4817      	ldr	r0, [pc, #92]	; (2c90 <main+0x68>)
    2c34:	f7fd fdb6 	bl	7a4 <printk>
    2c38:	f7fe f81f 	bl	c7a <get_psp>
    2c3c:	4603      	mov	r3, r0
    2c3e:	4619      	mov	r1, r3
    2c40:	4814      	ldr	r0, [pc, #80]	; (2c94 <main+0x6c>)
    2c42:	f7fd fdaf 	bl	7a4 <printk>
    2c46:	f7fe f81e 	bl	c86 <get_msp>
    2c4a:	4603      	mov	r3, r0
    2c4c:	4619      	mov	r1, r3
    2c4e:	4812      	ldr	r0, [pc, #72]	; (2c98 <main+0x70>)
    2c50:	f7fd fda8 	bl	7a4 <printk>
    2c54:	f7fe f9f8 	bl	1048 <init_task_module>
    2c58:	f7ff fc4c 	bl	24f4 <timer_module_init>
    2c5c:	4b0f      	ldr	r3, [pc, #60]	; (2c9c <main+0x74>)
    2c5e:	9300      	str	r3, [sp, #0]
    2c60:	2300      	movs	r3, #0
    2c62:	f04f 3211 	mov.w	r2, #286331153	; 0x11111111
    2c66:	490e      	ldr	r1, [pc, #56]	; (2ca0 <main+0x78>)
    2c68:	480e      	ldr	r0, [pc, #56]	; (2ca4 <main+0x7c>)
    2c6a:	f7fe f83e 	bl	cea <task_init>
    2c6e:	4b0e      	ldr	r3, [pc, #56]	; (2ca8 <main+0x80>)
    2c70:	9300      	str	r3, [sp, #0]
    2c72:	2301      	movs	r3, #1
    2c74:	f04f 3244 	mov.w	r2, #1145324612	; 0x44444444
    2c78:	490c      	ldr	r1, [pc, #48]	; (2cac <main+0x84>)
    2c7a:	480d      	ldr	r0, [pc, #52]	; (2cb0 <main+0x88>)
    2c7c:	f7fe f835 	bl	cea <task_init>
    2c80:	f7fe fa76 	bl	1170 <task_highest_ready>
    2c84:	4603      	mov	r3, r0
    2c86:	4a0b      	ldr	r2, [pc, #44]	; (2cb4 <main+0x8c>)
    2c88:	6013      	str	r3, [r2, #0]
    2c8a:	f7fe f91b 	bl	ec4 <task_run_first>
    2c8e:	e7fe      	b.n	2c8e <main+0x66>
    2c90:	00002ebc 			; <UNDEFINED> instruction: 0x00002ebc
    2c94:	00002ed8 	ldrdeq	r2, [r0], -r8
    2c98:	00002ee4 	andeq	r2, r0, r4, ror #29
    2c9c:	20003398 	mulcs	r0, r8, r3
    2ca0:	00002b69 	andeq	r2, r0, r9, ror #22
    2ca4:	20002278 	andcs	r2, r0, r8, ror r2
    2ca8:	20006398 	mulcs	r0, r8, r3
    2cac:	00002bfd 	strdeq	r2, [r0], -sp
    2cb0:	20002350 	andcs	r2, r0, r0, asr r3
    2cb4:	20000004 	andcs	r0, r0, r4

00002cb8 <testcase>:
    2cb8:	b580      	push	{r7, lr}
    2cba:	af00      	add	r7, sp, #0
    2cbc:	4902      	ldr	r1, [pc, #8]	; (2cc8 <testcase+0x10>)
    2cbe:	4803      	ldr	r0, [pc, #12]	; (2ccc <testcase+0x14>)
    2cc0:	f7fd fd70 	bl	7a4 <printk>
    2cc4:	bf00      	nop
    2cc6:	bd80      	pop	{r7, pc}
    2cc8:	00002f24 	andeq	r2, r0, r4, lsr #30
    2ccc:	00002f20 	andeq	r2, r0, r0, lsr #30
    2cd0:	44746e49 	ldrbtmi	r6, [r4], #-3657	; 0xfffff1b7
    2cd4:	75616665 	strbvc	r6, [r1, #-1637]!	; 0xfffff99b
    2cd8:	6148746c 	cmpvs	r8, ip, ror #8
    2cdc:	656c646e 	strbvs	r6, [ip, #-1134]!	; 0xfffffb92
    2ce0:	00000a72 	andeq	r0, r0, r2, ror sl

00002ce4 <UART0DR>:
    2ce4:	4000c000 	andmi	ip, r0, r0

00002ce8 <hex_asc_table>:
    2ce8:	33323130 	teqcc	r2, #48, 2
    2cec:	37363534 			; <UNDEFINED> instruction: 0x37363534
    2cf0:	62613938 	rsbvs	r3, r1, #56, 18	; 0xe0000
    2cf4:	66656463 	strbtvs	r6, [r5], -r3, ror #8

00002cf8 <upper_hex_asc_table>:
    2cf8:	33323130 	teqcc	r2, #48, 2
    2cfc:	37363534 			; <UNDEFINED> instruction: 0x37363534
    2d00:	42413938 	submi	r3, r1, #56, 18	; 0xe0000
    2d04:	46454443 	strbmi	r4, [r5], -r3, asr #8

00002d08 <hex_weight_value_table>:
    2d08:	00000001 	andeq	r0, r0, r1
    2d0c:	0000000a 	andeq	r0, r0, sl
    2d10:	00000064 	andeq	r0, r0, r4, rrx
    2d14:	000003e8 	andeq	r0, r0, r8, ror #7
    2d18:	00002710 	andeq	r2, r0, r0, lsl r7
    2d1c:	000186a0 	andeq	r8, r1, r0, lsr #13
    2d20:	000f4240 	andeq	r4, pc, r0, asr #4
    2d24:	00989680 	addseq	r9, r8, r0, lsl #13
    2d28:	05f5e100 	ldrbeq	lr, [r5, #256]!	; 0x100
    2d2c:	000a7325 	andeq	r7, sl, r5, lsr #6
    2d30:	6b736154 	blvs	1cdb288 <_etext+0x1cd835b>
    2d34:	666e6920 	strbtvs	r6, [lr], -r0, lsr #18
    2d38:	000a3a6f 	andeq	r3, sl, pc, ror #20
    2d3c:	616c6564 	cmnvs	ip, r4, ror #10
    2d40:	69745f79 	ldmdbvs	r4!, {r0, r3, r4, r5, r6, r8, r9, sl, fp, ip, lr}^
    2d44:	3a736b63 	bcc	1cddad8 <_etext+0x1cdabab>
    2d48:	000a6425 	andeq	r6, sl, r5, lsr #8
    2d4c:	6f697270 	svcvs	0x00697270
    2d50:	0a64253a 	beq	190c240 <_etext+0x1909313>
    2d54:	00000000 	andeq	r0, r0, r0
    2d58:	63696c73 	cmnvs	r9, #29440	; 0x7300
    2d5c:	64253a65 	strtvs	r3, [r5], #-2661	; 0xfffff59b
    2d60:	0000000a 	andeq	r0, r0, sl
    2d64:	70737573 	rsbsvc	r7, r3, r3, ror r5
    2d68:	5f646e65 	svcpl	0x00646e65
    2d6c:	3a746e63 	bcc	1d1e700 <_etext+0x1d1b7d3>
    2d70:	000a6425 	andeq	r6, sl, r5, lsr #8

00002d74 <__func__.1>:
    2d74:	6b736174 	blvs	1cdb34c <_etext+0x1cd841f>
    2d78:	696e695f 	stmdbvs	lr!, {r0, r1, r2, r3, r4, r6, r8, fp, sp, lr}^
    2d7c:	00000074 	andeq	r0, r0, r4, ror r0

00002d80 <__func__.0>:
    2d80:	6b736174 	blvs	1cdb358 <_etext+0x1cd842b>
    2d84:	6e75725f 	mrcvs	2, 3, r7, cr5, cr15, {2}
    2d88:	7269665f 	rsbvc	r6, r9, #99614720	; 0x5f00000
    2d8c:	00007473 	andeq	r7, r0, r3, ror r4

00002d90 <quick_table.0>:
    2d90:	000100ff 	strdeq	r0, [r1], -pc	; <UNPREDICTABLE>
    2d94:	00010002 	andeq	r0, r1, r2
    2d98:	00010003 	andeq	r0, r1, r3
    2d9c:	00010002 	andeq	r0, r1, r2
    2da0:	00010004 	andeq	r0, r1, r4
    2da4:	00010002 	andeq	r0, r1, r2
    2da8:	00010003 	andeq	r0, r1, r3
    2dac:	00010002 	andeq	r0, r1, r2
    2db0:	00010005 	andeq	r0, r1, r5
    2db4:	00010002 	andeq	r0, r1, r2
    2db8:	00010003 	andeq	r0, r1, r3
    2dbc:	00010002 	andeq	r0, r1, r2
    2dc0:	00010004 	andeq	r0, r1, r4
    2dc4:	00010002 	andeq	r0, r1, r2
    2dc8:	00010003 	andeq	r0, r1, r3
    2dcc:	00010002 	andeq	r0, r1, r2
    2dd0:	00010006 	andeq	r0, r1, r6
    2dd4:	00010002 	andeq	r0, r1, r2
    2dd8:	00010003 	andeq	r0, r1, r3
    2ddc:	00010002 	andeq	r0, r1, r2
    2de0:	00010004 	andeq	r0, r1, r4
    2de4:	00010002 	andeq	r0, r1, r2
    2de8:	00010003 	andeq	r0, r1, r3
    2dec:	00010002 	andeq	r0, r1, r2
    2df0:	00010005 	andeq	r0, r1, r5
    2df4:	00010002 	andeq	r0, r1, r2
    2df8:	00010003 	andeq	r0, r1, r3
    2dfc:	00010002 	andeq	r0, r1, r2
    2e00:	00010004 	andeq	r0, r1, r4
    2e04:	00010002 	andeq	r0, r1, r2
    2e08:	00010003 	andeq	r0, r1, r3
    2e0c:	00010002 	andeq	r0, r1, r2
    2e10:	00010007 	andeq	r0, r1, r7
    2e14:	00010002 	andeq	r0, r1, r2
    2e18:	00010003 	andeq	r0, r1, r3
    2e1c:	00010002 	andeq	r0, r1, r2
    2e20:	00010004 	andeq	r0, r1, r4
    2e24:	00010002 	andeq	r0, r1, r2
    2e28:	00010003 	andeq	r0, r1, r3
    2e2c:	00010002 	andeq	r0, r1, r2
    2e30:	00010005 	andeq	r0, r1, r5
    2e34:	00010002 	andeq	r0, r1, r2
    2e38:	00010003 	andeq	r0, r1, r3
    2e3c:	00010002 	andeq	r0, r1, r2
    2e40:	00010004 	andeq	r0, r1, r4
    2e44:	00010002 	andeq	r0, r1, r2
    2e48:	00010003 	andeq	r0, r1, r3
    2e4c:	00010002 	andeq	r0, r1, r2
    2e50:	00010006 	andeq	r0, r1, r6
    2e54:	00010002 	andeq	r0, r1, r2
    2e58:	00010003 	andeq	r0, r1, r3
    2e5c:	00010002 	andeq	r0, r1, r2
    2e60:	00010004 	andeq	r0, r1, r4
    2e64:	00010002 	andeq	r0, r1, r2
    2e68:	00010003 	andeq	r0, r1, r3
    2e6c:	00010002 	andeq	r0, r1, r2
    2e70:	00010005 	andeq	r0, r1, r5
    2e74:	00010002 	andeq	r0, r1, r2
    2e78:	00010003 	andeq	r0, r1, r3
    2e7c:	00010002 	andeq	r0, r1, r2
    2e80:	00010004 	andeq	r0, r1, r4
    2e84:	00010002 	andeq	r0, r1, r2
    2e88:	00010003 	andeq	r0, r1, r3
    2e8c:	00010002 	andeq	r0, r1, r2
    2e90:	0a3a7325 	beq	e9fb2c <_etext+0xe9cbff>
    2e94:	00000000 	andeq	r0, r0, r0
    2e98:	23232323 			; <UNDEFINED> instruction: 0x23232323
    2e9c:	23232323 			; <UNDEFINED> instruction: 0x23232323
    2ea0:	0000000a 	andeq	r0, r0, sl

00002ea4 <__func__.0>:
    2ea4:	6e657665 	cdpvs	6, 6, cr7, cr5, cr5, {3}
    2ea8:	65725f74 	ldrbvs	r5, [r2, #-3956]!	; 0xfffff08c
    2eac:	65766f6d 	ldrbvs	r6, [r6, #-3949]!	; 0xfffff093
    2eb0:	6c6c615f 	stfvse	f6, [ip], #-380	; 0xfffffe84
    2eb4:	00000000 	andeq	r0, r0, r0
    2eb8:	000a7325 	andeq	r7, sl, r5, lsr #6
    2ebc:	6c6c6548 	cfstr64vs	mvdx6, [ip], #-288	; 0xfffffee0
    2ec0:	5452206f 	ldrbpl	r2, [r2], #-111	; 0xffffff91
    2ec4:	4320534f 			; <UNDEFINED> instruction: 0x4320534f
    2ec8:	445f3330 	ldrbmi	r3, [pc], #-816	; 2ed0 <__func__.0+0x2c>
    2ecc:	79616c65 	stmdbvc	r1!, {r0, r2, r5, r6, sl, fp, sp, lr}^
    2ed0:	73694c5f 	cmnvc	r9, #24320	; 0x5f00
    2ed4:	00000a74 	andeq	r0, r0, r4, ror sl
    2ed8:	3a707370 	bcc	1c1fca0 <_etext+0x1c1cd73>
    2edc:	78257830 	stmdavc	r5!, {r4, r5, fp, ip, sp, lr}
    2ee0:	0000000a 	andeq	r0, r0, sl
    2ee4:	3a70736d 	bcc	1c1fca0 <_etext+0x1c1cd73>
    2ee8:	78257830 	stmdavc	r5!, {r4, r5, fp, ip, sp, lr}
    2eec:	0000000a 	andeq	r0, r0, sl

00002ef0 <__func__.3>:
    2ef0:	6b736174 	blvs	1cdb4c8 <_etext+0x1cd859b>
    2ef4:	6e655f31 	mcrvs	15, 3, r5, cr5, cr1, {1}
    2ef8:	00797274 	rsbseq	r7, r9, r4, ror r2

00002efc <__func__.2>:
    2efc:	6b736174 	blvs	1cdb4d4 <_etext+0x1cd85a7>
    2f00:	6e655f32 	mcrvs	15, 3, r5, cr5, cr2, {1}
    2f04:	00797274 	rsbseq	r7, r9, r4, ror r2

00002f08 <__func__.1>:
    2f08:	6b736174 	blvs	1cdb4e0 <_etext+0x1cd85b3>
    2f0c:	6e655f33 	mcrvs	15, 3, r5, cr5, cr3, {1}
    2f10:	00797274 	rsbseq	r7, r9, r4, ror r2

00002f14 <__func__.0>:
    2f14:	6b736174 	blvs	1cdb4ec <_etext+0x1cd85bf>
    2f18:	6e655f34 	mcrvs	15, 3, r5, cr5, cr4, {1}
    2f1c:	00797274 	rsbseq	r7, r9, r4, ror r2
    2f20:	000a7325 	andeq	r7, sl, r5, lsr #6

00002f24 <__func__.0>:
    2f24:	74736574 	ldrbtvc	r6, [r3], #-1396	; 0xfffffa8c
    2f28:	65736163 	ldrbvs	r6, [r3, #-355]!	; 0xfffffe9d
	...

Disassembly of section .bss:

20000000 <g_current_task>:
20000000:	00000000 	andeq	r0, r0, r0

20000004 <g_next_task>:
20000004:	00000000 	andeq	r0, r0, r0

20000008 <g_task_table>:
	...

20000188 <g_idle_task_obj>:
	...

200001d0 <g_idle_task>:
200001d0:	00000000 	andeq	r0, r0, r0

200001d4 <g_idle_task_stk>:
	...

200011d4 <g_sched_lock>:
200011d4:	00000000 	andeq	r0, r0, r0

200011d8 <g_task_prio_bitmap>:
200011d8:	00000000 	andeq	r0, r0, r0

200011dc <g_task_delay_list>:
	...

200011e8 <g_timer_hard_list>:
	...

200011f4 <g_timer_soft_list>:
	...

20001200 <g_timer_protect_sem>:
	...

20001218 <g_timer_tick_sem>:
	...

20001230 <g_timer_task>:
	...

20001278 <g_timer_task_stack>:
	...

20002278 <task1>:
	...

200022c0 <task2>:
	...

20002308 <task3>:
	...

20002350 <task4>:
	...

20002398 <task1_stk>:
	...

20003398 <task2_stk>:
	...

20004398 <task3_stk>:
	...

20005398 <task4_stk>:
	...

20006398 <flag_group>:
	...

Disassembly of section .debug_info:

00000000 <.debug_info>:
       0:	000000d2 	ldrdeq	r0, [r0], -r2
       4:	00000002 	andeq	r0, r0, r2
       8:	01040000 	mrseq	r0, (UNDEF: 4)
       c:	000000ad 	andeq	r0, r0, sp, lsr #1
      10:	00007001 	andeq	r7, r0, r1
      14:	00004000 	andeq	r4, r0, r0
      18:	00026c00 	andeq	r6, r2, r0, lsl #24
      1c:	00028800 	andeq	r8, r2, r0, lsl #16
      20:	00000000 	andeq	r0, r0, r0
      24:	06010200 	streq	r0, [r1], -r0, lsl #4
      28:	0000000f 	andeq	r0, r0, pc
      2c:	0d080102 	stfeqs	f0, [r8, #-8]
      30:	02000000 	andeq	r0, r0, #0
      34:	01330502 	teqeq	r3, r2, lsl #10
      38:	02020000 	andeq	r0, r2, #0
      3c:	00001b07 	andeq	r1, r0, r7, lsl #22
      40:	05040200 	streq	r0, [r4, #-512]	; 0xfffffe00
      44:	000000a4 	andeq	r0, r0, r4, lsr #1
      48:	8d070402 	cfstrshi	mvf0, [r7, #-8]
      4c:	02000000 	andeq	r0, r0, #0
      50:	009f0508 	addseq	r0, pc, r8, lsl #10
      54:	08020000 	stmdaeq	r2, {}	; <UNPREDICTABLE>
      58:	00008807 	andeq	r8, r0, r7, lsl #16
      5c:	05040300 	streq	r0, [r4, #-768]	; 0xfffffd00
      60:	00746e69 	rsbseq	r6, r4, r9, ror #28
      64:	92070402 	andls	r0, r7, #33554432	; 0x2000000
      68:	04000000 	streq	r0, [r0], #-0
      6c:	0000007b 	andeq	r0, r0, fp, ror r0
      70:	0000007b 	andeq	r0, r0, fp, ror r0
      74:	00006405 	andeq	r6, r0, r5, lsl #8
      78:	06009a00 	streq	r9, [r0], -r0, lsl #20
      7c:	00008104 	andeq	r8, r0, r4, lsl #2
      80:	08010700 	stmdaeq	r1, {r8, r9, sl}
      84:	00000000 	andeq	r0, r0, r0
      88:	6b301001 	blvs	c04094 <_etext+0xc01167>
      8c:	01000000 	mrseq	r0, (UNDEF: 0)
      90:	00000305 	andeq	r0, r0, r5, lsl #6
      94:	2e090000 	cdpcs	0, 0, cr0, cr9, cr0, {0}
      98:	01000000 	mrseq	r0, (UNDEF: 0)
      9c:	78010db7 	stmdavc	r1, {r0, r1, r2, r4, r5, r7, r8, sl, fp}
      a0:	88000002 	stmdahi	r0, {r1}
      a4:	00000002 	andeq	r0, r0, r2
      a8:	09000000 	stmdbeq	r0, {}	; <UNPREDICTABLE>
      ac:	00000067 	andeq	r0, r0, r7, rrx
      b0:	010db301 	tsteq	sp, r1, lsl #6
      b4:	00000272 	andeq	r0, r0, r2, ror r2
      b8:	00000278 	andeq	r0, r0, r8, ror r2
      bc:	0000002c 	andeq	r0, r0, ip, lsr #32
      c0:	00013d09 	andeq	r3, r1, r9, lsl #26
      c4:	0daf0100 	stfeqs	f0, [pc]	; cc <g_pfnVectors+0xcc>
      c8:	00026c01 	andeq	r6, r2, r1, lsl #24
      cc:	00027200 	andeq	r7, r2, r0, lsl #4
      d0:	00005800 	andeq	r5, r0, r0, lsl #16
      d4:	01720000 	cmneq	r2, r0
      d8:	00020000 	andeq	r0, r2, r0
      dc:	00000074 	andeq	r0, r0, r4, ror r0
      e0:	00ad0104 	adceq	r0, sp, r4, lsl #2
      e4:	69010000 	stmdbvs	r1, {}	; <UNPREDICTABLE>
      e8:	40000001 	andmi	r0, r0, r1
      ec:	88000000 	stmdahi	r0, {}	; <UNPREDICTABLE>
      f0:	fc000002 	stc2	0, cr0, [r0], {2}
      f4:	5c000002 	stcpl	0, cr0, [r0], {2}
      f8:	02000000 	andeq	r0, r0, #0
      fc:	000f0601 	andeq	r0, pc, r1, lsl #12
     100:	5f030000 	svcpl	0x00030000
     104:	02000001 	andeq	r0, r0, #1
     108:	0038182b 	eorseq	r1, r8, fp, lsr #16
     10c:	01020000 	mrseq	r0, (UNDEF: 2)
     110:	00000d08 	andeq	r0, r0, r8, lsl #26
     114:	05020200 	streq	r0, [r2, #-512]	; 0xfffffe00
     118:	00000133 	andeq	r0, r0, r3, lsr r1
     11c:	1b070202 	blne	1c092c <_etext+0x1bd9ff>
     120:	02000000 	andeq	r0, r0, #0
     124:	00a40504 	adceq	r0, r4, r4, lsl #10
     128:	4f030000 	svcmi	0x00030000
     12c:	02000001 	andeq	r0, r0, #1
     130:	0060194f 	rsbeq	r1, r0, pc, asr #18
     134:	04020000 	streq	r0, [r2], #-0
     138:	00008d07 	andeq	r8, r0, r7, lsl #26
     13c:	05080200 	streq	r0, [r8, #-512]	; 0xfffffe00
     140:	0000009f 	muleq	r0, pc, r0	; <UNPREDICTABLE>
     144:	88070802 	stmdahi	r7, {r1, fp}
     148:	04000000 	streq	r0, [r0], #-0
     14c:	6e690504 	cdpvs	5, 6, cr0, cr9, cr4, {0}
     150:	04020074 	streq	r0, [r2], #-116	; 0xffffff8c
     154:	00009207 	andeq	r9, r0, r7, lsl #4
     158:	01610300 	cmneq	r1, r0, lsl #6
     15c:	18030000 	stmdane	r3, {}	; <UNPREDICTABLE>
     160:	00002c13 	andeq	r2, r0, r3, lsl ip
     164:	01510300 	cmpeq	r1, r0, lsl #6
     168:	30030000 	andcc	r0, r3, r0
     16c:	00005414 	andeq	r5, r0, r4, lsl r4
     170:	008f0500 	addeq	r0, pc, r0, lsl #10
     174:	43060000 	movwmi	r0, #24576	; 0x6000
     178:	10000001 	andne	r0, r0, r1
     17c:	ea101304 	b	404d94 <_etext+0x401e67>
     180:	07000000 	streq	r0, [r0, -r0]
     184:	000001a8 	andeq	r0, r0, r8, lsr #3
     188:	9b171404 	blls	5c51a0 <_etext+0x5c2273>
     18c:	02000000 	andeq	r0, r0, #0
     190:	5a070023 	bpl	1c0224 <_etext+0x1bd2f7>
     194:	04000001 	streq	r0, [r0], #-1
     198:	009b1715 	addseq	r1, fp, r5, lsl r7
     19c:	23020000 	movwcs	r0, #8192	; 0x2000
     1a0:	61760804 	cmnvs	r6, r4, lsl #16
     1a4:	1604006c 	strne	r0, [r4], -ip, rrx
     1a8:	00009b17 	andeq	r9, r0, r7, lsl fp
     1ac:	08230200 	stmdaeq	r3!, {r9}
     1b0:	0001a207 	andeq	sl, r1, r7, lsl #4
     1b4:	17170400 	ldrne	r0, [r7, -r0, lsl #8]
     1b8:	0000009b 	muleq	r0, fp, r0
     1bc:	000c2302 	andeq	r2, ip, r2, lsl #6
     1c0:	0001c703 	andeq	ip, r1, r3, lsl #14
     1c4:	02180400 	andseq	r0, r8, #0, 8
     1c8:	000000a0 	andeq	r0, r0, r0, lsr #1
     1cc:	01b70109 			; <UNDEFINED> instruction: 0x01b70109
     1d0:	15010000 	strne	r0, [r1, #-0]
     1d4:	02d80106 	sbcseq	r0, r8, #-2147483647	; 0x80000001
     1d8:	02fc0000 	rscseq	r0, ip, #0
     1dc:	00840000 	addeq	r0, r4, r0
     1e0:	01090000 	mrseq	r0, (UNDEF: 9)
     1e4:	00000187 	andeq	r0, r0, r7, lsl #3
     1e8:	01060f01 	tsteq	r6, r1, lsl #30
     1ec:	000002cc 	andeq	r0, r0, ip, asr #5
     1f0:	000002d8 	ldrdeq	r0, [r0], -r8
     1f4:	000000c8 	andeq	r0, r0, r8, asr #1
     1f8:	017a010a 	cmneq	sl, sl, lsl #2
     1fc:	05010000 	streq	r0, [r1, #-0]
     200:	02880106 	addeq	r0, r8, #-2147483647	; 0x80000001
     204:	02cc0000 	sbceq	r0, ip, #0
     208:	00f40000 	rscseq	r0, r4, r0
     20c:	01690000 	cmneq	r9, r0
     210:	6d0b0000 	stcvs	0, cr0, [fp, #-0]
     214:	05010073 	streq	r0, [r1, #-115]	; 0xffffff8d
     218:	00008f1c 	andeq	r8, r0, ip, lsl pc
     21c:	6c910200 	lfmvs	f0, 4, [r1], {0}
     220:	0001ad0c 	andeq	sl, r1, ip, lsl #26
     224:	10070100 	andne	r0, r7, r0, lsl #2
     228:	00000169 	andeq	r0, r0, r9, ror #2
     22c:	0c749102 	ldfeqp	f1, [r4], #-8
     230:	00000197 	muleq	r0, r7, r1
     234:	6f0e0801 	svcvs	0x000e0801
     238:	02000001 	andeq	r0, r0, #1
     23c:	0d007091 	stceq	0, cr7, [r0, #-580]	; 0xfffffdbc
     240:	0000ea04 	andeq	lr, r0, r4, lsl #20
     244:	83040d00 	movwhi	r0, #19712	; 0x4d00
     248:	00000000 	andeq	r0, r0, r0
     24c:	00000827 	andeq	r0, r0, r7, lsr #16
     250:	01420002 	cmpeq	r2, r2
     254:	01040000 	mrseq	r0, (UNDEF: 4)
     258:	000000ad 	andeq	r0, r0, sp, lsr #1
     25c:	0002be01 	andeq	fp, r2, r1, lsl #28
     260:	00004000 	andeq	r4, r0, r0
     264:	0002fc00 	andeq	pc, r2, r0, lsl #24
     268:	000c5c00 	andeq	r5, ip, r0, lsl #24
     26c:	0001d000 	andeq	sp, r1, r0
     270:	02e20200 	rsceq	r0, r2, #0, 4
     274:	28020000 	stmdacs	r2, {}	; <UNPREDICTABLE>
     278:	0000311b 	andeq	r3, r0, fp, lsl r1
     27c:	02170300 	andseq	r0, r7, #0, 6
     280:	05040000 	streq	r0, [r4, #-0]
     284:	00004b00 	andeq	r4, r0, r0, lsl #22
     288:	02870400 	addeq	r0, r7, #0, 8
     28c:	004b0000 	subeq	r0, fp, r0
     290:	23020000 	movwcs	r0, #8192	; 0x2000
     294:	05000100 	streq	r0, [r0, #-256]	; 0xffffff00
     298:	02190204 	andseq	r0, r9, #4, 4	; 0x40000000
     29c:	63020000 	movwvs	r0, #8192	; 0x2000
     2a0:	00002518 	andeq	r2, r0, r8, lsl r5
     2a4:	06010600 	streq	r0, [r1], -r0, lsl #12
     2a8:	0000000f 	andeq	r0, r0, pc
     2ac:	00015f02 	andeq	r5, r1, r2, lsl #30
     2b0:	182b0300 	stmdane	fp!, {r8, r9}
     2b4:	0000006c 	andeq	r0, r0, ip, rrx
     2b8:	0d080106 	stfeqs	f0, [r8, #-24]	; 0xffffffe8
     2bc:	06000000 	streq	r0, [r0], -r0
     2c0:	01330502 	teqeq	r3, r2, lsl #10
     2c4:	02060000 	andeq	r0, r6, #0
     2c8:	00001b07 	andeq	r1, r0, r7, lsl #22
     2cc:	05040600 	streq	r0, [r4, #-1536]	; 0xfffffa00
     2d0:	000000a4 	andeq	r0, r0, r4, lsr #1
     2d4:	00014f02 	andeq	r4, r1, r2, lsl #30
     2d8:	194f0300 	stmdbne	pc, {r8, r9}^	; <UNPREDICTABLE>
     2dc:	00000094 	muleq	r0, r4, r0
     2e0:	8d070406 	cfstrshi	mvf0, [r7, #-24]	; 0xffffffe8
     2e4:	06000000 	streq	r0, [r0], -r0
     2e8:	009f0508 	addseq	r0, pc, r8, lsl #10
     2ec:	08060000 	stmdaeq	r6, {}	; <UNPREDICTABLE>
     2f0:	00008807 	andeq	r8, r0, r7, lsl #16
     2f4:	05040700 	streq	r0, [r4, #-1792]	; 0xfffff900
     2f8:	00746e69 	rsbseq	r6, r4, r9, ror #28
     2fc:	92070406 	andls	r0, r7, #100663296	; 0x6000000
     300:	02000000 	andeq	r0, r0, #0
     304:	00000161 	andeq	r0, r0, r1, ror #2
     308:	60131804 	andsvs	r1, r3, r4, lsl #16
     30c:	02000000 	andeq	r0, r0, #0
     310:	00000151 	andeq	r0, r0, r1, asr r1
     314:	88143004 	ldmdahi	r4, {r2, ip, sp}
     318:	08000000 	stmdaeq	r0, {}	; <UNPREDICTABLE>
     31c:	000000c3 	andeq	r0, r0, r3, asr #1
     320:	0000c309 	andeq	ip, r0, r9, lsl #6
     324:	01e60a00 	mvneq	r0, r0, lsl #20
     328:	04010000 	streq	r0, [r1], #-0
     32c:	0000f21b 	andeq	pc, r0, fp, lsl r2	; <UNPREDICTABLE>
     330:	03050100 	movweq	r0, #20736	; 0x5100
     334:	00002ce4 	andeq	r2, r0, r4, ror #25
     338:	00cf040b 	sbceq	r0, pc, fp, lsl #8
     33c:	ec090000 	stc	0, cr0, [r9], {-0}
     340:	0c000000 	stceq	0, cr0, [r0], {-0}
     344:	00000113 	andeq	r0, r0, r3, lsl r1
     348:	00000107 	andeq	r0, r0, r7, lsl #2
     34c:	0000b00d 	andeq	fp, r0, sp
     350:	09000f00 	stmdbeq	r0, {r8, r9, sl, fp}
     354:	000000f7 	strdeq	r0, [r0], -r7
     358:	16080106 	strne	r0, [r8], -r6, lsl #2
     35c:	09000000 	stmdbeq	r0, {}	; <UNPREDICTABLE>
     360:	0000010c 	andeq	r0, r0, ip, lsl #2
     364:	0002350a 	andeq	r3, r2, sl, lsl #10
     368:	0c0c0100 	stfeqs	f0, [ip], {-0}
     36c:	00000107 	andeq	r0, r0, r7, lsl #2
     370:	e8030501 	stmda	r3, {r0, r8, sl}
     374:	0a00002c 	beq	42c <printf_str+0x22>
     378:	0000022f 	andeq	r0, r0, pc, lsr #4
     37c:	070c0e01 	streq	r0, [ip, -r1, lsl #28]
     380:	01000001 	tsteq	r0, r1
     384:	2cf80305 	ldclcs	3, cr0, [r8], #20
     388:	d40c0000 	strle	r0, [ip], #-0
     38c:	4e000000 	cdpmi	0, 0, cr0, cr0, cr0, {0}
     390:	0d000001 	stceq	0, cr0, [r0, #-4]
     394:	000000b0 	strheq	r0, [r0], -r0	; <UNPREDICTABLE>
     398:	3e090008 	cdpcc	0, 0, cr0, cr9, cr8, {0}
     39c:	0a000001 	beq	3a8 <is_hex_asc+0x16>
     3a0:	00000268 	andeq	r0, r0, r8, ror #4
     3a4:	4e107901 	vnmlsmi.f16	s14, s0, s2	; <UNPREDICTABLE>
     3a8:	01000001 	tsteq	r0, r1
     3ac:	2d080305 	stccs	3, cr0, [r8, #-20]	; 0xffffffec
     3b0:	010e0000 	mrseq	r0, (UNDEF: 14)
     3b4:	00000293 	muleq	r0, r3, r2
     3b8:	05017e01 	streq	r7, [r1, #-3585]	; 0xfffff1ff
     3bc:	0000a901 	andeq	sl, r0, r1, lsl #18
     3c0:	000c1a00 	andeq	r1, ip, r0, lsl #20
     3c4:	000c5c00 	andeq	r5, ip, r0, lsl #24
     3c8:	00015000 	andeq	r5, r1, r0
     3cc:	0001c600 	andeq	ip, r1, r0, lsl #12
     3d0:	73640f00 	cmnvc	r4, #0, 30
     3d4:	7e010074 	mcrvc	0, 0, r0, cr1, cr4, {3}
     3d8:	01c61201 	biceq	r1, r6, r1, lsl #4
     3dc:	91020000 	mrsls	r0, (UNDEF: 2)
     3e0:	72730f6c 	rsbsvc	r0, r3, #108, 30	; 0x1b0
     3e4:	7e010063 	cdpvc	0, 0, cr0, cr1, cr3, {3}
     3e8:	01c61d01 	biceq	r1, r6, r1, lsl #26
     3ec:	91020000 	mrsls	r0, (UNDEF: 2)
     3f0:	025c1068 	subseq	r1, ip, #104	; 0x68
     3f4:	80010000 	andhi	r0, r1, r0
     3f8:	01c60b01 	biceq	r0, r6, r1, lsl #22
     3fc:	91020000 	mrsls	r0, (UNDEF: 2)
     400:	024e1074 	subeq	r1, lr, #116	; 0x74
     404:	80010000 	andhi	r0, r1, r0
     408:	01c61901 	biceq	r1, r6, r1, lsl #18
     40c:	91020000 	mrsls	r0, (UNDEF: 2)
     410:	040b0070 	streq	r0, [fp], #-112	; 0xffffff90
     414:	0000010c 	andeq	r0, r0, ip, lsl #2
     418:	028c010e 	addeq	r0, ip, #-2147483645	; 0x80000003
     41c:	75010000 	strvc	r0, [r1, #-0]
     420:	c3010a01 	movwgt	r0, #6657	; 0x1a01
     424:	f0000000 			; <UNDEFINED> instruction: 0xf0000000
     428:	1a00000b 	bne	45c <printf_hex+0x20>
     42c:	ac00000c 	stcge	0, cr0, [r0], {12}
     430:	0a000001 	beq	43c <printf_hex>
     434:	0f000002 	svceq	0x00000002
     438:	00727473 	rsbseq	r7, r2, r3, ror r4
     43c:	17017501 	strne	r7, [r1, -r1, lsl #10]
     440:	000001c6 	andeq	r0, r0, r6, asr #3
     444:	116c9102 	cmnne	ip, r2, lsl #2
     448:	77010070 	smlsdxvc	r1, r0, r0, r0
     44c:	01c60b01 	biceq	r0, r6, r1, lsl #22
     450:	91020000 	mrsls	r0, (UNDEF: 2)
     454:	010e0074 	tsteq	lr, r4, ror r0
     458:	00000228 	andeq	r0, r0, r8, lsr #4
     45c:	05016701 	streq	r6, [r1, #-1793]	; 0xfffff8ff
     460:	0000a901 	andeq	sl, r0, r1, lsl #18
     464:	000baa00 	andeq	sl, fp, r0, lsl #20
     468:	000bf000 	andeq	pc, fp, r0
     46c:	00020800 	andeq	r0, r2, r0, lsl #16
     470:	00026800 	andeq	r6, r2, r0, lsl #16
     474:	74730f00 	ldrbtvc	r0, [r3], #-3840	; 0xfffff100
     478:	67010072 	smlsdxvs	r1, r2, r0, r0
     47c:	01c61201 	biceq	r1, r6, r1, lsl #4
     480:	91020000 	mrsls	r0, (UNDEF: 2)
     484:	61760f6c 	cmnvs	r6, ip, ror #30
     488:	6701006c 	strvs	r0, [r1, -ip, rrx]
     48c:	02681c01 	rsbeq	r1, r8, #256	; 0x100
     490:	91020000 	mrsls	r0, (UNDEF: 2)
     494:	00701168 	rsbseq	r1, r0, r8, ror #2
     498:	0b016901 	bleq	5a8a4 <_etext+0x57977>
     49c:	000001c6 	andeq	r0, r0, r6, asr #3
     4a0:	11749102 	cmnne	r4, r2, lsl #2
     4a4:	00746572 	rsbseq	r6, r4, r2, ror r5
     4a8:	09016a01 	stmdbeq	r1, {r0, r9, fp, sp, lr}
     4ac:	000000a9 	andeq	r0, r0, r9, lsr #1
     4b0:	00709102 	rsbseq	r9, r0, r2, lsl #2
     4b4:	00a9040b 	adceq	r0, r9, fp, lsl #8
     4b8:	010e0000 	mrseq	r0, (UNDEF: 14)
     4bc:	00000254 	andeq	r0, r0, r4, asr r2
     4c0:	05013e01 	streq	r3, [r1, #-3585]	; 0xfffff1ff
     4c4:	0000a901 	andeq	sl, r0, r1, lsl #18
     4c8:	000ac400 	andeq	ip, sl, r0, lsl #8
     4cc:	000baa00 	andeq	sl, fp, r0, lsl #20
     4d0:	00025800 	andeq	r5, r2, r0, lsl #16
     4d4:	0002ec00 	andeq	lr, r2, r0, lsl #24
     4d8:	74730f00 	ldrbtvc	r0, [r3], #-3840	; 0xfffff100
     4dc:	3e010072 	mcrcc	0, 0, r0, cr1, cr2, {3}
     4e0:	01c61301 	biceq	r1, r6, r1, lsl #6
     4e4:	91020000 	mrsls	r0, (UNDEF: 2)
     4e8:	61760f64 	cmnvs	r6, r4, ror #30
     4ec:	3e01006c 	cdpcc	0, 0, cr0, cr1, cr12, {3}
     4f0:	02ec2201 	rsceq	r2, ip, #268435456	; 0x10000000
     4f4:	91020000 	mrsls	r0, (UNDEF: 2)
     4f8:	00701160 	rsbseq	r1, r0, r0, ror #2
     4fc:	0b014001 	bleq	50508 <_etext+0x4d5db>
     500:	000001c6 	andeq	r0, r0, r6, asr #3
     504:	10749102 	rsbsne	r9, r4, r2, lsl #2
     508:	000001db 	ldrdeq	r0, [r0], -fp
     50c:	0e014101 	adfeqs	f4, f1, f1
     510:	000000c3 	andeq	r0, r0, r3, asr #1
     514:	10709102 	rsbsne	r9, r0, r2, lsl #2
     518:	000003fb 	strdeq	r0, [r0], -fp
     51c:	0e014201 	cdpeq	2, 0, cr4, cr1, cr1, {0}
     520:	000000c3 	andeq	r0, r0, r3, asr #1
     524:	116c9102 	cmnne	ip, r2, lsl #2
     528:	006d756e 	rsbeq	r7, sp, lr, ror #10
     52c:	1a014201 	bne	50d38 <_etext+0x4de0b>
     530:	000000c3 	andeq	r0, r0, r3, asr #1
     534:	00689102 	rsbeq	r9, r8, r2, lsl #2
     538:	00c3040b 	sbceq	r0, r3, fp, lsl #8
     53c:	010e0000 	mrseq	r0, (UNDEF: 14)
     540:	000002f8 	strdeq	r0, [r0], -r8
     544:	05012d01 	streq	r2, [r1, #-3329]	; 0xfffff2ff
     548:	0000a901 	andeq	sl, r0, r1, lsl #18
     54c:	000a6200 	andeq	r6, sl, r0, lsl #4
     550:	000ac400 	andeq	ip, sl, r0, lsl #8
     554:	0002a800 	andeq	sl, r2, r0, lsl #16
     558:	00036d00 	andeq	r6, r3, r0, lsl #26
     55c:	01d11200 	bicseq	r1, r1, r0, lsl #4
     560:	2d010000 	stccs	0, cr0, [r1, #-0]
     564:	01c61301 	biceq	r1, r6, r1, lsl #6
     568:	91020000 	mrsls	r0, (UNDEF: 2)
     56c:	01d61264 	bicseq	r1, r6, r4, ror #4
     570:	2d010000 	stccs	0, cr0, [r1, #-0]
     574:	01c61f01 	biceq	r1, r6, r1, lsl #30
     578:	91020000 	mrsls	r0, (UNDEF: 2)
     57c:	7a730f60 	bvc	1cc4304 <_etext+0x1cc13d7>
     580:	012d0100 			; <UNDEFINED> instruction: 0x012d0100
     584:	0000c32e 	andeq	ip, r0, lr, lsr #6
     588:	5c910200 	lfmpl	f0, 4, [r1], {0}
     58c:	00317011 	eorseq	r7, r1, r1, lsl r0
     590:	0b012f01 	bleq	4c19c <_etext+0x4926f>
     594:	000001c6 	andeq	r0, r0, r6, asr #3
     598:	11749102 	cmnne	r4, r2, lsl #2
     59c:	01003270 	tsteq	r0, r0, ror r2
     5a0:	c617012f 	ldrgt	r0, [r7], -pc, lsr #2
     5a4:	02000001 	andeq	r0, r0, #1
     5a8:	69117091 	ldmdbvs	r1, {r0, r4, r7, ip, sp, lr}
     5ac:	01300100 	teqeq	r0, r0, lsl #2
     5b0:	0000a909 	andeq	sl, r0, r9, lsl #18
     5b4:	6c910200 	lfmvs	f0, 4, [r1], {0}
     5b8:	db010e00 	blle	43dc0 <_etext+0x40e93>
     5bc:	01000002 	tsteq	r0, r2
     5c0:	01050121 	tsteq	r5, r1, lsr #2
     5c4:	000000a9 	andeq	r0, r0, r9, lsr #1
     5c8:	00000a10 	andeq	r0, r0, r0, lsl sl
     5cc:	00000a62 	andeq	r0, r0, r2, ror #20
     5d0:	00000304 	andeq	r0, r0, r4, lsl #6
     5d4:	000003cb 	andeq	r0, r0, fp, asr #7
     5d8:	0001d112 	andeq	sp, r1, r2, lsl r1
     5dc:	01210100 			; <UNDEFINED> instruction: 0x01210100
     5e0:	0001c612 	andeq	ip, r1, r2, lsl r6
     5e4:	6c910200 	lfmvs	f0, 4, [r1], {0}
     5e8:	0001d612 	andeq	sp, r1, r2, lsl r6
     5ec:	01210100 			; <UNDEFINED> instruction: 0x01210100
     5f0:	0001c61e 	andeq	ip, r1, lr, lsl r6
     5f4:	68910200 	ldmvs	r1, {r9}
     5f8:	00317011 	eorseq	r7, r1, r1, lsl r0
     5fc:	0b012301 	bleq	49208 <_etext+0x462db>
     600:	000001c6 	andeq	r0, r0, r6, asr #3
     604:	11749102 	cmnne	r4, r2, lsl #2
     608:	01003270 	tsteq	r0, r0, ror r2
     60c:	c6170123 	ldrgt	r0, [r7], -r3, lsr #2
     610:	02000001 	andeq	r0, r0, #1
     614:	0e007091 	mcreq	0, 0, r7, cr0, cr1, {4}
     618:	00020601 	andeq	r0, r2, r1, lsl #12
     61c:	010e0100 	mrseq	r0, (UNDEF: 30)
     620:	00a90105 	adceq	r0, r9, r5, lsl #2
     624:	09b00000 	ldmibeq	r0!, {}	; <UNPREDICTABLE>
     628:	0a100000 	beq	400630 <_etext+0x3fd703>
     62c:	03600000 	cmneq	r0, #0
     630:	04480000 	strbeq	r0, [r8], #-0
     634:	a8120000 	ldmdage	r2, {}	; <UNPREDICTABLE>
     638:	01000002 	tsteq	r0, r2
     63c:	4b12010e 	blmi	480a7c <_etext+0x47db4f>
     640:	02000000 	andeq	r0, r0, #0
     644:	af126491 	svcge	0x00126491
     648:	01000002 	tsteq	r0, r2
     64c:	4b1e010e 	blmi	780a8c <_etext+0x77db5f>
     650:	02000000 	andeq	r0, r0, #0
     654:	730f6091 	movwvc	r6, #61585	; 0xf091
     658:	0e01007a 	mcreq	0, 0, r0, cr1, cr10, {3}
     65c:	00c32d01 	sbceq	r2, r3, r1, lsl #26
     660:	91020000 	mrsls	r0, (UNDEF: 2)
     664:	02a6105c 	adceq	r1, r6, #92	; 0x5c
     668:	10010000 	andne	r0, r1, r0
     66c:	04480e01 	strbeq	r0, [r8], #-3585	; 0xfffff1ff
     670:	91020000 	mrsls	r0, (UNDEF: 2)
     674:	02ad1074 	adceq	r1, sp, #116	; 0x74
     678:	11010000 	mrsne	r0, (UNDEF: 1)
     67c:	04480e01 	strbeq	r0, [r8], #-3585	; 0xfffff1ff
     680:	91020000 	mrsls	r0, (UNDEF: 2)
     684:	00691170 	rsbeq	r1, r9, r0, ror r1
     688:	09011201 	stmdbeq	r1, {r0, r9, ip}
     68c:	000000a9 	andeq	r0, r0, r9, lsr #1
     690:	006c9102 	rsbeq	r9, ip, r2, lsl #2
     694:	00b7040b 	adcseq	r0, r7, fp, lsl #8
     698:	010e0000 	mrseq	r0, (UNDEF: 14)
     69c:	000001ee 	andeq	r0, r0, lr, ror #3
     6a0:	05010301 	streq	r0, [r1, #-769]	; 0xfffffcff
     6a4:	0000a901 	andeq	sl, r0, r1, lsl #18
     6a8:	00096800 	andeq	r6, r9, r0, lsl #16
     6ac:	0009b000 	andeq	fp, r9, r0
     6b0:	0003bc00 	andeq	fp, r3, r0, lsl #24
     6b4:	0004cb00 	andeq	ip, r4, r0, lsl #22
     6b8:	73640f00 	cmnvc	r4, #0, 30
     6bc:	03010074 	movweq	r0, #4212	; 0x1074
     6c0:	004b1201 	subeq	r1, fp, r1, lsl #4
     6c4:	91020000 	mrsls	r0, (UNDEF: 2)
     6c8:	72730f64 	rsbsvc	r0, r3, #100, 30	; 0x190
     6cc:	03010063 	movweq	r0, #4195	; 0x1063
     6d0:	04cb2301 	strbeq	r2, [fp], #769	; 0x301
     6d4:	91020000 	mrsls	r0, (UNDEF: 2)
     6d8:	7a730f60 	bvc	1cc4460 <_etext+0x1cc1533>
     6dc:	01030100 	mrseq	r0, (UNDEF: 19)
     6e0:	0000c331 	andeq	ip, r0, r1, lsr r3
     6e4:	5c910200 	lfmpl	f0, 4, [r1], {0}
     6e8:	00025c10 	andeq	r5, r2, r0, lsl ip
     6ec:	01050100 	mrseq	r0, (UNDEF: 21)
     6f0:	0004480e 	andeq	r4, r4, lr, lsl #16
     6f4:	74910200 	ldrvc	r0, [r1], #512	; 0x200
     6f8:	00024e10 	andeq	r4, r2, r0, lsl lr
     6fc:	01060100 	mrseq	r0, (UNDEF: 22)
     700:	0004480e 	andeq	r4, r4, lr, lsl #16
     704:	70910200 	addsvc	r0, r1, r0, lsl #4
     708:	01006911 	tsteq	r0, r1, lsl r9
     70c:	a9090107 	stmdbge	r9, {r0, r1, r2, r8}
     710:	02000000 	andeq	r0, r0, #0
     714:	0b006c91 	bleq	1b960 <_etext+0x18a33>
     718:	0004d104 	andeq	sp, r4, r4, lsl #2
     71c:	01141300 	tsteq	r4, r0, lsl #6
     720:	00000221 	andeq	r0, r0, r1, lsr #4
     724:	0105f901 	tsteq	r5, r1, lsl #18	; <UNPREDICTABLE>
     728:	000000a9 	andeq	r0, r0, r9, lsr #1
     72c:	00000928 	andeq	r0, r0, r8, lsr #18
     730:	00000968 	andeq	r0, r0, r8, ror #18
     734:	00000418 	andeq	r0, r0, r8, lsl r4
     738:	00000537 	andeq	r0, r0, r7, lsr r5
     73c:	6d656d15 	stclvs	13, cr6, [r5, #-84]!	; 0xffffffac
     740:	12f90100 	rscsne	r0, r9, #0, 2
     744:	0000004b 	andeq	r0, r0, fp, asr #32
     748:	156c9102 	strbne	r9, [ip, #-258]!	; 0xfffffefe
     74c:	006c6176 	rsbeq	r6, ip, r6, ror r1
     750:	b71ff901 	ldrlt	pc, [pc, -r1, lsl #18]
     754:	02000000 	andeq	r0, r0, #0
     758:	73156b91 	tstvc	r5, #148480	; 0x24400
     75c:	f901007a 			; <UNDEFINED> instruction: 0xf901007a
     760:	0000c32d 	andeq	ip, r0, sp, lsr #6
     764:	64910200 	ldrvs	r0, [r1], #512	; 0x200
     768:	01007016 	tsteq	r0, r6, lsl r0
     76c:	04480efb 	strbeq	r0, [r8], #-3835	; 0xfffff105
     770:	91020000 	mrsls	r0, (UNDEF: 2)
     774:	00691674 	rsbeq	r1, r9, r4, ror r6
     778:	a909fc01 	stmdbge	r9, {r0, sl, fp, ip, sp, lr, pc}
     77c:	02000000 	andeq	r0, r0, #0
     780:	17007091 			; <UNDEFINED> instruction: 0x17007091
     784:	00021001 	andeq	r1, r2, r1
     788:	06c50100 	strbeq	r0, [r5], r0, lsl #2
     78c:	0007a401 	andeq	sl, r7, r1, lsl #8
     790:	00092800 	andeq	r2, r9, r0, lsl #16
     794:	00047400 	andeq	r7, r4, r0, lsl #8
     798:	00058d00 	andeq	r8, r5, r0, lsl #26
     79c:	6d661500 	cfstr64vs	mvdx1, [r6, #-0]
     7a0:	c5010074 	strgt	r0, [r1, #-116]	; 0xffffff8c
     7a4:	00058d19 	andeq	r8, r5, r9, lsl sp
     7a8:	70910200 	addsvc	r0, r1, r0, lsl #4
     7ac:	00631618 	rsbeq	r1, r3, r8, lsl r6
     7b0:	0c0ac701 	stceq	7, cr12, [sl], {1}
     7b4:	02000001 	andeq	r0, r0, #1
     7b8:	00196391 	mulseq	r9, r1, r3
     7bc:	01000002 	tsteq	r0, r2
     7c0:	00c30ec8 	sbceq	r0, r3, r8, asr #29
     7c4:	91020000 	mrsls	r0, (UNDEF: 2)
     7c8:	02d41964 	sbcseq	r1, r4, #100, 18	; 0x190000
     7cc:	c9010000 	stmdbgt	r1, {}	; <UNPREDICTABLE>
     7d0:	00004d0d 	andeq	r4, r0, sp, lsl #26
     7d4:	5c910200 	lfmpl	f0, 4, [r1], {0}
     7d8:	13040b00 	movwne	r0, #19200	; 0x4b00
     7dc:	17000001 	strne	r0, [r0, -r1]
     7e0:	00020d01 	andeq	r0, r2, r1, lsl #26
     7e4:	06c00100 	strbeq	r0, [r0], r0, lsl #2
     7e8:	00079401 	andeq	r9, r7, r1, lsl #8
     7ec:	0007a400 	andeq	sl, r7, r0, lsl #8
     7f0:	0004e800 	andeq	lr, r4, r0, lsl #16
     7f4:	0005be00 	andeq	fp, r5, r0, lsl #28
     7f8:	6d661500 	cfstr64vs	mvdx1, [r6, #-0]
     7fc:	c0010074 	andgt	r0, r1, r4, ror r0
     800:	00058d1c 	andeq	r8, r5, ip, lsl sp
     804:	70910200 	addsvc	r0, r1, r0, lsl #4
     808:	01140018 	tsteq	r4, r8, lsl r0
     80c:	0000030b 	andeq	r0, r0, fp, lsl #6
     810:	01057c01 	tsteq	r5, r1, lsl #24
     814:	000000a9 	andeq	r0, r0, r9, lsr #1
     818:	00000524 	andeq	r0, r0, r4, lsr #10
     81c:	00000794 	muleq	r0, r4, r7
     820:	00000544 	andeq	r0, r0, r4, asr #10
     824:	00000626 	andeq	r0, r0, r6, lsr #12
     828:	6c617615 	stclvs	6, cr7, [r1], #-84	; 0xffffffac
     82c:	197c0100 	ldmdbne	ip!, {r8}^
     830:	000000c3 	andeq	r0, r0, r3, asr #1
     834:	16649102 	strbtne	r9, [r4], -r2, lsl #2
     838:	7e010069 	cdpvc	0, 0, cr0, cr1, cr9, {3}
     83c:	0000c30e 	andeq	ip, r0, lr, lsl #6
     840:	74910200 	ldrvc	r0, [r1], #512	; 0x200
     844:	706d7416 	rsbvc	r7, sp, r6, lsl r4
     848:	0e7f0100 	rpweqe	f0, f7, f0
     84c:	000000c3 	andeq	r0, r0, r3, asr #1
     850:	19709102 	ldmdbne	r0!, {r1, r8, ip, pc}^
     854:	00000262 	andeq	r0, r0, r2, ror #4
     858:	c3177f01 	tstgt	r7, #1, 30
     85c:	02000000 	andeq	r0, r0, #0
     860:	61166c91 			; <UNDEFINED> instruction: 0x61166c91
     864:	01006373 	tsteq	r0, r3, ror r3
     868:	010c0a80 	smlabbeq	ip, r0, sl, r0
     86c:	91020000 	mrsls	r0, (UNDEF: 2)
     870:	0114006b 	tsteq	r4, fp, rrx
     874:	00000321 	andeq	r0, r0, r1, lsr #6
     878:	01055101 	tsteq	r5, r1, lsl #2
     87c:	000000a9 	andeq	r0, r0, r9, lsr #1
     880:	000004b0 			; <UNDEFINED> instruction: 0x000004b0
     884:	00000524 	andeq	r0, r0, r4, lsr #10
     888:	00000594 	muleq	r0, r4, r5
     88c:	0000068e 	andeq	r0, r0, lr, lsl #13
     890:	6c617615 	stclvs	6, cr7, [r1], #-84	; 0xffffffac
     894:	1f510100 	svcne	0x00510100
     898:	000000c3 	andeq	r0, r0, r3, asr #1
     89c:	1a6c9102 	bne	1b24cac <_etext+0x1b21d7f>
     8a0:	00000200 	andeq	r0, r0, r0, lsl #4
     8a4:	c32d5101 			; <UNDEFINED> instruction: 0xc32d5101
     8a8:	02000000 	andeq	r0, r0, #0
     8ac:	69166891 	ldmdbvs	r6, {r0, r4, r7, fp, sp, lr}
     8b0:	09530100 	ldmdbeq	r3, {r8}^
     8b4:	000000a9 	andeq	r0, r0, r9, lsr #1
     8b8:	19749102 	ldmdbne	r4!, {r1, r8, ip, pc}^
     8bc:	0000027f 	andeq	r0, r0, pc, ror r2
     8c0:	0c0a5401 	cfstrseq	mvf5, [sl], {1}
     8c4:	02000001 	andeq	r0, r0, #1
     8c8:	61167391 			; <UNDEFINED> instruction: 0x61167391
     8cc:	01006373 	tsteq	r0, r3, ror r3
     8d0:	010c1754 	tsteq	ip, r4, asr r7
     8d4:	91020000 	mrsls	r0, (UNDEF: 2)
     8d8:	01140072 	tsteq	r4, r2, ror r0
     8dc:	00000243 	andeq	r0, r0, r3, asr #4
     8e0:	01054001 	tsteq	r5, r1
     8e4:	000000a9 	andeq	r0, r0, r9, lsr #1
     8e8:	0000043c 	andeq	r0, r0, ip, lsr r4
     8ec:	000004b0 			; <UNDEFINED> instruction: 0x000004b0
     8f0:	000005e4 	andeq	r0, r0, r4, ror #11
     8f4:	000006f6 	strdeq	r0, [r0], -r6
     8f8:	6c617615 	stclvs	6, cr7, [r1], #-84	; 0xffffffac
     8fc:	19400100 	stmdbne	r0, {r8}^
     900:	000000c3 	andeq	r0, r0, r3, asr #1
     904:	1a6c9102 	bne	1b24d14 <_etext+0x1b21de7>
     908:	00000200 	andeq	r0, r0, r0, lsl #4
     90c:	c3274001 			; <UNDEFINED> instruction: 0xc3274001
     910:	02000000 	andeq	r0, r0, #0
     914:	69166891 	ldmdbvs	r6, {r0, r4, r7, fp, sp, lr}
     918:	09420100 	stmdbeq	r2, {r8}^
     91c:	000000a9 	andeq	r0, r0, r9, lsr #1
     920:	19749102 	ldmdbne	r4!, {r1, r8, ip, pc}^
     924:	0000027f 	andeq	r0, r0, pc, ror r2
     928:	0c0a4301 	stceq	3, cr4, [sl], {1}
     92c:	02000001 	andeq	r0, r0, #1
     930:	61167391 			; <UNDEFINED> instruction: 0x61167391
     934:	01006373 	tsteq	r0, r3, ror r3
     938:	010c1743 	tsteq	ip, r3, asr #14
     93c:	91020000 	mrsls	r0, (UNDEF: 2)
     940:	01140072 	tsteq	r4, r2, ror r0
     944:	000001f5 	strdeq	r0, [r0], -r5
     948:	01053601 	tsteq	r5, r1, lsl #12
     94c:	000000a9 	andeq	r0, r0, r9, lsr #1
     950:	0000040a 	andeq	r0, r0, sl, lsl #8
     954:	0000043c 	andeq	r0, r0, ip, lsr r4
     958:	00000634 	andeq	r0, r0, r4, lsr r6
     95c:	00000724 	andeq	r0, r0, r4, lsr #14
     960:	72747315 	rsbsvc	r7, r4, #1409286144	; 0x54000000
     964:	16360100 	ldrtne	r0, [r6], -r0, lsl #2
     968:	000001c6 	andeq	r0, r0, r6, asr #3
     96c:	00749102 	rsbseq	r9, r4, r2, lsl #2
     970:	029a0114 	addseq	r0, sl, #20, 2
     974:	26010000 	strcs	r0, [r1], -r0
     978:	00a90105 	adceq	r0, r9, r5, lsl #2
     97c:	03d00000 	bicseq	r0, r0, #0
     980:	040a0000 	streq	r0, [sl], #-0
     984:	06840000 	streq	r0, [r4], r0
     988:	076d0000 	strbeq	r0, [sp, -r0]!
     98c:	63150000 	tstvs	r5, #0
     990:	26010068 	strcs	r0, [r1], -r8, rrx
     994:	00010c16 	andeq	r0, r1, r6, lsl ip
     998:	6f910200 	svcvs	0x00910200
     99c:	00316316 	eorseq	r6, r1, r6, lsl r3
     9a0:	b70d2801 	strlt	r2, [sp, -r1, lsl #16]
     9a4:	02000000 	andeq	r0, r0, #0
     9a8:	63167791 	tstvs	r6, #38010880	; 0x2440000
     9ac:	29010032 	stmdbcs	r1, {r1, r4, r5}
     9b0:	0000b70d 	andeq	fp, r0, sp, lsl #14
     9b4:	76910200 	ldrvc	r0, [r1], r0, lsl #4
     9b8:	16011400 	strne	r1, [r1], -r0, lsl #8
     9bc:	01000003 	tsteq	r0, r3
     9c0:	a9010521 	stmdbge	r1, {r0, r5, r8, sl}
     9c4:	92000000 	andls	r0, r0, #0
     9c8:	d0000003 	andle	r0, r0, r3
     9cc:	d4000003 	strle	r0, [r0], #-3
     9d0:	9a000006 	bls	9f0 <memcmp+0x40>
     9d4:	15000007 	strne	r0, [r0, #-7]
     9d8:	01006863 	tsteq	r0, r3, ror #16
     9dc:	010c1521 	tsteq	ip, r1, lsr #10
     9e0:	91020000 	mrsls	r0, (UNDEF: 2)
     9e4:	01140077 	tsteq	r4, r7, ror r0
     9e8:	000002f1 	strdeq	r0, [r0], -r1
     9ec:	01051c01 	tsteq	r5, r1, lsl #24
     9f0:	000000a9 	andeq	r0, r0, r9, lsr #1
     9f4:	00000360 	andeq	r0, r0, r0, ror #6
     9f8:	00000392 	muleq	r0, r2, r3
     9fc:	00000730 	andeq	r0, r0, r0, lsr r7
     a00:	000007c7 	andeq	r0, r0, r7, asr #15
     a04:	00686315 	rsbeq	r6, r8, r5, lsl r3
     a08:	0c111c01 	ldceq	12, cr1, [r1], {1}
     a0c:	02000001 	andeq	r0, r0, #1
     a10:	14007791 	strne	r7, [r0], #-1937	; 0xfffff86f
     a14:	00030001 	andeq	r0, r3, r1
     a18:	05110100 	ldreq	r0, [r1, #-256]	; 0xffffff00
     a1c:	0000a901 	andeq	sl, r0, r1, lsl #18
     a20:	00032000 	andeq	r2, r3, r0
     a24:	00036000 	andeq	r6, r3, r0
     a28:	00078c00 	andeq	r8, r7, r0, lsl #24
     a2c:	00080100 	andeq	r0, r8, r0, lsl #2
     a30:	68631500 	stmdavs	r3!, {r8, sl, ip}^
     a34:	15110100 	ldrne	r0, [r1, #-256]	; 0xffffff00
     a38:	0000010c 	andeq	r0, r0, ip, lsl #2
     a3c:	166f9102 	strbtne	r9, [pc], -r2, lsl #2
     a40:	13010069 	movwne	r0, #4201	; 0x1069
     a44:	0000c30e 	andeq	ip, r0, lr, lsl #6
     a48:	74910200 	ldrvc	r0, [r1], #512	; 0x200
     a4c:	b4011b00 	strlt	r1, [r1], #-2816	; 0xfffff500
     a50:	01000002 	tsteq	r0, r2
     a54:	0c010606 	stceq	6, cr0, [r1], {6}
     a58:	fc000001 	stc2	0, cr0, [r0], {1}
     a5c:	20000002 	andcs	r0, r0, r2
     a60:	e8000003 	stmda	r0, {r0, r1}
     a64:	15000007 	strne	r0, [r0, #-7]
     a68:	01006863 	tsteq	r0, r3, ror #16
     a6c:	04481906 	strbeq	r1, [r8], #-2310	; 0xfffff6fa
     a70:	91020000 	mrsls	r0, (UNDEF: 2)
     a74:	22000074 	andcs	r0, r0, #116	; 0x74
     a78:	02000000 	andeq	r0, r0, #0
     a7c:	0002d400 	andeq	sp, r2, r0, lsl #8
     a80:	80010400 	andhi	r0, r1, r0, lsl #8
     a84:	5c000008 	stcpl	0, cr0, [r0], {8}
     a88:	e000000c 	and	r0, r0, ip
     a8c:	3200000c 	andcc	r0, r0, #12
     a90:	40000003 	andmi	r0, r0, r3
     a94:	45000000 	strmi	r0, [r0, #-0]
     a98:	01000003 	tsteq	r0, r3
     a9c:	000a8a80 	andeq	r8, sl, r0, lsl #21
     aa0:	e8000200 	stmda	r0, {r9}
     aa4:	04000002 	streq	r0, [r0], #-2
     aa8:	0000ad01 	andeq	sl, r0, r1, lsl #26
     aac:	05ce0100 	strbeq	r0, [lr, #256]	; 0x100
     ab0:	00400000 	subeq	r0, r0, r0
     ab4:	0ce00000 	stcleq	0, cr0, [r0]
     ab8:	15940000 	ldrne	r0, [r4]
     abc:	08f30000 	ldmeq	r3!, {}^	; <UNPREDICTABLE>
     ac0:	01020000 	mrseq	r0, (UNDEF: 2)
     ac4:	00000f06 	andeq	r0, r0, r6, lsl #30
     ac8:	015f0300 	cmpeq	pc, r0, lsl #6
     acc:	2b020000 	blcs	80ad4 <_etext+0x7dba7>
     ad0:	00003818 	andeq	r3, r0, r8, lsl r8
     ad4:	08010200 	stmdaeq	r1, {r9}
     ad8:	0000000d 	andeq	r0, r0, sp
     adc:	33050202 	movwcc	r0, #20994	; 0x5202
     ae0:	02000001 	andeq	r0, r0, #1
     ae4:	001b0702 	andseq	r0, fp, r2, lsl #14
     ae8:	04020000 	streq	r0, [r2], #-0
     aec:	0000a405 	andeq	sl, r0, r5, lsl #8
     af0:	014f0300 	mrseq	r0, (UNDEF: 127)
     af4:	4f020000 	svcmi	0x00020000
     af8:	00006019 	andeq	r6, r0, r9, lsl r0
     afc:	07040200 	streq	r0, [r4, -r0, lsl #4]
     b00:	0000008d 	andeq	r0, r0, sp, lsl #1
     b04:	9f050802 	svcls	0x00050802
     b08:	02000000 	andeq	r0, r0, #0
     b0c:	00880708 	addeq	r0, r8, r8, lsl #14
     b10:	04040000 	streq	r0, [r4], #-0
     b14:	746e6905 	strbtvc	r6, [lr], #-2309	; 0xfffff6fb
     b18:	07040200 	streq	r0, [r4, -r0, lsl #4]
     b1c:	00000092 	muleq	r0, r2, r0
     b20:	00016103 	andeq	r6, r1, r3, lsl #2
     b24:	13180300 	tstne	r8, #0, 6
     b28:	0000002c 	andeq	r0, r0, ip, lsr #32
     b2c:	00015103 	andeq	r5, r1, r3, lsl #2
     b30:	14300300 	ldrtne	r0, [r0], #-768	; 0xfffffd00
     b34:	00000054 	andeq	r0, r0, r4, asr r0
     b38:	00079005 	andeq	r9, r7, r5
     b3c:	07040400 	streq	r0, [r4, -r0, lsl #8]
     b40:	0000b810 	andeq	fp, r0, r0, lsl r8
     b44:	07620600 	strbeq	r0, [r2, -r0, lsl #12]!
     b48:	08040000 	stmdaeq	r4, {}	; <UNPREDICTABLE>
     b4c:	00008f0e 	andeq	r8, r0, lr, lsl #30
     b50:	00230200 	eoreq	r0, r3, r0, lsl #4
     b54:	04ca0300 	strbeq	r0, [sl], #768	; 0x300
     b58:	09040000 	stmdbeq	r4, {}	; <UNPREDICTABLE>
     b5c:	00009b02 	andeq	r9, r0, r2, lsl #22
     b60:	04590500 	ldrbeq	r0, [r9], #-1280	; 0xfffffb00
     b64:	04080000 	streq	r0, [r8], #-0
     b68:	00f01012 	rscseq	r1, r0, r2, lsl r0
     b6c:	a0060000 	andge	r0, r6, r0
     b70:	04000007 	streq	r0, [r0], #-7
     b74:	00f01b13 	rscseq	r1, r0, r3, lsl fp
     b78:	23020000 	movwcs	r0, #8192	; 0x2000
     b7c:	08a50600 	stmiaeq	r5!, {r9, sl}
     b80:	14040000 	strne	r0, [r4], #-0
     b84:	0000f01b 	andeq	pc, r0, fp, lsl r0	; <UNPREDICTABLE>
     b88:	04230200 	strteq	r0, [r3], #-512	; 0xfffffe00
     b8c:	c4040700 	strgt	r0, [r4], #-1792	; 0xfffff900
     b90:	03000000 	movweq	r0, #0
     b94:	00000402 	andeq	r0, r0, r2, lsl #8
     b98:	c4021504 	strgt	r1, [r2], #-1284	; 0xfffffafc
     b9c:	05000000 	streq	r0, [r0, #-0]
     ba0:	0000040e 	andeq	r0, r0, lr, lsl #8
     ba4:	1019040c 	andsne	r0, r9, ip, lsl #8
     ba8:	0000012e 	andeq	r0, r0, lr, lsr #2
     bac:	00089b06 	andeq	r9, r8, r6, lsl #22
     bb0:	111a0400 	tstne	sl, r0, lsl #8
     bb4:	000000f6 	strdeq	r0, [r0], -r6
     bb8:	06002302 	streq	r2, [r0], -r2, lsl #6
     bbc:	00000443 	andeq	r0, r0, r3, asr #8
     bc0:	8f0e1b04 	svchi	0x000e1b04
     bc4:	02000000 	andeq	r0, r0, #0
     bc8:	03000823 	movweq	r0, #2083	; 0x823
     bcc:	000003e9 	andeq	r0, r0, r9, ror #7
     bd0:	02021c04 	andeq	r1, r2, #4, 24	; 0x400
     bd4:	03000001 	movweq	r0, #1
     bd8:	000006ac 	andeq	r0, r0, ip, lsr #13
     bdc:	8f120e05 	svchi	0x00120e05
     be0:	05000000 	streq	r0, [r0, #-0]
     be4:	000004f7 	strdeq	r0, [r0], -r7
     be8:	10100548 	andsne	r0, r0, r8, asr #10
     bec:	00000244 	andeq	r0, r0, r4, asr #4
     bf0:	000c4406 	andeq	r4, ip, r6, lsl #8
     bf4:	13120500 	tstne	r2, #0, 10
     bf8:	00000244 	andeq	r0, r0, r4, asr #4
     bfc:	06002302 	streq	r2, [r0], -r2, lsl #6
     c00:	00000ca7 	andeq	r0, r0, r7, lsr #25
     c04:	8f0e1305 	svchi	0x000e1305
     c08:	02000000 	andeq	r0, r0, #0
     c0c:	cb060423 	blgt	181ca0 <_etext+0x17ed73>
     c10:	0500000d 	streq	r0, [r0, #-13]
     c14:	008f0e14 	addeq	r0, pc, r4, lsl lr	; <UNPREDICTABLE>
     c18:	23020000 	movwcs	r0, #8192	; 0x2000
     c1c:	036f0608 	cmneq	pc, #8, 12	; 0x800000
     c20:	17050000 	strne	r0, [r5, -r0]
     c24:	0000f611 	andeq	pc, r0, r1, lsl r6	; <UNPREDICTABLE>
     c28:	0c230200 	sfmeq	f0, 4, [r3], #-0
     c2c:	000d4806 	andeq	r4, sp, r6, lsl #16
     c30:	0e180500 	cfmul32eq	mvfx0, mvfx8, mvfx0
     c34:	0000008f 	andeq	r0, r0, pc, lsl #1
     c38:	06142302 	ldreq	r2, [r4], -r2, lsl #6
     c3c:	0000072c 	andeq	r0, r0, ip, lsr #14
     c40:	f6111b05 			; <UNDEFINED> instruction: 0xf6111b05
     c44:	02000000 	andeq	r0, r0, #0
     c48:	a1061823 	tstge	r6, r3, lsr #16
     c4c:	05000005 	streq	r0, [r0, #-5]
     c50:	008f0e1c 	addeq	r0, pc, ip, lsl lr	; <UNPREDICTABLE>
     c54:	23020000 	movwcs	r0, #8192	; 0x2000
     c58:	06a00620 	strteq	r0, [r0], r0, lsr #12
     c5c:	1f050000 	svcne	0x00050000
     c60:	00008f0e 	andeq	r8, r0, lr, lsl #30
     c64:	24230200 	strtcs	r0, [r3], #-512	; 0xfffffe00
     c68:	0004f106 	andeq	pc, r4, r6, lsl #2
     c6c:	0c220500 	cfstr32eq	mvfx0, [r2], #-0
     c70:	00000258 	andeq	r0, r0, r8, asr r2
     c74:	06282302 	strteq	r2, [r8], -r2, lsl #6
     c78:	00000363 	andeq	r0, r0, r3, ror #6
     c7c:	560b2305 	strpl	r2, [fp], -r5, lsl #6
     c80:	02000002 	andeq	r0, r0, #2
     c84:	5f062c23 	svcpl	0x00062c23
     c88:	05000006 	streq	r0, [r0, #-6]
     c8c:	00830d24 	addeq	r0, r3, r4, lsr #26
     c90:	23020000 	movwcs	r0, #8192	; 0x2000
     c94:	038a0630 	orreq	r0, sl, #48, 12	; 0x3000000
     c98:	27050000 	strcs	r0, [r5, -r0]
     c9c:	00028a17 	andeq	r8, r2, r7, lsl sl
     ca0:	34230200 	strtcc	r0, [r3], #-512	; 0xfffffe00
     ca4:	00060706 	andeq	r0, r6, r6, lsl #14
     ca8:	0b280500 	bleq	a020b0 <_etext+0x9ff183>
     cac:	00000256 	andeq	r0, r0, r6, asr r2
     cb0:	06382302 	ldrteq	r2, [r8], -r2, lsl #6
     cb4:	000003f0 	strdeq	r0, [r0], -r0	; <UNPREDICTABLE>
     cb8:	8f0e2905 	svchi	0x000e2905
     cbc:	02000000 	andeq	r0, r0, #0
     cc0:	bf063c23 	svclt	0x00063c23
     cc4:	05000005 	streq	r0, [r0, #-5]
     cc8:	008f0e2c 	addeq	r0, pc, ip, lsr #28
     ccc:	23020000 	movwcs	r0, #8192	; 0x2000
     cd0:	044e0640 	strbeq	r0, [lr], #-1600	; 0xfffff9c0
     cd4:	2d050000 	stccs	0, cr0, [r5, #-0]
     cd8:	00008f0e 	andeq	r8, r0, lr, lsl #30
     cdc:	44230200 	strtmi	r0, [r3], #-512	; 0xfffffe00
     ce0:	3a040700 	bcc	1028e8 <_etext+0xff9bb>
     ce4:	08000001 	stmdaeq	r0, {r0}
     ce8:	00025601 	andeq	r5, r2, r1, lsl #12
     cec:	02560900 	subseq	r0, r6, #0, 18
     cf0:	0a000000 	beq	cf8 <task_init+0xe>
     cf4:	4a040704 	bmi	10290c <_etext+0xff9df>
     cf8:	05000002 	streq	r0, [r0, #-2]
     cfc:	00000395 	muleq	r0, r5, r3
     d00:	101b0610 	andsne	r0, fp, r0, lsl r6
     d04:	0000028a 	andeq	r0, r0, sl, lsl #5
     d08:	0005c906 	andeq	ip, r5, r6, lsl #18
     d0c:	121c0600 	andsne	r0, ip, #0, 12
     d10:	0000036d 	andeq	r0, r0, sp, ror #6
     d14:	06002302 	streq	r2, [r0], -r2, lsl #6
     d18:	00000705 	andeq	r0, r0, r5, lsl #14
     d1c:	2e0c1d06 	cdpcs	13, 0, cr1, cr12, cr6, {0}
     d20:	02000001 	andeq	r0, r0, #1
     d24:	07000423 	streq	r0, [r0, -r3, lsr #8]
     d28:	00025e04 	andeq	r5, r2, r4, lsl #28
     d2c:	04b30300 	ldrteq	r0, [r3], #768	; 0x300
     d30:	2f050000 	svccs	0x00050000
     d34:	00014602 	andeq	r4, r1, r2, lsl #12
     d38:	04350500 	ldrteq	r0, [r5], #-1280	; 0xfffffb00
     d3c:	05140000 	ldreq	r0, [r4, #-0]
     d40:	02f51031 	rscseq	r1, r5, #49	; 0x31
     d44:	a7060000 	strge	r0, [r6, -r0]
     d48:	0500000c 	streq	r0, [r0, #-12]
     d4c:	008f0e33 	addeq	r0, pc, r3, lsr lr	; <UNPREDICTABLE>
     d50:	23020000 	movwcs	r0, #8192	; 0x2000
     d54:	0dcb0600 	stcleq	6, cr0, [fp]
     d58:	34050000 	strcc	r0, [r5], #-0
     d5c:	00008f0e 	andeq	r8, r0, lr, lsl #30
     d60:	04230200 	strteq	r0, [r3], #-512	; 0xfffffe00
     d64:	000d4806 	andeq	r4, sp, r6, lsl #16
     d68:	0e350500 	cfabs32eq	mvfx0, mvfx5
     d6c:	0000008f 	andeq	r0, r0, pc, lsl #1
     d70:	06082302 	streq	r2, [r8], -r2, lsl #6
     d74:	000005a1 	andeq	r0, r0, r1, lsr #11
     d78:	8f0e3605 	svchi	0x000e3605
     d7c:	02000000 	andeq	r0, r0, #0
     d80:	a0060c23 	andge	r0, r6, r3, lsr #24
     d84:	05000006 	streq	r0, [r0, #-6]
     d88:	008f0e37 	addeq	r0, pc, r7, lsr lr	; <UNPREDICTABLE>
     d8c:	23020000 	movwcs	r0, #8192	; 0x2000
     d90:	ec030010 	stc	0, cr0, [r3], {16}
     d94:	05000005 	streq	r0, [r0, #-5]
     d98:	029c0238 	addseq	r0, ip, #56, 4	; 0x80000003
     d9c:	b90b0000 	stmdblt	fp, {}	; <UNPREDICTABLE>
     da0:	05000006 	streq	r0, [r0, #-6]
     da4:	030f103a 	movweq	r1, #61498	; 0xf03a
     da8:	01010000 	mrseq	r0, (UNDEF: 1)
     dac:	02900407 	addseq	r0, r0, #117440512	; 0x7000000
     db0:	e00b0000 	and	r0, fp, r0
     db4:	05000005 	streq	r0, [r0, #-5]
     db8:	030f103b 	movweq	r1, #61499	; 0xf03b
     dbc:	01010000 	mrseq	r0, (UNDEF: 1)
     dc0:	00012e0c 	andeq	r2, r1, ip, lsl #28
     dc4:	00033300 	andeq	r3, r3, r0, lsl #6
     dc8:	007c0d00 	rsbseq	r0, ip, r0, lsl #26
     dcc:	001f0000 	andseq	r0, pc, r0
     dd0:	00054b0b 	andeq	r4, r5, fp, lsl #22
     dd4:	0f3c0500 	svceq	0x003c0500
     dd8:	00000323 	andeq	r0, r0, r3, lsr #6
     ddc:	c80e0101 	stmdagt	lr, {r0, r8}
     de0:	01000006 	tsteq	r0, r6
     de4:	6d0e0507 	cfstr32vs	mvfx0, [lr, #-28]	; 0xffffffe4
     de8:	0f000003 	svceq	0x00000003
     dec:	000003d3 	ldrdeq	r0, [r0], -r3
     df0:	07480f00 	strbeq	r0, [r8, -r0, lsl #30]
     df4:	0f010000 	svceq	0x00010000
     df8:	00000541 	andeq	r0, r0, r1, asr #10
     dfc:	05000f02 	streq	r0, [r0, #-3842]	; 0xfffff0fe
     e00:	0f030000 	svceq	0x00030000
     e04:	00000467 	andeq	r0, r0, r7, ror #8
     e08:	85030004 	strhi	r0, [r3, #-4]
     e0c:	06000005 	streq	r0, [r0], -r5
     e10:	008f1213 	addeq	r1, pc, r3, lsl r2	; <UNPREDICTABLE>
     e14:	f4030000 	vst4.8	{d0-d3}, [r3], r0
     e18:	06000006 	streq	r0, [r0], -r6
     e1c:	025e021e 	subseq	r0, lr, #-536870911	; 0xe0000001
     e20:	01100000 	tsteq	r0, r0
     e24:	01000003 	tsteq	r0, r3
     e28:	03050909 	movweq	r0, #22793	; 0x5909
     e2c:	20000000 	andcs	r0, r0, r0
     e30:	00031510 	andeq	r1, r3, r0, lsl r5
     e34:	090a0100 	stmdbeq	sl, {r8}
     e38:	00040305 	andeq	r0, r4, r5, lsl #6
     e3c:	33102000 	tstcc	r0, #0
     e40:	01000003 	tsteq	r0, r3
     e44:	0305080b 	movweq	r0, #22539	; 0x580b
     e48:	20000008 	andcs	r0, r0, r8
     e4c:	0004ba11 	andeq	fp, r4, r1, lsl sl
     e50:	0f0c0100 	svceq	0x000c0100
     e54:	00000290 	muleq	r0, r0, r2
     e58:	01880305 	orreq	r0, r8, r5, lsl #6
     e5c:	17112000 	ldrne	r2, [r1, -r0]
     e60:	01000004 	tsteq	r0, r4
     e64:	030f100d 	movweq	r1, #61453	; 0xf00d
     e68:	03050000 	movweq	r0, #20480	; 0x5000
     e6c:	200001d0 	ldrdcs	r0, [r0], -r0	; <UNPREDICTABLE>
     e70:	00013a0c 	andeq	r3, r1, ip, lsl #20
     e74:	0003e400 	andeq	lr, r3, r0, lsl #8
     e78:	007c1200 	rsbseq	r1, ip, r0, lsl #4
     e7c:	03ff0000 	mvnseq	r0, #0
     e80:	03c31100 	biceq	r1, r3, #0, 2
     e84:	0e010000 	cdpeq	0, 0, cr0, cr1, cr0, {0}
     e88:	0003d315 	andeq	sp, r3, r5, lsl r3
     e8c:	d4030500 	strle	r0, [r3], #-1280	; 0xfffffb00
     e90:	11200001 			; <UNDEFINED> instruction: 0x11200001
     e94:	000003b6 			; <UNDEFINED> instruction: 0x000003b6
     e98:	83100f01 	tsthi	r0, #1, 30
     e9c:	05000000 	streq	r0, [r0, #-0]
     ea0:	0011d403 	andseq	sp, r1, r3, lsl #8
     ea4:	07561120 	ldrbeq	r1, [r6, -r0, lsr #2]
     ea8:	10010000 	andne	r0, r1, r0
     eac:	0000b811 	andeq	fp, r0, r1, lsl r8
     eb0:	d8030500 	stmdale	r3, {r8, sl}
     eb4:	11200011 			; <UNDEFINED> instruction: 0x11200011
     eb8:	0000071a 	andeq	r0, r0, sl, lsl r7
     ebc:	2e0f1101 	adfcse	f1, f7, f1
     ec0:	05000001 	streq	r0, [r0, #-1]
     ec4:	0011dc03 	andseq	sp, r1, r3, lsl #24
     ec8:	32011320 	andcc	r1, r1, #32, 6	; 0x80000000
     ecc:	01000005 	tsteq	r0, r5
     ed0:	01060180 	smlabbeq	r6, r0, r1, r0
     ed4:	0000153a 	andeq	r1, r0, sl, lsr r5
     ed8:	00001594 	muleq	r0, r4, r5
     edc:	00000844 	andeq	r0, r0, r4, asr #16
     ee0:	00000458 	andeq	r0, r0, r8, asr r4
     ee4:	00053c14 	andeq	r3, r5, r4, lsl ip
     ee8:	01800100 	orreq	r0, r0, r0, lsl #2
     eec:	00045822 	andeq	r5, r4, r2, lsr #16
     ef0:	74910200 	ldrvc	r0, [r1], #512	; 0x200
     ef4:	f5040700 			; <UNDEFINED> instruction: 0xf5040700
     ef8:	13000002 	movwne	r0, #2
     efc:	0005a701 	andeq	sl, r5, r1, lsl #14
     f00:	01730100 	cmneq	r3, r0, lsl #2
     f04:	14f40106 	ldrbtne	r0, [r4], #262	; 0x106
     f08:	153a0000 	ldrne	r0, [sl, #-0]!
     f0c:	08940000 	ldmeq	r4, {}	; <UNPREDICTABLE>
     f10:	04aa0000 	strteq	r0, [sl], #0
     f14:	1e140000 	cdpne	0, 1, cr0, cr4, cr0, {0}
     f18:	01000004 	tsteq	r0, r4
     f1c:	0f1c0173 	svceq	0x001c0173
     f20:	02000003 	andeq	r0, r0, #3
     f24:	3c146c91 	ldccc	12, cr6, [r4], {145}	; 0x91
     f28:	01000005 	tsteq	r0, r5
     f2c:	582f0173 	stmdapl	pc!, {r0, r1, r4, r5, r6, r8}	; <UNPREDICTABLE>
     f30:	02000004 	andeq	r0, r0, #4
     f34:	f8156891 			; <UNDEFINED> instruction: 0xf8156891
     f38:	01000005 	tsteq	r0, r5
     f3c:	8f0e0175 	svchi	0x000e0175
     f40:	02000000 	andeq	r0, r0, #0
     f44:	13007491 	movwne	r7, #1169	; 0x491
     f48:	00067001 	andeq	r7, r6, r1
     f4c:	01640100 	cmneq	r4, r0, lsl #2
     f50:	14a80106 	strtne	r0, [r8], #262	; 0x106
     f54:	14f40000 	ldrbtne	r0, [r4], #0
     f58:	08e40000 	stmiaeq	r4!, {}^	; <UNPREDICTABLE>
     f5c:	04d60000 	ldrbeq	r0, [r6], #0
     f60:	f8150000 			; <UNDEFINED> instruction: 0xf8150000
     f64:	01000005 	tsteq	r0, r5
     f68:	830d0166 	movwhi	r0, #53606	; 0xd166
     f6c:	02000000 	andeq	r0, r0, #0
     f70:	16007791 			; <UNDEFINED> instruction: 0x16007791
     f74:	00039f01 	andeq	r9, r3, r1, lsl #30
     f78:	01590100 	cmpeq	r9, r0, lsl #2
     f7c:	00830109 	addeq	r0, r3, r9, lsl #2
     f80:	147c0000 	ldrbtne	r0, [ip], #-0
     f84:	14a80000 	strtne	r0, [r8], #0
     f88:	09340000 	ldmdbeq	r4!, {}	; <UNPREDICTABLE>
     f8c:	05160000 	ldreq	r0, [r6, #-0]
     f90:	2e150000 	cdpcs	0, 1, cr0, cr5, cr0, {0}
     f94:	01000004 	tsteq	r0, r4
     f98:	830d015b 	movwhi	r0, #53595	; 0xd15b
     f9c:	02000000 	andeq	r0, r0, #0
     fa0:	f8157391 			; <UNDEFINED> instruction: 0xf8157391
     fa4:	01000005 	tsteq	r0, r5
     fa8:	8f0e015d 	svchi	0x000e015d
     fac:	02000000 	andeq	r0, r0, #0
     fb0:	13007491 	movwne	r7, #1169	; 0x491
     fb4:	0003a201 	andeq	sl, r3, r1, lsl #4
     fb8:	01500100 	cmpeq	r0, r0, lsl #2
     fbc:	14580106 	ldrbne	r0, [r8], #-262	; 0xfffffefa
     fc0:	147c0000 	ldrbtne	r0, [ip], #-0
     fc4:	09840000 	stmibeq	r4, {}	; <UNPREDICTABLE>
     fc8:	05520000 	ldrbeq	r0, [r2, #-0]
     fcc:	1e140000 	cdpne	0, 1, cr0, cr4, cr0, {0}
     fd0:	01000004 	tsteq	r0, r4
     fd4:	0f220150 	svceq	0x00220150
     fd8:	02000003 	andeq	r0, r0, #3
     fdc:	f8156c91 			; <UNDEFINED> instruction: 0xf8156c91
     fe0:	01000005 	tsteq	r0, r5
     fe4:	8f0e0152 	svchi	0x000e0152
     fe8:	02000000 	andeq	r0, r0, #0
     fec:	13007491 	movwne	r7, #1169	; 0x491
     ff0:	00042301 	andeq	r2, r4, r1, lsl #6
     ff4:	013b0100 	teqeq	fp, r0, lsl #2
     ff8:	13ee0106 	mvnne	r0, #-2147483647	; 0x80000001
     ffc:	14580000 	ldrbne	r0, [r8], #-0
    1000:	09d40000 	ldmibeq	r4, {}^	; <UNPREDICTABLE>
    1004:	058e0000 	streq	r0, [lr]
    1008:	1e140000 	cdpne	0, 1, cr0, cr4, cr0, {0}
    100c:	01000004 	tsteq	r0, r4
    1010:	0f20013b 	svceq	0x0020013b
    1014:	02000003 	andeq	r0, r0, #3
    1018:	f8156c91 			; <UNDEFINED> instruction: 0xf8156c91
    101c:	01000005 	tsteq	r0, r5
    1020:	8f0e013d 	svchi	0x000e013d
    1024:	02000000 	andeq	r0, r0, #0
    1028:	13007491 	movwne	r7, #1169	; 0x491
    102c:	00048401 	andeq	r8, r4, r1, lsl #8
    1030:	01350100 	teqeq	r5, r0, lsl #2
    1034:	13cc0106 	bicne	r0, ip, #-2147483647	; 0x80000001
    1038:	13ee0000 	mvnne	r0, #0
    103c:	0a240000 	beq	901044 <_etext+0x8fe117>
    1040:	05da0000 	ldrbeq	r0, [sl]
    1044:	1e140000 	cdpne	0, 1, cr0, cr4, cr0, {0}
    1048:	01000004 	tsteq	r0, r4
    104c:	0f240135 	svceq	0x00240135
    1050:	02000003 	andeq	r0, r0, #3
    1054:	f1147491 			; <UNDEFINED> instruction: 0xf1147491
    1058:	01000004 	tsteq	r0, r4
    105c:	58310135 	ldmdapl	r1!, {r0, r2, r4, r5, r8}
    1060:	02000002 	andeq	r0, r0, #2
    1064:	69147091 	ldmdbvs	r4, {r0, r4, r7, ip, sp, lr}
    1068:	01000003 	tsteq	r0, r3
    106c:	564c0135 			; <UNDEFINED> instruction: 0x564c0135
    1070:	02000002 	andeq	r0, r0, #2
    1074:	17006c91 			; <UNDEFINED> instruction: 0x17006c91
    1078:	000006d8 	ldrdeq	r0, [r0], -r8
    107c:	0d013001 	stceq	0, cr3, [r1, #-4]
    1080:	0013ac01 	andseq	sl, r3, r1, lsl #24
    1084:	0013cc00 	andseq	ip, r3, r0, lsl #24
    1088:	000a8000 	andeq	r8, sl, r0
    108c:	00060500 	andeq	r0, r6, r0, lsl #10
    1090:	041e1400 	ldreq	r1, [lr], #-1024	; 0xfffffc00
    1094:	30010000 	andcc	r0, r1, r0
    1098:	030f3101 	movweq	r3, #61697	; 0xf101
    109c:	91020000 	mrsls	r0, (UNDEF: 2)
    10a0:	58170074 	ldmdapl	r7, {r2, r4, r5, r6}
    10a4:	01000005 	tsteq	r0, r5
    10a8:	010d0128 	tsteq	sp, r8, lsr #2
    10ac:	00001350 	andeq	r1, r0, r0, asr r3
    10b0:	000013ac 	andeq	r1, r0, ip, lsr #7
    10b4:	00000ad0 	ldrdeq	r0, [r0], -r0	; <UNPREDICTABLE>
    10b8:	00000630 	andeq	r0, r0, r0, lsr r6
    10bc:	00041e14 	andeq	r1, r4, r4, lsl lr
    10c0:	01280100 			; <UNDEFINED> instruction: 0x01280100
    10c4:	00030f31 	andeq	r0, r3, r1, lsr pc
    10c8:	74910200 	ldrvc	r0, [r1], #512	; 0x200
    10cc:	94011300 	strls	r1, [r1], #-768	; 0xfffffd00
    10d0:	01000006 	tsteq	r0, r6
    10d4:	010d011a 	tsteq	sp, sl, lsl r1
    10d8:	00001300 	andeq	r1, r0, r0, lsl #6
    10dc:	00001350 	andeq	r1, r0, r0, asr r3
    10e0:	00000b20 	andeq	r0, r0, r0, lsr #22
    10e4:	0000066c 	andeq	r0, r0, ip, ror #12
    10e8:	00041e14 	andeq	r1, r4, r4, lsl lr
    10ec:	011a0100 	tsteq	sl, r0, lsl #2
    10f0:	00030f21 	andeq	r0, r3, r1, lsr #30
    10f4:	6c910200 	lfmvs	f0, 4, [r1], {0}
    10f8:	0005f815 	andeq	pc, r5, r5, lsl r8	; <UNPREDICTABLE>
    10fc:	011c0100 	tsteq	ip, r0, lsl #2
    1100:	00008f0e 	andeq	r8, r0, lr, lsl #30
    1104:	74910200 	ldrvc	r0, [r1], #512	; 0x200
    1108:	dc011300 	stcle	3, cr1, [r1], {-0}
    110c:	01000003 	tsteq	r0, r3
    1110:	01060105 	tsteq	r6, r5, lsl #2
    1114:	000012a4 	andeq	r1, r0, r4, lsr #5
    1118:	00001300 	andeq	r1, r0, r0, lsl #6
    111c:	00000b70 	andeq	r0, r0, r0, ror fp
    1120:	000006a8 	andeq	r0, r0, r8, lsr #13
    1124:	00041e14 	andeq	r1, r4, r4, lsl lr
    1128:	01050100 	mrseq	r0, (UNDEF: 21)
    112c:	00030f1b 	andeq	r0, r3, fp, lsl pc
    1130:	6c910200 	lfmvs	f0, 4, [r1], {0}
    1134:	0005f815 	andeq	pc, r5, r5, lsl r8	; <UNPREDICTABLE>
    1138:	01070100 	mrseq	r0, (UNDEF: 23)
    113c:	00008f0e 	andeq	r8, r0, lr, lsl #30
    1140:	74910200 	ldrvc	r0, [r1], #512	; 0x200
    1144:	11011800 	tstne	r1, r0, lsl #16
    1148:	01000006 	tsteq	r0, r6
    114c:	780106ff 	stmdavc	r1, {r0, r1, r2, r3, r4, r5, r6, r7, r9, sl}
    1150:	a4000012 	strge	r0, [r0], #-18	; 0xffffffee
    1154:	c0000012 	andgt	r0, r0, r2, lsl r0
    1158:	d200000b 	andle	r0, r0, #11
    115c:	19000006 	stmdbne	r0, {r1, r2}
    1160:	0000041e 	andeq	r0, r0, lr, lsl r4
    1164:	0f20ff01 	svceq	0x0020ff01
    1168:	02000003 	andeq	r0, r0, #3
    116c:	18007491 	stmdane	r0, {r0, r4, r7, sl, ip, sp, lr}
    1170:	00037a01 	andeq	r7, r3, r1, lsl #20
    1174:	06f80100 	ldrbteq	r0, [r8], r0, lsl #2
    1178:	00124401 	andseq	r4, r2, r1, lsl #8
    117c:	00127800 	andseq	r7, r2, r0, lsl #16
    1180:	000c1000 	andeq	r1, ip, r0
    1184:	00070b00 	andeq	r0, r7, r0, lsl #22
    1188:	041e1900 	ldreq	r1, [lr], #-2304	; 0xfffff700
    118c:	f8010000 			; <UNDEFINED> instruction: 0xf8010000
    1190:	00030f1e 	andeq	r0, r3, lr, lsl pc
    1194:	74910200 	ldrvc	r0, [r1], #512	; 0x200
    1198:	000c1219 	andeq	r1, ip, r9, lsl r2
    119c:	2df80100 	ldfcse	f0, [r8]
    11a0:	0000008f 	andeq	r0, r0, pc, lsl #1
    11a4:	00709102 	rsbseq	r9, r0, r2, lsl #2
    11a8:	073b0118 			; <UNDEFINED> instruction: 0x073b0118
    11ac:	f0010000 			; <UNDEFINED> instruction: 0xf0010000
    11b0:	11e80106 	mvnne	r0, r6, lsl #2
    11b4:	12440000 	subne	r0, r4, #0
    11b8:	0c600000 	stcleq	0, cr0, [r0], #-0
    11bc:	07350000 	ldreq	r0, [r5, -r0]!
    11c0:	1e190000 	cdpne	0, 1, cr0, cr9, cr0, {0}
    11c4:	01000004 	tsteq	r0, r4
    11c8:	030f1bf0 	movweq	r1, #64496	; 0xfbf0
    11cc:	91020000 	mrsls	r0, (UNDEF: 2)
    11d0:	01180074 	tsteq	r8, r4, ror r0
    11d4:	00000635 	andeq	r0, r0, r5, lsr r6
    11d8:	0106ea01 	tsteq	r6, r1, lsl #20
    11dc:	000011a8 	andeq	r1, r0, r8, lsr #3
    11e0:	000011e8 	andeq	r1, r0, r8, ror #3
    11e4:	00000cb0 			; <UNDEFINED> instruction: 0x00000cb0
    11e8:	0000075f 	andeq	r0, r0, pc, asr r7
    11ec:	00041e19 	andeq	r1, r4, r9, lsl lr
    11f0:	19ea0100 	stmibne	sl!, {r8}^
    11f4:	0000030f 	andeq	r0, r0, pc, lsl #6
    11f8:	00749102 	rsbseq	r9, r4, r2, lsl #2
    11fc:	064c011a 			; <UNDEFINED> instruction: 0x064c011a
    1200:	dc010000 	stcle	0, cr0, [r1], {-0}
    1204:	030f0109 	movweq	r0, #61705	; 0xf109
    1208:	11700000 	cmnne	r0, r0
    120c:	11a80000 			; <UNDEFINED> instruction: 0x11a80000
    1210:	0d000000 	stceq	0, cr0, [r0, #-0]
    1214:	079c0000 	ldreq	r0, [ip, r0]
    1218:	77110000 	ldrvc	r0, [r1, -r0]
    121c:	01000004 	tsteq	r0, r4
    1220:	008f0ee5 	addeq	r0, pc, r5, ror #29
    1224:	91020000 	mrsls	r0, (UNDEF: 2)
    1228:	0bb51174 	bleq	fed45800 <_heap_top+0xded05800>
    122c:	e6010000 	str	r0, [r1], -r0
    1230:	00079c12 	andeq	r9, r7, r2, lsl ip
    1234:	70910200 	addsvc	r0, r1, r0, lsl #4
    1238:	f6040700 			; <UNDEFINED> instruction: 0xf6040700
    123c:	18000000 	stmdane	r0, {}	; <UNPREDICTABLE>
    1240:	00062301 	andeq	r2, r6, r1, lsl #6
    1244:	06d10100 	ldrbeq	r0, [r1], r0, lsl #2
    1248:	00113001 	andseq	r3, r1, r1
    124c:	00117000 	andseq	r7, r1, r0
    1250:	000d5000 	andeq	r5, sp, r0
    1254:	0007cc00 	andeq	ip, r7, r0, lsl #24
    1258:	05f81100 	ldrbeq	r1, [r8, #256]!	; 0x100
    125c:	d3010000 	movwle	r0, #4096	; 0x1000
    1260:	00008f0e 	andeq	r8, r0, lr, lsl #30
    1264:	74910200 	ldrvc	r0, [r1], #512	; 0x200
    1268:	81011800 	tsthi	r1, r0, lsl #16
    126c:	01000006 	tsteq	r0, r6
    1270:	fc0106c7 	stc2	6, cr0, [r1], {199}	; 0xc7
    1274:	30000010 	andcc	r0, r0, r0, lsl r0
    1278:	a0000011 	andge	r0, r0, r1, lsl r0
    127c:	f600000d 			; <UNDEFINED> instruction: 0xf600000d
    1280:	11000007 	tstne	r0, r7
    1284:	000005f8 	strdeq	r0, [r0], -r8
    1288:	8f0ec901 	svchi	0x000ec901
    128c:	02000000 	andeq	r0, r0, #0
    1290:	18007491 	stmdane	r0, {r0, r4, r7, sl, ip, sp, lr}
    1294:	0004de01 	andeq	sp, r4, r1, lsl #28
    1298:	06c10100 	strbeq	r0, [r1], r0, lsl #2
    129c:	0010e201 	andseq	lr, r0, r1, lsl #4
    12a0:	0010fc00 	andseq	pc, r0, r0, lsl #24
    12a4:	000df000 	andeq	pc, sp, r0
    12a8:	00082000 	andeq	r2, r8, r0
    12ac:	05f81900 	ldrbeq	r1, [r8, #2304]!	; 0x900
    12b0:	c1010000 	mrsgt	r0, (UNDEF: 1)
    12b4:	00008f22 	andeq	r8, r0, r2, lsr #30
    12b8:	74910200 	ldrvc	r0, [r1], #512	; 0x200
    12bc:	14011a00 	strne	r1, [r1], #-2560	; 0xfffff600
    12c0:	01000005 	tsteq	r0, r5
    12c4:	8f010aba 	svchi	0x00010aba
    12c8:	c8000000 	stmdagt	r0, {}	; <UNPREDICTABLE>
    12cc:	e2000010 	and	r0, r0, #16
    12d0:	40000010 	andmi	r0, r0, r0, lsl r0
    12d4:	4e00000e 	cdpmi	0, 0, cr0, cr0, cr14, {0}
    12d8:	1b000008 	blne	1300 <task_resume>
    12dc:	00746572 	rsbseq	r6, r4, r2, ror r5
    12e0:	8f0ebc01 	svchi	0x000ebc01
    12e4:	02000000 	andeq	r0, r0, #0
    12e8:	18007491 	stmdane	r0, {r0, r4, r7, sl, ip, sp, lr}
    12ec:	00057401 	andeq	r7, r5, r1, lsl #8
    12f0:	06ac0100 	strteq	r0, [ip], r0, lsl #2
    12f4:	00104801 	andseq	r4, r0, r1, lsl #16
    12f8:	0010c800 	andseq	ip, r0, r0, lsl #16
    12fc:	000e9000 	andeq	r9, lr, r0
    1300:	00087600 	andeq	r7, r8, r0, lsl #12
    1304:	00691b00 	rsbeq	r1, r9, r0, lsl #22
    1308:	8f0eaf01 	svchi	0x000eaf01
    130c:	02000000 	andeq	r0, r0, #0
    1310:	18007491 	stmdane	r0, {r0, r4, r7, sl, ip, sp, lr}
    1314:	00049a01 	andeq	r9, r4, r1, lsl #20
    1318:	067d0100 	ldrbteq	r0, [sp], -r0, lsl #2
    131c:	000f4e01 	andeq	r4, pc, r1, lsl #28
    1320:	00104800 	andseq	r4, r0, r0, lsl #16
    1324:	000ee000 	andeq	lr, lr, r0
    1328:	0008cd00 	andeq	ip, r8, r0, lsl #26
    132c:	05f81100 	ldrbeq	r1, [r8, #256]!	; 0x100
    1330:	7f010000 	svcvc	0x00010000
    1334:	00008f0e 	andeq	r8, r0, lr, lsl #30
    1338:	70910200 	addsvc	r0, r1, r0, lsl #4
    133c:	00089b11 	andeq	r9, r8, r1, lsl fp
    1340:	12800100 	addne	r0, r0, #0, 2
    1344:	0000079c 	muleq	r0, ip, r7
    1348:	116c9102 	cmnne	ip, r2, lsl #2
    134c:	00000528 	andeq	r0, r0, r8, lsr #10
    1350:	9c128101 	ldflsd	f0, [r2], {1}
    1354:	02000007 	andeq	r0, r0, #7
    1358:	1e117491 	cfcmpsne	r7, mvf1, mvf1
    135c:	01000004 	tsteq	r0, r4
    1360:	030f0d82 	movweq	r0, #64898	; 0xfd82
    1364:	91020000 	mrsls	r0, (UNDEF: 2)
    1368:	01180068 	tsteq	r8, r8, rrx
    136c:	00000775 	andeq	r0, r0, r5, ror r7
    1370:	01067801 	tsteq	r6, r1, lsl #16
    1374:	00000f30 	andeq	r0, r0, r0, lsr pc
    1378:	00000f4e 	andeq	r0, r0, lr, asr #30
    137c:	00000f30 	andeq	r0, r0, r0, lsr pc
    1380:	000008f7 	strdeq	r0, [r0], -r7
    1384:	0005ff19 	andeq	pc, r5, r9, lsl pc	; <UNPREDICTABLE>
    1388:	1c780100 	ldfnee	f0, [r8], #-0
    138c:	0000008f 	andeq	r0, r0, pc, lsl #1
    1390:	00749102 	rsbseq	r9, r4, r2, lsl #2
    1394:	04d30118 	ldrbeq	r0, [r3], #280	; 0x118
    1398:	69010000 	stmdbvs	r1, {}	; <UNPREDICTABLE>
    139c:	0ef40106 	cdpeq	1, 15, cr0, cr4, cr6, {0}
    13a0:	0f300000 	svceq	0x00300000
    13a4:	0f800000 	svceq	0x00800000
    13a8:	09300000 	ldmdbeq	r0!, {}	; <UNPREDICTABLE>
    13ac:	12190000 	andsne	r0, r9, #0
    13b0:	0100000c 	tsteq	r0, ip
    13b4:	008f1a69 	addeq	r1, pc, r9, ror #20
    13b8:	91020000 	mrsls	r0, (UNDEF: 2)
    13bc:	05f8116c 	ldrbeq	r1, [r8, #364]!	; 0x16c
    13c0:	6b010000 	blvs	413c8 <_etext+0x3e49b>
    13c4:	00008f0e 	andeq	r8, r0, lr, lsl #30
    13c8:	74910200 	ldrvc	r0, [r1], #512	; 0x200
    13cc:	92011800 	andls	r1, r1, #0, 16
    13d0:	01000005 	tsteq	r0, r5
    13d4:	c4010661 	strgt	r0, [r1], #-1633	; 0xfffff99f
    13d8:	f400000e 	vst4.8	{d0-d3}, [r0], lr
    13dc:	d000000e 	andle	r0, r0, lr
    13e0:	5b00000f 	blpl	1424 <task_force_delete+0x36>
    13e4:	1c000009 	stcne	0, cr0, [r0], {9}
    13e8:	000006fc 	strdeq	r0, [r0], -ip
    13ec:	0000096b 	andeq	r0, r0, fp, ror #18
    13f0:	80030501 	andhi	r0, r3, r1, lsl #10
    13f4:	0000002d 	andeq	r0, r0, sp, lsr #32
    13f8:	0009770c 	andeq	r7, r9, ip, lsl #14
    13fc:	00096b00 	andeq	r6, r9, r0, lsl #22
    1400:	007c0d00 	rsbseq	r0, ip, r0, lsl #26
    1404:	000e0000 	andeq	r0, lr, r0
    1408:	00095b1d 	andeq	r5, r9, sp, lsl fp
    140c:	08010200 	stmdaeq	r1, {r9}
    1410:	00000016 	andeq	r0, r0, r6, lsl r0
    1414:	0009701d 	andeq	r7, r9, sp, lsl r0
    1418:	69011e00 	stmdbvs	r1, {r9, sl, fp, ip}
    141c:	01000007 	tsteq	r0, r7
    1420:	ac01065c 	stcge	6, cr0, [r1], {92}	; 0x5c
    1424:	c400000e 	strgt	r0, [r0], #-14
    1428:	fc00000e 	stc2	0, cr0, [r0], {14}
    142c:	1800000f 	stmdane	r0, {r0, r1, r2, r3}
    1430:	00070f01 	andeq	r0, r7, r1, lsl #30
    1434:	06480100 	strbeq	r0, [r8], -r0, lsl #2
    1438:	000e5c01 	andeq	r5, lr, r1, lsl #24
    143c:	000eac00 	andeq	sl, lr, r0, lsl #24
    1440:	00104000 	andseq	r4, r0, r0
    1444:	0009d700 	andeq	sp, r9, r0, lsl #14
    1448:	05f81100 	ldrbeq	r1, [r8, #256]!	; 0x100
    144c:	4a010000 	bmi	41454 <_etext+0x3e527>
    1450:	00008f0e 	andeq	r8, r0, lr, lsl #30
    1454:	74910200 	ldrvc	r0, [r1], #512	; 0x200
    1458:	00064011 	andeq	r4, r6, r1, lsl r0
    145c:	0d4b0100 	stfeqe	f0, [fp, #-0]
    1460:	0000030f 	andeq	r0, r0, pc, lsl #6
    1464:	1f709102 	svcne	0x00709102
    1468:	00000782 	andeq	r0, r0, r2, lsl #15
    146c:	92015701 	andls	r5, r1, #262144	; 0x40000
    1470:	0000000e 	andeq	r0, r0, lr
    1474:	05b50118 	ldreq	r0, [r5, #280]!	; 0x118
    1478:	1a010000 	bne	41480 <_etext+0x3e553>
    147c:	0cea0106 	stfeqe	f0, [sl], #24
    1480:	0e5c0000 	cdpeq	0, 5, cr0, cr12, cr0, {0}
    1484:	10900000 	addsne	r0, r0, r0
    1488:	0a4d0000 	beq	1341490 <_etext+0x133e563>
    148c:	1e190000 	cdpne	0, 1, cr0, cr9, cr0, {0}
    1490:	01000004 	tsteq	r0, r4
    1494:	030f1a1a 	movweq	r1, #64026	; 0xfa1a
    1498:	91020000 	mrsls	r0, (UNDEF: 2)
    149c:	10181974 	andsne	r1, r8, r4, ror r9
    14a0:	1a010000 	bne	414a8 <_etext+0x3e57b>
    14a4:	00025827 	andeq	r5, r2, r7, lsr #16
    14a8:	70910200 	addsvc	r0, r1, r0, lsl #4
    14ac:	00036919 	andeq	r6, r3, r9, lsl r9
    14b0:	3d1a0100 	ldfccs	f0, [sl, #-0]
    14b4:	00000256 	andeq	r0, r0, r6, asr r2
    14b8:	196c9102 	stmdbne	ip!, {r1, r8, ip, pc}^
    14bc:	00000dcb 	andeq	r0, r0, fp, asr #27
    14c0:	8f4d1a01 	svchi	0x004d1a01
    14c4:	02000000 	andeq	r0, r0, #0
    14c8:	44196891 	ldrmi	r6, [r9], #-2193	; 0xfffff76f
    14cc:	0100000c 	tsteq	r0, ip
    14d0:	0a4d5e1a 	beq	1358d40 <_etext+0x1355e13>
    14d4:	91020000 	mrsls	r0, (UNDEF: 2)
    14d8:	06fc1c00 	ldrbteq	r1, [ip], r0, lsl #24
    14dc:	0a630000 	beq	18c14e4 <_etext+0x18be5b7>
    14e0:	05010000 	streq	r0, [r1, #-0]
    14e4:	002d7403 	eoreq	r7, sp, r3, lsl #8
    14e8:	04070000 	streq	r0, [r7], #-0
    14ec:	0000008f 	andeq	r0, r0, pc, lsl #1
    14f0:	0009770c 	andeq	r7, r9, ip, lsl #14
    14f4:	000a6300 	andeq	r6, sl, r0, lsl #6
    14f8:	007c0d00 	rsbseq	r0, ip, r0, lsl #26
    14fc:	00090000 	andeq	r0, r9, r0
    1500:	000a531d 	andeq	r5, sl, sp, lsl r3
    1504:	03532000 	cmpeq	r3, #0
    1508:	15010000 	strne	r0, [r1, #-0]
    150c:	0ce0010d 	stfeqe	f0, [r0], #52	; 0x34
    1510:	0cea0000 	stcleq	0, cr0, [sl]
    1514:	10e00000 	rscne	r0, r0, r0
    1518:	69190000 	ldmdbvs	r9, {}	; <UNPREDICTABLE>
    151c:	01000003 	tsteq	r0, r3
    1520:	02562315 	subseq	r2, r6, #1409286144	; 0x54000000
    1524:	91020000 	mrsls	r0, (UNDEF: 2)
    1528:	09000074 	stmdbeq	r0, {r2, r4, r5, r6}
    152c:	02000006 	andeq	r0, r0, #6
    1530:	0004dd00 	andeq	sp, r4, r0, lsl #26
    1534:	ad010400 	cfstrsge	mvf0, [r1, #-0]
    1538:	01000000 	mrseq	r0, (UNDEF: 0)
    153c:	000007bb 			; <UNDEFINED> instruction: 0x000007bb
    1540:	00000040 	andeq	r0, r0, r0, asr #32
    1544:	00001594 	muleq	r0, r4, r5
    1548:	0000197a 	andeq	r1, r0, sl, ror r9
    154c:	00000d4b 	andeq	r0, r0, fp, asr #26
    1550:	0f060102 	svceq	0x00060102
    1554:	03000000 	movweq	r0, #0
    1558:	0000015f 	andeq	r0, r0, pc, asr r1
    155c:	38182b02 	ldmdacc	r8, {r1, r8, r9, fp, sp}
    1560:	02000000 	andeq	r0, r0, #0
    1564:	000d0801 	andeq	r0, sp, r1, lsl #16
    1568:	02020000 	andeq	r0, r2, #0
    156c:	00013305 	andeq	r3, r1, r5, lsl #6
    1570:	07020200 	streq	r0, [r2, -r0, lsl #4]
    1574:	0000001b 	andeq	r0, r0, fp, lsl r0
    1578:	a4050402 	strge	r0, [r5], #-1026	; 0xfffffbfe
    157c:	03000000 	movweq	r0, #0
    1580:	0000014f 	andeq	r0, r0, pc, asr #2
    1584:	60194f02 	andsvs	r4, r9, r2, lsl #30
    1588:	02000000 	andeq	r0, r0, #0
    158c:	008d0704 	addeq	r0, sp, r4, lsl #14
    1590:	08020000 	stmdaeq	r2, {}	; <UNPREDICTABLE>
    1594:	00009f05 	andeq	r9, r0, r5, lsl #30
    1598:	07080200 	streq	r0, [r8, -r0, lsl #4]
    159c:	00000088 	andeq	r0, r0, r8, lsl #1
    15a0:	69050404 	stmdbvs	r5, {r2, sl}
    15a4:	0200746e 	andeq	r7, r0, #1845493760	; 0x6e000000
    15a8:	00920704 	addseq	r0, r2, r4, lsl #14
    15ac:	61030000 	mrsvs	r0, (UNDEF: 3)
    15b0:	03000001 	movweq	r0, #1
    15b4:	002c1318 	eoreq	r1, ip, r8, lsl r3
    15b8:	83050000 	movwhi	r0, #20480	; 0x5000
    15bc:	03000000 	movweq	r0, #0
    15c0:	00000151 	andeq	r0, r0, r1, asr r1
    15c4:	54143003 	ldrpl	r3, [r4], #-3
    15c8:	06000000 	streq	r0, [r0], -r0
    15cc:	00000790 	muleq	r0, r0, r7
    15d0:	10070404 	andne	r0, r7, r4, lsl #8
    15d4:	000000bd 	strheq	r0, [r0], -sp
    15d8:	00076207 	andeq	r6, r7, r7, lsl #4
    15dc:	0e080400 	cfcpyseq	mvf0, mvf8
    15e0:	00000094 	muleq	r0, r4, r0
    15e4:	00002302 	andeq	r2, r0, r2, lsl #6
    15e8:	0004ca03 	andeq	ip, r4, r3, lsl #20
    15ec:	02090400 	andeq	r0, r9, #0, 8
    15f0:	000000a0 	andeq	r0, r0, r0, lsr #1
    15f4:	00045906 	andeq	r5, r4, r6, lsl #18
    15f8:	12040800 	andne	r0, r4, #0, 16
    15fc:	0000f510 	andeq	pc, r0, r0, lsl r5	; <UNPREDICTABLE>
    1600:	07a00700 	streq	r0, [r0, r0, lsl #14]!
    1604:	13040000 	movwne	r0, #16384	; 0x4000
    1608:	0000f51b 	andeq	pc, r0, fp, lsl r5	; <UNPREDICTABLE>
    160c:	00230200 	eoreq	r0, r3, r0, lsl #4
    1610:	0008a507 	andeq	sl, r8, r7, lsl #10
    1614:	1b140400 	blne	50261c <_etext+0x4ff6ef>
    1618:	000000f5 	strdeq	r0, [r0], -r5
    161c:	00042302 	andeq	r2, r4, r2, lsl #6
    1620:	00c90408 	sbceq	r0, r9, r8, lsl #8
    1624:	02030000 	andeq	r0, r3, #0
    1628:	04000004 	streq	r0, [r0], #-4
    162c:	00c90215 	sbceq	r0, r9, r5, lsl r2
    1630:	0e060000 	cdpeq	0, 0, cr0, cr6, cr0, {0}
    1634:	0c000004 	stceq	0, cr0, [r0], {4}
    1638:	33101904 	tstcc	r0, #4, 18	; 0x10000
    163c:	07000001 	streq	r0, [r0, -r1]
    1640:	0000089b 	muleq	r0, fp, r8
    1644:	fb111a04 	blx	447e5e <_etext+0x444f31>
    1648:	02000000 	andeq	r0, r0, #0
    164c:	43070023 	movwmi	r0, #28707	; 0x7023
    1650:	04000004 	streq	r0, [r0], #-4
    1654:	00940e1b 	addseq	r0, r4, fp, lsl lr
    1658:	23020000 	movwcs	r0, #8192	; 0x2000
    165c:	e9030008 	stmdb	r3, {r3}
    1660:	04000003 	streq	r0, [r0], #-3
    1664:	0107021c 	tsteq	r7, ip, lsl r2
    1668:	01090000 	mrseq	r0, (UNDEF: 9)
    166c:	000007f9 	strdeq	r0, [r0], -r9
    1670:	0106db01 	tsteq	r6, r1, lsl #22
    1674:	0000191c 	andeq	r1, r0, ip, lsl r9
    1678:	0000197a 	andeq	r1, r0, sl, ror r9
    167c:	00001118 	andeq	r1, r0, r8, lsl r1
    1680:	000001a2 	andeq	r0, r0, r2, lsr #3
    1684:	00021c0a 	andeq	r1, r2, sl, lsl #24
    1688:	1adb0100 	bne	ff6c1a90 <_heap_top+0xdf681a90>
    168c:	000001a2 	andeq	r0, r0, r2, lsr #3
    1690:	0a6c9102 	beq	1b25aa0 <_etext+0x1b22b73>
    1694:	00000bb5 			; <UNDEFINED> instruction: 0x00000bb5
    1698:	a82ddb01 	stmdage	sp!, {r0, r8, r9, fp, ip, lr, pc}
    169c:	02000001 	andeq	r0, r0, #1
    16a0:	a50b6891 	strge	r6, [fp, #-2193]	; 0xfffff76f
    16a4:	01000008 	tsteq	r0, r8
    16a8:	01a812dd 	ldrdeq	r1, [r8, sp]!
    16ac:	91020000 	mrsls	r0, (UNDEF: 2)
    16b0:	07a00b74 			; <UNDEFINED> instruction: 0x07a00b74
    16b4:	de010000 	cdple	0, 0, cr0, cr1, cr0, {0}
    16b8:	0001a812 	andeq	sl, r1, r2, lsl r8
    16bc:	70910200 	addsvc	r0, r1, r0, lsl #4
    16c0:	0008250c 	andeq	r2, r8, ip, lsl #10
    16c4:	01ed0100 	mvneq	r0, r0, lsl #2
    16c8:	00001970 	andeq	r1, r0, r0, ror r9
    16cc:	33040800 	movwcc	r0, #18432	; 0x4800
    16d0:	08000001 	stmdaeq	r0, {r0}
    16d4:	0000fb04 	andeq	pc, r0, r4, lsl #22
    16d8:	4a010d00 	bmi	44ae0 <_etext+0x41bb3>
    16dc:	01000008 	tsteq	r0, r8
    16e0:	a8010ec0 	stmdage	r1, {r6, r7, r9, sl, fp}
    16e4:	b2000001 	andlt	r0, r0, #1
    16e8:	1c000018 	stcne	0, cr0, [r0], {24}
    16ec:	74000019 	strvc	r0, [r0], #-25	; 0xffffffe7
    16f0:	15000011 	strne	r0, [r0, #-17]	; 0xffffffef
    16f4:	0a000002 	beq	1704 <list_head>
    16f8:	0000021c 	andeq	r0, r0, ip, lsl r2
    16fc:	a228c001 	eorge	ip, r8, #1
    1700:	02000001 	andeq	r0, r0, #1
    1704:	9b0b6491 	blls	2da950 <_etext+0x2d7a23>
    1708:	01000008 	tsteq	r0, r8
    170c:	01a812c2 			; <UNDEFINED> instruction: 0x01a812c2
    1710:	91020000 	mrsls	r0, (UNDEF: 2)
    1714:	08a50b70 	stmiaeq	r5!, {r4, r5, r6, r8, r9, fp}
    1718:	c3010000 	movwgt	r0, #4096	; 0x1000
    171c:	0001a812 	andeq	sl, r1, r2, lsl r8
    1720:	6c910200 	lfmvs	f0, 4, [r1], {0}
    1724:	7465720e 	strbtvc	r7, [r5], #-526	; 0xfffffdf2
    1728:	12c40100 	sbcne	r0, r4, #0, 2
    172c:	000001a8 	andeq	r0, r0, r8, lsr #3
    1730:	0c749102 	ldfeqp	f1, [r4], #-8
    1734:	00000825 	andeq	r0, r0, r5, lsr #16
    1738:	1001d701 	andne	sp, r1, r1, lsl #14
    173c:	00000019 	andeq	r0, r0, r9, lsl r0
    1740:	08390109 	ldmdaeq	r9!, {r0, r3, r8}
    1744:	ac010000 	stcge	0, cr0, [r1], {-0}
    1748:	18600106 	stmdane	r0!, {r1, r2, r8}^
    174c:	18b20000 	ldmne	r2!, {}	; <UNPREDICTABLE>
    1750:	11d00000 	bicsne	r0, r0, r0
    1754:	02780000 	rsbseq	r0, r8, #0
    1758:	1c0a0000 	stcne	0, cr0, [sl], {-0}
    175c:	01000002 	tsteq	r0, r2
    1760:	01a21fac 			; <UNDEFINED> instruction: 0x01a21fac
    1764:	91020000 	mrsls	r0, (UNDEF: 2)
    1768:	07310a6c 	ldreq	r0, [r1, -ip, ror #20]!
    176c:	ac010000 	stcge	0, cr0, [r1], {-0}
    1770:	0001a832 	andeq	sl, r1, r2, lsr r8
    1774:	68910200 	ldmvs	r1, {r9}
    1778:	00089b0b 	andeq	r9, r8, fp, lsl #22
    177c:	12ae0100 	adcne	r0, lr, #0, 2
    1780:	000001a8 	andeq	r0, r0, r8, lsr #3
    1784:	0b749102 	bleq	1d25b94 <_etext+0x1d22c67>
    1788:	00000845 	andeq	r0, r0, r5, asr #16
    178c:	a812af01 	ldmdage	r2, {r0, r8, r9, sl, fp, sp, pc}
    1790:	02000001 	andeq	r0, r0, #1
    1794:	250c7091 	strcs	r7, [ip, #-145]	; 0xffffff6f
    1798:	01000008 	tsteq	r0, r8
    179c:	18a801bc 	stmiane	r8!, {r2, r3, r4, r5, r7, r8}
    17a0:	09000000 	stmdbeq	r0, {}	; <UNPREDICTABLE>
    17a4:	00088f01 	andeq	r8, r8, r1, lsl #30
    17a8:	06980100 	ldreq	r0, [r8], r0, lsl #2
    17ac:	00180e01 	andseq	r0, r8, r1, lsl #28
    17b0:	00186000 	andseq	r6, r8, r0
    17b4:	00122c00 	andseq	r2, r2, r0, lsl #24
    17b8:	0002db00 	andeq	sp, r2, r0, lsl #22
    17bc:	021c0a00 	andseq	r0, ip, #0, 20
    17c0:	98010000 	stmdals	r1, {}	; <UNPREDICTABLE>
    17c4:	0001a21f 	andeq	sl, r1, pc, lsl r2
    17c8:	6c910200 	lfmvs	f0, 4, [r1], {0}
    17cc:	0007310a 	andeq	r3, r7, sl, lsl #2
    17d0:	32980100 	addscc	r0, r8, #0, 2
    17d4:	000001a8 	andeq	r0, r0, r8, lsr #3
    17d8:	0b689102 	bleq	1a25be8 <_etext+0x1a22cbb>
    17dc:	0000089b 	muleq	r0, fp, r8
    17e0:	a8129a01 	ldmdage	r2, {r0, r9, fp, ip, pc}
    17e4:	02000001 	andeq	r0, r0, #1
    17e8:	a50b7491 	strge	r7, [fp, #-1169]	; 0xfffffb6f
    17ec:	01000008 	tsteq	r0, r8
    17f0:	01a8129b 			; <UNDEFINED> instruction: 0x01a8129b
    17f4:	91020000 	mrsls	r0, (UNDEF: 2)
    17f8:	08250c70 	stmdaeq	r5!, {r4, r5, r6, sl, fp}
    17fc:	a8010000 	stmdage	r1, {}	; <UNPREDICTABLE>
    1800:	00185601 	andseq	r5, r8, r1, lsl #12
    1804:	01090000 	mrseq	r0, (UNDEF: 9)
    1808:	0000087f 	andeq	r0, r0, pc, ror r8
    180c:	01067d01 	tsteq	r6, r1, lsl #26
    1810:	000017a0 	andeq	r1, r0, r0, lsr #15
    1814:	0000180e 	andeq	r1, r0, lr, lsl #16
    1818:	00001288 	andeq	r1, r0, r8, lsl #5
    181c:	0000034d 	andeq	r0, r0, sp, asr #6
    1820:	00021c0a 	andeq	r1, r2, sl, lsl #24
    1824:	1e7d0100 	rpwnee	f0, f5, f0
    1828:	000001a2 	andeq	r0, r0, r2, lsr #3
    182c:	0b649102 	bleq	1925c3c <_etext+0x1922d0f>
    1830:	00000e21 	andeq	r0, r0, r1, lsr #28
    1834:	940e7f01 	strls	r7, [lr], #-3841	; 0xfffff0ff
    1838:	02000000 	andeq	r0, r0, #0
    183c:	9b0b7491 	blls	2dea88 <_etext+0x2dbb5b>
    1840:	01000008 	tsteq	r0, r8
    1844:	01a81280 			; <UNDEFINED> instruction: 0x01a81280
    1848:	91020000 	mrsls	r0, (UNDEF: 2)
    184c:	086b0b6c 	stmdaeq	fp!, {r2, r3, r5, r6, r8, r9, fp}^
    1850:	81010000 	mrshi	r0, (UNDEF: 1)
    1854:	0001a812 	andeq	sl, r1, r2, lsl r8
    1858:	70910200 	addsvc	r0, r1, r0, lsl #4
    185c:	0008120b 	andeq	r1, r8, fp, lsl #4
    1860:	12820100 	addne	r0, r2, #0, 2
    1864:	000001a8 	andeq	r0, r0, r8, lsr #3
    1868:	0c689102 	stfeqp	f1, [r8], #-8
    186c:	00000825 	andeq	r0, r0, r5, lsr #16
    1870:	04019301 	streq	r9, [r1], #-769	; 0xfffffcff
    1874:	00000018 	andeq	r0, r0, r8, lsl r0
    1878:	08a0010d 	stmiaeq	r0!, {r0, r2, r3, r8}
    187c:	74010000 	strvc	r0, [r1], #-0
    1880:	01a8010e 			; <UNDEFINED> instruction: 0x01a8010e
    1884:	177c0000 	ldrbne	r0, [ip, -r0]!
    1888:	17a00000 	strne	r0, [r0, r0]!
    188c:	12e40000 	rscne	r0, r4, #0
    1890:	038a0000 	orreq	r0, sl, #0
    1894:	310a0000 	mrscc	r0, (UNDEF: 10)
    1898:	01000007 	tsteq	r0, r7
    189c:	01a82574 			; <UNDEFINED> instruction: 0x01a82574
    18a0:	91020000 	mrsls	r0, (UNDEF: 2)
    18a4:	65720e6c 	ldrbvs	r0, [r2, #-3692]!	; 0xfffff194
    18a8:	76010074 			; <UNDEFINED> instruction: 0x76010074
    18ac:	0001a812 	andeq	sl, r1, r2, lsl r8
    18b0:	74910200 	ldrvc	r0, [r1], #512	; 0x200
    18b4:	9b010d00 	blls	44cbc <_etext+0x41d8f>
    18b8:	01000007 	tsteq	r0, r7
    18bc:	a8010e6b 	stmdage	r1, {r0, r1, r3, r5, r6, r9, sl, fp}
    18c0:	58000001 	stmdapl	r0, {r0}
    18c4:	7c000017 	stcvc	0, cr0, [r0], {23}
    18c8:	40000017 	andmi	r0, r0, r7, lsl r0
    18cc:	c7000013 	smladgt	r0, r3, r0, r0
    18d0:	0a000003 	beq	18e4 <list_remove_first+0x32>
    18d4:	00000731 	andeq	r0, r0, r1, lsr r7
    18d8:	a8256b01 	stmdage	r5!, {r0, r8, r9, fp, sp, lr}
    18dc:	02000001 	andeq	r0, r0, #1
    18e0:	720e6c91 	andvc	r6, lr, #37120	; 0x9100
    18e4:	01007465 	tsteq	r0, r5, ror #8
    18e8:	01a8126d 			; <UNDEFINED> instruction: 0x01a8126d
    18ec:	91020000 	mrsls	r0, (UNDEF: 2)
    18f0:	010d0074 	tsteq	sp, r4, ror r0
    18f4:	00000875 	andeq	r0, r0, r5, ror r8
    18f8:	010e6101 	tsteq	lr, r1, lsl #2
    18fc:	000001a8 	andeq	r0, r0, r8, lsr #3
    1900:	0000172e 	andeq	r1, r0, lr, lsr #14
    1904:	00001758 	andeq	r1, r0, r8, asr r7
    1908:	0000139c 	muleq	r0, ip, r3
    190c:	00000413 	andeq	r0, r0, r3, lsl r4
    1910:	00021c0a 	andeq	r1, r2, sl, lsl #24
    1914:	20610100 	rsbcs	r0, r1, r0, lsl #2
    1918:	000001a2 	andeq	r0, r0, r2, lsr #3
    191c:	0b6c9102 	bleq	1b25d2c <_etext+0x1b22dff>
    1920:	0000089b 	muleq	r0, fp, r8
    1924:	a8126301 	ldmdage	r2, {r0, r8, r9, sp, lr}
    1928:	02000001 	andeq	r0, r0, #1
    192c:	720e7091 	andvc	r7, lr, #145	; 0x91
    1930:	01007465 	tsteq	r0, r5, ror #8
    1934:	01a81264 			; <UNDEFINED> instruction: 0x01a81264
    1938:	91020000 	mrsls	r0, (UNDEF: 2)
    193c:	010d0074 	tsteq	sp, r4, ror r0
    1940:	000007a5 	andeq	r0, r0, r5, lsr #15
    1944:	010e5701 	tsteq	lr, r1, lsl #14
    1948:	000001a8 	andeq	r0, r0, r8, lsr #3
    194c:	00001704 	andeq	r1, r0, r4, lsl #14
    1950:	0000172e 	andeq	r1, r0, lr, lsr #14
    1954:	000013f8 	strdeq	r1, [r0], -r8
    1958:	0000045f 	andeq	r0, r0, pc, asr r4
    195c:	00021c0a 	andeq	r1, r2, sl, lsl #24
    1960:	20570100 	subscs	r0, r7, r0, lsl #2
    1964:	000001a2 	andeq	r0, r0, r2, lsr #3
    1968:	0b6c9102 	bleq	1b25d78 <_etext+0x1b22e4b>
    196c:	0000089b 	muleq	r0, fp, r8
    1970:	a8125901 	ldmdage	r2, {r0, r8, fp, ip, lr}
    1974:	02000001 	andeq	r0, r0, #1
    1978:	720e7091 	andvc	r7, lr, #145	; 0x91
    197c:	01007465 	tsteq	r0, r5, ror #8
    1980:	01a8125a 			; <UNDEFINED> instruction: 0x01a8125a
    1984:	91020000 	mrsls	r0, (UNDEF: 2)
    1988:	010d0074 	tsteq	sp, r4, ror r0
    198c:	000008aa 	andeq	r0, r0, sl, lsr #17
    1990:	010a4e01 	tsteq	sl, r1, lsl #28
    1994:	00000094 	muleq	r0, r4, r0
    1998:	000016e0 	andeq	r1, r0, r0, ror #13
    199c:	00001704 	andeq	r1, r0, r4, lsl #14
    19a0:	00001454 	andeq	r1, r0, r4, asr r4
    19a4:	0000049c 	muleq	r0, ip, r4
    19a8:	00021c0a 	andeq	r1, r2, sl, lsl #24
    19ac:	1d4e0100 	stfnee	f0, [lr, #-0]
    19b0:	000001a2 	andeq	r0, r0, r2, lsr #3
    19b4:	0e6c9102 	lgneqe	f1, f2
    19b8:	00746572 	rsbseq	r6, r4, r2, ror r5
    19bc:	940e5001 	strls	r5, [lr], #-1
    19c0:	02000000 	andeq	r0, r0, #0
    19c4:	09007491 	stmdbeq	r0, {r0, r4, r7, sl, ip, sp, lr}
    19c8:	00081b01 	andeq	r1, r8, r1, lsl #22
    19cc:	06450100 	strbeq	r0, [r5], -r0, lsl #2
    19d0:	0016bc01 	andseq	fp, r6, r1, lsl #24
    19d4:	0016e000 	andseq	lr, r6, r0
    19d8:	0014b000 	andseq	fp, r4, r0
    19dc:	0004c600 	andeq	ip, r4, r0, lsl #12
    19e0:	021c0a00 	andseq	r0, ip, #0, 20
    19e4:	45010000 	strmi	r0, [r1, #-0]
    19e8:	0001a218 	andeq	sl, r1, r8, lsl r2
    19ec:	74910200 	ldrvc	r0, [r1], #512	; 0x200
    19f0:	5c010900 			; <UNDEFINED> instruction: 0x5c010900
    19f4:	01000008 	tsteq	r0, r8
    19f8:	9801063d 	stmdals	r1, {r0, r2, r3, r4, r5, r9, sl}
    19fc:	bc000016 	stclt	0, cr0, [r0], {22}
    1a00:	00000016 	andeq	r0, r0, r6, lsl r0
    1a04:	f0000015 			; <UNDEFINED> instruction: 0xf0000015
    1a08:	0a000004 	beq	1a20 <event_wakeup+0x24>
    1a0c:	00000bb5 			; <UNDEFINED> instruction: 0x00000bb5
    1a10:	a8223d01 	stmdage	r2!, {r0, r8, sl, fp, ip, sp}
    1a14:	02000001 	andeq	r0, r0, #1
    1a18:	0d007491 	cfstrseq	mvf7, [r0, #-580]	; 0xfffffdbc
    1a1c:	0007d701 	andeq	sp, r7, r1, lsl #14
    1a20:	0a170100 	beq	5c1e28 <_etext+0x5beefb>
    1a24:	00009401 	andeq	r9, r0, r1, lsl #8
    1a28:	00160800 	andseq	r0, r6, r0, lsl #16
    1a2c:	00169800 	andseq	r9, r6, r0, lsl #16
    1a30:	00155c00 	andseq	r5, r5, r0, lsl #24
    1a34:	00053f00 	andeq	r3, r5, r0, lsl #30
    1a38:	07620a00 	strbeq	r0, [r2, -r0, lsl #20]!
    1a3c:	17010000 	strne	r0, [r1, -r0]
    1a40:	00053f29 	andeq	r3, r5, r9, lsr #30
    1a44:	6c910200 	lfmvs	f0, 4, [r1], {0}
    1a48:	736f700e 	cmnvc	pc, #14
    1a4c:	0e190100 	mufeqe	f0, f1, f0
    1a50:	00000094 	muleq	r0, r4, r0
    1a54:	0b749102 	bleq	1d25e64 <_etext+0x1d22f37>
    1a58:	000007af 	andeq	r0, r0, pc, lsr #15
    1a5c:	551a1a01 	ldrpl	r1, [sl, #-2561]	; 0xfffff5ff
    1a60:	05000005 	streq	r0, [r0, #-5]
    1a64:	002d9003 	eoreq	r9, sp, r3
    1a68:	04080000 	streq	r0, [r8], #-0
    1a6c:	000000bd 	strheq	r0, [r0], -sp
    1a70:	00008f0f 	andeq	r8, r0, pc, lsl #30
    1a74:	00055500 	andeq	r5, r5, r0, lsl #10
    1a78:	007c1000 	rsbseq	r1, ip, r0
    1a7c:	00ff0000 	rscseq	r0, pc, r0
    1a80:	00054505 	andeq	r4, r5, r5, lsl #10
    1a84:	ec010900 			; <UNDEFINED> instruction: 0xec010900
    1a88:	01000007 	tsteq	r0, r7
    1a8c:	e0010612 	and	r0, r1, r2, lsl r6
    1a90:	08000015 	stmdaeq	r0, {r0, r2, r4}
    1a94:	ac000016 	stcge	0, cr0, [r0], {22}
    1a98:	93000015 	movwls	r0, #21
    1a9c:	0a000005 	beq	1ab8 <event_wakeup_task+0x4e>
    1aa0:	00000762 	andeq	r0, r0, r2, ror #14
    1aa4:	3f1d1201 	svccc	0x001d1201
    1aa8:	02000005 	andeq	r0, r0, #5
    1aac:	70117491 	mulsvc	r1, r1, r4
    1ab0:	0100736f 	tsteq	r0, pc, ror #6
    1ab4:	00942e12 	addseq	r2, r4, r2, lsl lr
    1ab8:	91020000 	mrsls	r0, (UNDEF: 2)
    1abc:	01090070 	tsteq	r9, r0, ror r0
    1ac0:	000007cc 	andeq	r0, r0, ip, asr #15
    1ac4:	01060d01 	tsteq	r6, r1, lsl #26
    1ac8:	000015ba 			; <UNDEFINED> instruction: 0x000015ba
    1acc:	000015e0 	andeq	r1, r0, r0, ror #11
    1ad0:	00001608 	andeq	r1, r0, r8, lsl #12
    1ad4:	000005cc 	andeq	r0, r0, ip, asr #11
    1ad8:	0007620a 	andeq	r6, r7, sl, lsl #4
    1adc:	1b0d0100 	blne	341ee4 <_etext+0x33efb7>
    1ae0:	0000053f 	andeq	r0, r0, pc, lsr r5
    1ae4:	11749102 	cmnne	r4, r2, lsl #2
    1ae8:	00736f70 	rsbseq	r6, r3, r0, ror pc
    1aec:	942c0d01 	strtls	r0, [ip], #-3329	; 0xfffff2ff
    1af0:	02000000 	andeq	r0, r0, #0
    1af4:	12007091 	andne	r7, r0, #145	; 0x91
    1af8:	00080501 	andeq	r0, r8, r1, lsl #10
    1afc:	0a080100 	beq	201f04 <_etext+0x1fefd7>
    1b00:	00009401 	andeq	r9, r0, r1, lsl #8
    1b04:	0015ac00 	andseq	sl, r5, r0, lsl #24
    1b08:	0015ba00 	andseq	fp, r5, r0, lsl #20
    1b0c:	00166400 	andseq	r6, r6, r0, lsl #8
    1b10:	2d011300 	stccs	3, cr1, [r1, #-0]
    1b14:	01000008 	tsteq	r0, r8
    1b18:	94010603 	strls	r0, [r1], #-1539	; 0xfffff9fd
    1b1c:	ac000015 	stcge	0, cr0, [r0], {21}
    1b20:	a8000015 	stmdage	r0, {r0, r2, r4}
    1b24:	0a000016 	beq	1b84 <event_remove_all+0x6a>
    1b28:	00000762 	andeq	r0, r0, r2, ror #14
    1b2c:	3f1c0301 	svccc	0x001c0301
    1b30:	02000005 	andeq	r0, r0, #5
    1b34:	00007491 	muleq	r0, r1, r4
    1b38:	000005b9 			; <UNDEFINED> instruction: 0x000005b9
    1b3c:	06110002 	ldreq	r0, [r1], -r2
    1b40:	01040000 	mrseq	r0, (UNDEF: 4)
    1b44:	000000ad 	andeq	r0, r0, sp, lsr #1
    1b48:	00090101 	andeq	r0, r9, r1, lsl #2
    1b4c:	00004000 	andeq	r4, r0, r0
    1b50:	00197c00 	andseq	r7, r9, r0, lsl #24
    1b54:	001be600 	andseq	lr, fp, r0, lsl #12
    1b58:	00108b00 	andseq	r8, r0, r0, lsl #22
    1b5c:	06010200 	streq	r0, [r1], -r0, lsl #4
    1b60:	0000000f 	andeq	r0, r0, pc
    1b64:	00015f03 	andeq	r5, r1, r3, lsl #30
    1b68:	182b0200 	stmdane	fp!, {r9}
    1b6c:	00000038 	andeq	r0, r0, r8, lsr r0
    1b70:	0d080102 	stfeqs	f0, [r8, #-8]
    1b74:	02000000 	andeq	r0, r0, #0
    1b78:	01330502 	teqeq	r3, r2, lsl #10
    1b7c:	02020000 	andeq	r0, r2, #0
    1b80:	00001b07 	andeq	r1, r0, r7, lsl #22
    1b84:	05040200 	streq	r0, [r4, #-512]	; 0xfffffe00
    1b88:	000000a4 	andeq	r0, r0, r4, lsr #1
    1b8c:	00014f03 	andeq	r4, r1, r3, lsl #30
    1b90:	194f0200 	stmdbne	pc, {r9}^	; <UNPREDICTABLE>
    1b94:	00000060 	andeq	r0, r0, r0, rrx
    1b98:	8d070402 	cfstrshi	mvf0, [r7, #-8]
    1b9c:	02000000 	andeq	r0, r0, #0
    1ba0:	009f0508 	addseq	r0, pc, r8, lsl #10
    1ba4:	08020000 	stmdaeq	r2, {}	; <UNPREDICTABLE>
    1ba8:	00008807 	andeq	r8, r0, r7, lsl #16
    1bac:	05040400 	streq	r0, [r4, #-1024]	; 0xfffffc00
    1bb0:	00746e69 	rsbseq	r6, r4, r9, ror #28
    1bb4:	92070402 	andls	r0, r7, #33554432	; 0x2000000
    1bb8:	03000000 	movweq	r0, #0
    1bbc:	00000161 	andeq	r0, r0, r1, ror #2
    1bc0:	2c131803 	ldccs	8, cr1, [r3], {3}
    1bc4:	03000000 	movweq	r0, #0
    1bc8:	00000151 	andeq	r0, r0, r1, asr r1
    1bcc:	54143003 	ldrpl	r3, [r4], #-3
    1bd0:	05000000 	streq	r0, [r0, #-0]
    1bd4:	00000459 	andeq	r0, r0, r9, asr r4
    1bd8:	10120408 	andsne	r0, r2, r8, lsl #8
    1bdc:	000000c7 	andeq	r0, r0, r7, asr #1
    1be0:	0007a006 	andeq	sl, r7, r6
    1be4:	1b130400 	blne	4c2bec <_etext+0x4bfcbf>
    1be8:	000000c7 	andeq	r0, r0, r7, asr #1
    1bec:	06002302 	streq	r2, [r0], -r2, lsl #6
    1bf0:	000008a5 	andeq	r0, r0, r5, lsr #17
    1bf4:	c71b1404 	ldrgt	r1, [fp, -r4, lsl #8]
    1bf8:	02000000 	andeq	r0, r0, #0
    1bfc:	07000423 	streq	r0, [r0, -r3, lsr #8]
    1c00:	00009b04 	andeq	r9, r0, r4, lsl #22
    1c04:	04020300 	streq	r0, [r2], #-768	; 0xfffffd00
    1c08:	15040000 	strne	r0, [r4, #-0]
    1c0c:	00009b02 	andeq	r9, r0, r2, lsl #22
    1c10:	040e0500 	streq	r0, [lr], #-1280	; 0xfffffb00
    1c14:	040c0000 	streq	r0, [ip], #-0
    1c18:	01051019 	tsteq	r5, r9, lsl r0
    1c1c:	9b060000 	blls	181c24 <_etext+0x17ecf7>
    1c20:	04000008 	streq	r0, [r0], #-8
    1c24:	00cd111a 	sbceq	r1, sp, sl, lsl r1
    1c28:	23020000 	movwcs	r0, #8192	; 0x2000
    1c2c:	04430600 	strbeq	r0, [r3], #-1536	; 0xfffffa00
    1c30:	1b040000 	blne	101c38 <_etext+0xfed0b>
    1c34:	00008f0e 	andeq	r8, r0, lr, lsl #30
    1c38:	08230200 	stmdaeq	r3!, {r9}
    1c3c:	03e90300 	mvneq	r0, #0, 6
    1c40:	1c040000 	stcne	0, cr0, [r4], {-0}
    1c44:	0000d902 	andeq	sp, r0, r2, lsl #18
    1c48:	06ac0300 	strteq	r0, [ip], r0, lsl #6
    1c4c:	0e050000 	cdpeq	0, 0, cr0, cr5, cr0, {0}
    1c50:	00008f12 	andeq	r8, r0, r2, lsl pc
    1c54:	04f70500 	ldrbteq	r0, [r7], #1280	; 0x500
    1c58:	05480000 	strbeq	r0, [r8, #-0]
    1c5c:	021b1010 	andseq	r1, fp, #16
    1c60:	44060000 	strmi	r0, [r6], #-0
    1c64:	0500000c 	streq	r0, [r0, #-12]
    1c68:	021b1312 	andseq	r1, fp, #1207959552	; 0x48000000
    1c6c:	23020000 	movwcs	r0, #8192	; 0x2000
    1c70:	0ca70600 	stceq	6, cr0, [r7]
    1c74:	13050000 	movwne	r0, #20480	; 0x5000
    1c78:	00008f0e 	andeq	r8, r0, lr, lsl #30
    1c7c:	04230200 	strteq	r0, [r3], #-512	; 0xfffffe00
    1c80:	000dcb06 	andeq	ip, sp, r6, lsl #22
    1c84:	0e140500 	cfmul32eq	mvfx0, mvfx4, mvfx0
    1c88:	0000008f 	andeq	r0, r0, pc, lsl #1
    1c8c:	06082302 	streq	r2, [r8], -r2, lsl #6
    1c90:	0000036f 	andeq	r0, r0, pc, ror #6
    1c94:	cd111705 	ldcgt	7, cr1, [r1, #-20]	; 0xffffffec
    1c98:	02000000 	andeq	r0, r0, #0
    1c9c:	48060c23 	stmdami	r6, {r0, r1, r5, sl, fp}
    1ca0:	0500000d 	streq	r0, [r0, #-13]
    1ca4:	008f0e18 	addeq	r0, pc, r8, lsl lr	; <UNPREDICTABLE>
    1ca8:	23020000 	movwcs	r0, #8192	; 0x2000
    1cac:	072c0614 			; <UNDEFINED> instruction: 0x072c0614
    1cb0:	1b050000 	blne	141cb8 <_etext+0x13ed8b>
    1cb4:	0000cd11 	andeq	ip, r0, r1, lsl sp
    1cb8:	18230200 	stmdane	r3!, {r9}
    1cbc:	0005a106 	andeq	sl, r5, r6, lsl #2
    1cc0:	0e1c0500 	cfmul32eq	mvfx0, mvfx12, mvfx0
    1cc4:	0000008f 	andeq	r0, r0, pc, lsl #1
    1cc8:	06202302 	strteq	r2, [r0], -r2, lsl #6
    1ccc:	000006a0 	andeq	r0, r0, r0, lsr #13
    1cd0:	8f0e1f05 	svchi	0x000e1f05
    1cd4:	02000000 	andeq	r0, r0, #0
    1cd8:	f1062423 			; <UNDEFINED> instruction: 0xf1062423
    1cdc:	05000004 	streq	r0, [r0, #-4]
    1ce0:	022f0c22 	eoreq	r0, pc, #8704	; 0x2200
    1ce4:	23020000 	movwcs	r0, #8192	; 0x2000
    1ce8:	03630628 	cmneq	r3, #40, 12	; 0x2800000
    1cec:	23050000 	movwcs	r0, #20480	; 0x5000
    1cf0:	00022d0b 	andeq	r2, r2, fp, lsl #26
    1cf4:	2c230200 	sfmcs	f0, 4, [r3], #-0
    1cf8:	00065f06 	andeq	r5, r6, r6, lsl #30
    1cfc:	0d240500 	cfstr32eq	mvfx0, [r4, #-0]
    1d00:	00000083 	andeq	r0, r0, r3, lsl #1
    1d04:	06302302 	ldrteq	r2, [r0], -r2, lsl #6
    1d08:	0000038a 	andeq	r0, r0, sl, lsl #7
    1d0c:	61172705 	tstvs	r7, r5, lsl #14
    1d10:	02000002 	andeq	r0, r0, #2
    1d14:	07063423 	streq	r3, [r6, -r3, lsr #8]
    1d18:	05000006 	streq	r0, [r0, #-6]
    1d1c:	022d0b28 	eoreq	r0, sp, #40, 22	; 0xa000
    1d20:	23020000 	movwcs	r0, #8192	; 0x2000
    1d24:	03f00638 	mvnseq	r0, #56, 12	; 0x3800000
    1d28:	29050000 	stmdbcs	r5, {}	; <UNPREDICTABLE>
    1d2c:	00008f0e 	andeq	r8, r0, lr, lsl #30
    1d30:	3c230200 	sfmcc	f0, 4, [r3], #-0
    1d34:	0005bf06 	andeq	fp, r5, r6, lsl #30
    1d38:	0e2c0500 	cfsh64eq	mvdx0, mvdx12, #0
    1d3c:	0000008f 	andeq	r0, r0, pc, lsl #1
    1d40:	06402302 	strbeq	r2, [r0], -r2, lsl #6
    1d44:	0000044e 	andeq	r0, r0, lr, asr #8
    1d48:	8f0e2d05 	svchi	0x000e2d05
    1d4c:	02000000 	andeq	r0, r0, #0
    1d50:	07004423 	streq	r4, [r0, -r3, lsr #8]
    1d54:	00011104 	andeq	r1, r1, r4, lsl #2
    1d58:	2d010800 	stccs	8, cr0, [r1, #-0]
    1d5c:	09000002 	stmdbeq	r0, {r1}
    1d60:	0000022d 	andeq	r0, r0, sp, lsr #4
    1d64:	07040a00 	streq	r0, [r4, -r0, lsl #20]
    1d68:	00022104 	andeq	r2, r2, r4, lsl #2
    1d6c:	03950500 	orrseq	r0, r5, #0, 10
    1d70:	06100000 	ldreq	r0, [r0], -r0
    1d74:	0261101b 	rsbeq	r1, r1, #27
    1d78:	c9060000 	stmdbgt	r6, {}	; <UNPREDICTABLE>
    1d7c:	06000005 	streq	r0, [r0], -r5
    1d80:	0279121c 	rsbseq	r1, r9, #28, 4	; 0xc0000001
    1d84:	23020000 	movwcs	r0, #8192	; 0x2000
    1d88:	07050600 	streq	r0, [r5, -r0, lsl #12]
    1d8c:	1d060000 	stcne	0, cr0, [r6, #-0]
    1d90:	0001050c 	andeq	r0, r1, ip, lsl #10
    1d94:	04230200 	strteq	r0, [r3], #-512	; 0xfffffe00
    1d98:	35040700 	strcc	r0, [r4, #-1792]	; 0xfffff900
    1d9c:	03000002 	movweq	r0, #2
    1da0:	000004b3 			; <UNDEFINED> instruction: 0x000004b3
    1da4:	1d022f05 	stcne	15, cr2, [r2, #-20]	; 0xffffffec
    1da8:	07000001 	streq	r0, [r0, -r1]
    1dac:	00026704 	andeq	r6, r2, r4, lsl #14
    1db0:	05850300 	streq	r0, [r5, #768]	; 0x300
    1db4:	13060000 	movwne	r0, #24576	; 0x6000
    1db8:	00008f12 	andeq	r8, r0, r2, lsl pc
    1dbc:	06f40300 	ldrbteq	r0, [r4], r0, lsl #6
    1dc0:	1e060000 	cdpne	0, 0, cr0, cr6, cr0, {0}
    1dc4:	00023502 	andeq	r3, r2, r2, lsl #10
    1dc8:	06c80b00 	strbeq	r0, [r8], r0, lsl #22
    1dcc:	07010000 	streq	r0, [r1, -r0]
    1dd0:	02bd0e05 	adcseq	r0, sp, #5, 28	; 0x50
    1dd4:	d30c0000 	movwle	r0, #49152	; 0xc000
    1dd8:	00000003 	andeq	r0, r0, r3
    1ddc:	0007480c 	andeq	r4, r7, ip, lsl #16
    1de0:	410c0100 	mrsmi	r0, (UNDEF: 28)
    1de4:	02000005 	andeq	r0, r0, #5
    1de8:	0005000c 	andeq	r0, r5, ip
    1dec:	670c0300 	strvs	r0, [ip, -r0, lsl #6]
    1df0:	04000004 	streq	r0, [r0], #-4
    1df4:	c0010d00 	andgt	r0, r1, r0, lsl #26
    1df8:	01000008 	tsteq	r0, r8
    1dfc:	8f010a6b 	svchi	0x00010a6b
    1e00:	b8000000 	stmdalt	r0, {}	; <UNPREDICTABLE>
    1e04:	e600001b 			; <UNDEFINED> instruction: 0xe600001b
    1e08:	0400001b 	streq	r0, [r0], #-27	; 0xffffffe5
    1e0c:	09000017 	stmdbeq	r0, {r0, r1, r2, r4}
    1e10:	0e000003 	cdpeq	0, 0, cr0, cr0, cr3, {0}
    1e14:	0000038f 	andeq	r0, r0, pc, lsl #7
    1e18:	09246b01 	stmdbeq	r4!, {r0, r8, r9, fp, sp, lr}
    1e1c:	02000003 	andeq	r0, r0, #3
    1e20:	210f6c91 			; <UNDEFINED> instruction: 0x210f6c91
    1e24:	0100000e 	tsteq	r0, lr
    1e28:	008f0e6d 	addeq	r0, pc, sp, ror #28
    1e2c:	91020000 	mrsls	r0, (UNDEF: 2)
    1e30:	05f80f74 	ldrbeq	r0, [r8, #3956]!	; 0xf74
    1e34:	6e010000 	cdpvs	0, 0, cr0, cr1, cr0, {0}
    1e38:	00008f0e 	andeq	r8, r0, lr, lsl #30
    1e3c:	70910200 	addsvc	r0, r1, r0, lsl #4
    1e40:	85040700 	strhi	r0, [r4, #-1792]	; 0xfffff900
    1e44:	0d000002 	stceq	0, cr0, [r0, #-8]
    1e48:	0008e301 	andeq	lr, r8, r1, lsl #6
    1e4c:	0a520100 	beq	1482254 <_etext+0x147f327>
    1e50:	00008f01 	andeq	r8, r0, r1, lsl #30
    1e54:	001b1a00 	andseq	r1, fp, r0, lsl #20
    1e58:	001bb800 	andseq	fp, fp, r0, lsl #16
    1e5c:	00175400 	andseq	r5, r7, r0, lsl #8
    1e60:	0003b100 	andeq	fp, r3, r0, lsl #2
    1e64:	038f0e00 	orreq	r0, pc, #0, 28
    1e68:	52010000 	andpl	r0, r1, #0
    1e6c:	00030924 	andeq	r0, r3, r4, lsr #18
    1e70:	64910200 	ldrvs	r0, [r1], #512	; 0x200
    1e74:	67736d10 			; <UNDEFINED> instruction: 0x67736d10
    1e78:	31520100 	cmpcc	r2, r0, lsl #2
    1e7c:	0000022d 	andeq	r0, r0, sp, lsr #4
    1e80:	0e609102 	lgneqs	f1, f2
    1e84:	000003fb 	strdeq	r0, [r0], -fp
    1e88:	8f3f5201 	svchi	0x003f5201
    1e8c:	02000000 	andeq	r0, r0, #0
    1e90:	b50f5c91 	strlt	r5, [pc, #-3217]	; 1207 <task_unready+0x1f>
    1e94:	0100000b 	tsteq	r0, fp
    1e98:	03b11254 			; <UNDEFINED> instruction: 0x03b11254
    1e9c:	91020000 	mrsls	r0, (UNDEF: 2)
    1ea0:	0e210f74 	mcreq	15, 1, r0, cr1, cr4, {3}
    1ea4:	55010000 	strpl	r0, [r1, #-0]
    1ea8:	00008f0e 	andeq	r8, r0, lr, lsl #30
    1eac:	70910200 	addsvc	r0, r1, r0, lsl #4
    1eb0:	0005f80f 	andeq	pc, r5, pc, lsl #16
    1eb4:	0e560100 	rdfeqs	f0, f6, f0
    1eb8:	0000008f 	andeq	r0, r0, pc, lsl #1
    1ebc:	116c9102 	cmnne	ip, r2, lsl #2
    1ec0:	000006fc 	strdeq	r0, [r0], -ip
    1ec4:	000003c7 	andeq	r0, r0, r7, asr #7
    1ec8:	a4030501 	strge	r0, [r3], #-1281	; 0xfffffaff
    1ecc:	1200002e 	andne	r0, r0, #46	; 0x2e
    1ed0:	00001b4a 	andeq	r1, r0, sl, asr #22
    1ed4:	00001b88 	andeq	r1, r0, r8, lsl #23
    1ed8:	00041e0f 	andeq	r1, r4, pc, lsl #28
    1edc:	115c0100 	cmpne	ip, r0, lsl #2
    1ee0:	00000273 	andeq	r0, r0, r3, ror r2
    1ee4:	00689102 	rsbeq	r9, r8, r2, lsl #2
    1ee8:	cd040700 	stcgt	7, cr0, [r4, #-0]
    1eec:	13000000 	movwne	r0, #0
    1ef0:	000003d3 	ldrdeq	r0, [r0], -r3
    1ef4:	000003c7 	andeq	r0, r0, r7, asr #7
    1ef8:	00007c14 	andeq	r7, r0, r4, lsl ip
    1efc:	15001000 	strne	r1, [r0, #-0]
    1f00:	000003b7 			; <UNDEFINED> instruction: 0x000003b7
    1f04:	16080102 	strne	r0, [r8], -r2, lsl #2
    1f08:	15000000 	strne	r0, [r0, #-0]
    1f0c:	000003cc 	andeq	r0, r0, ip, asr #7
    1f10:	09140116 	ldmdbeq	r4, {r1, r2, r4, r8}
    1f14:	45010000 	strmi	r0, [r1, #-0]
    1f18:	1aca0106 	bne	ff282338 <_heap_top+0xdf242338>
    1f1c:	1b1a0000 	blne	681f24 <_etext+0x67eff7>
    1f20:	17a40000 	strne	r0, [r4, r0]!
    1f24:	042f0000 	strteq	r0, [pc], #-0	; 1f2c <mbox_send+0x38>
    1f28:	1e0e0000 	cdpne	0, 0, cr0, cr14, cr0, {0}
    1f2c:	01000004 	tsteq	r0, r4
    1f30:	02732045 	rsbseq	r2, r3, #69	; 0x45
    1f34:	91020000 	mrsls	r0, (UNDEF: 2)
    1f38:	736d106c 	cmnvc	sp, #108	; 0x6c
    1f3c:	45010067 	strmi	r0, [r1, #-103]	; 0xffffff99
    1f40:	00022d2c 	andeq	r2, r2, ip, lsr #26
    1f44:	68910200 	ldmvs	r1, {r9}
    1f48:	0003fb0e 	andeq	pc, r3, lr, lsl #22
    1f4c:	3a450100 	bcc	1142354 <_etext+0x113f427>
    1f50:	0000008f 	andeq	r0, r0, pc, lsl #1
    1f54:	0f649102 	svceq	0x00649102
    1f58:	000005f8 	strdeq	r0, [r0], -r8
    1f5c:	8f0e4701 	svchi	0x000e4701
    1f60:	02000000 	andeq	r0, r0, #0
    1f64:	0d007491 	cfstrseq	mvf7, [r0, #-580]	; 0xfffffdbc
    1f68:	0008d101 	andeq	sp, r8, r1, lsl #2
    1f6c:	09320100 	ldmdbeq	r2!, {r8}
    1f70:	00027301 	andeq	r7, r2, r1, lsl #6
    1f74:	001a6a00 	andseq	r6, sl, r0, lsl #20
    1f78:	001aca00 	andseq	ip, sl, r0, lsl #20
    1f7c:	0017f400 	andseq	pc, r7, r0, lsl #8
    1f80:	00049900 	andeq	r9, r4, r0, lsl #18
    1f84:	038f0e00 	orreq	r0, pc, #0, 28
    1f88:	32010000 	andcc	r0, r1, #0
    1f8c:	00030924 	andeq	r0, r3, r4, lsr #18
    1f90:	6c910200 	lfmvs	f0, 4, [r1], {0}
    1f94:	00041e0e 	andeq	r1, r4, lr, lsl #28
    1f98:	33320100 	teqcc	r2, #0, 2
    1f9c:	00000273 	andeq	r0, r0, r3, ror r2
    1fa0:	10689102 	rsbne	r9, r8, r2, lsl #2
    1fa4:	0067736d 	rsbeq	r7, r7, sp, ror #6
    1fa8:	2d3f3201 	lfmcs	f3, 4, [pc, #-4]!	; 1fac <mbox_send+0xb8>
    1fac:	02000002 	andeq	r0, r0, #2
    1fb0:	fb0e6491 	blx	39b1fe <_etext+0x3982d1>
    1fb4:	01000003 	tsteq	r0, r3
    1fb8:	008f4d32 	addeq	r4, pc, r2, lsr sp	; <UNPREDICTABLE>
    1fbc:	91020000 	mrsls	r0, (UNDEF: 2)
    1fc0:	05f80f60 	ldrbeq	r0, [r8, #3936]!	; 0xf60
    1fc4:	35010000 	strcc	r0, [r1, #-0]
    1fc8:	00008f0e 	andeq	r8, r0, lr, lsl #30
    1fcc:	74910200 	ldrvc	r0, [r1], #512	; 0x200
    1fd0:	f4010d00 			; <UNDEFINED> instruction: 0xf4010d00
    1fd4:	01000008 	tsteq	r0, r8
    1fd8:	7301091b 	movwvc	r0, #6427	; 0x191b
    1fdc:	fc000002 	stc2	0, cr0, [r0], {2}
    1fe0:	6a000019 	bvs	204c <mbox_get_info+0x6>
    1fe4:	4400001a 	strmi	r0, [r0], #-26	; 0xffffffe6
    1fe8:	12000018 	andne	r0, r0, #24
    1fec:	0e000005 	cdpeq	0, 0, cr0, cr0, cr5, {0}
    1ff0:	0000038f 	andeq	r0, r0, pc, lsl #7
    1ff4:	091f1b01 	ldmdbeq	pc, {r0, r8, r9, fp, ip}	; <UNPREDICTABLE>
    1ff8:	02000003 	andeq	r0, r0, #3
    1ffc:	6d106491 	cfldrsvs	mvf6, [r0, #-580]	; 0xfffffdbc
    2000:	01006773 	tsteq	r0, r3, ror r7
    2004:	022d2c1b 	eoreq	r2, sp, #6912	; 0x1b00
    2008:	91020000 	mrsls	r0, (UNDEF: 2)
    200c:	03fb0e60 	mvnseq	r0, #96, 28	; 0x600
    2010:	1b010000 	blne	42018 <_etext+0x3f0eb>
    2014:	00008f3a 	andeq	r8, r0, sl, lsr pc
    2018:	5c910200 	lfmpl	f0, 4, [r1], {0}
    201c:	000bb50f 	andeq	fp, fp, pc, lsl #10
    2020:	121d0100 	andsne	r0, sp, #0, 2
    2024:	000003b1 			; <UNDEFINED> instruction: 0x000003b1
    2028:	0f709102 	svceq	0x00709102
    202c:	0000041e 	andeq	r0, r0, lr, lsl r4
    2030:	730d1e01 	movwvc	r1, #56833	; 0xde01
    2034:	02000002 	andeq	r0, r0, #2
    2038:	f80f7491 			; <UNDEFINED> instruction: 0xf80f7491
    203c:	01000005 	tsteq	r0, r5
    2040:	008f0e20 	addeq	r0, pc, r0, lsr #28
    2044:	91020000 	mrsls	r0, (UNDEF: 2)
    2048:	0116006c 	tsteq	r6, ip, rrx
    204c:	000008b5 			; <UNDEFINED> instruction: 0x000008b5
    2050:	01060a01 	tsteq	r6, r1, lsl #20
    2054:	0000199e 	muleq	r0, lr, r9
    2058:	000019fc 	strdeq	r1, [r0], -ip
    205c:	00001894 	muleq	r0, r4, r8
    2060:	00000587 	andeq	r0, r0, r7, lsl #11
    2064:	00038f0e 	andeq	r8, r3, lr, lsl #30
    2068:	1a0a0100 	bne	282470 <_etext+0x27f543>
    206c:	00000309 	andeq	r0, r0, r9, lsl #6
    2070:	0e6c9102 	lgneqe	f1, f2
    2074:	0000041e 	andeq	r0, r0, lr, lsl r4
    2078:	73290a01 			; <UNDEFINED> instruction: 0x73290a01
    207c:	02000002 	andeq	r0, r0, #2
    2080:	6d106891 	ldcvs	8, cr6, [r0, #-580]	; 0xfffffdbc
    2084:	01006773 	tsteq	r0, r3, ror r7
    2088:	022d350a 	eoreq	r3, sp, #41943040	; 0x2800000
    208c:	91020000 	mrsls	r0, (UNDEF: 2)
    2090:	0d480e64 	stcleq	14, cr0, [r8, #-400]	; 0xfffffe70
    2094:	0a010000 	beq	4209c <_etext+0x3f16f>
    2098:	00008f43 	andeq	r8, r0, r3, asr #30
    209c:	60910200 	addsvs	r0, r1, r0, lsl #4
    20a0:	0009310e 	andeq	r3, r9, lr, lsl #2
    20a4:	530a0100 	movwpl	r0, #41216	; 0xa100
    20a8:	0000008f 	andeq	r0, r0, pc, lsl #1
    20ac:	0f009102 	svceq	0x00009102
    20b0:	000005f8 	strdeq	r0, [r0], -r8
    20b4:	8f0e0c01 	svchi	0x000e0c01
    20b8:	02000000 	andeq	r0, r0, #0
    20bc:	17007491 			; <UNDEFINED> instruction: 0x17007491
    20c0:	00092601 	andeq	r2, r9, r1, lsl #12
    20c4:	06040100 	streq	r0, [r4], -r0, lsl #2
    20c8:	00197c01 	andseq	r7, r9, r1, lsl #24
    20cc:	00199e00 	andseq	r9, r9, r0, lsl #28
    20d0:	0018e400 	andseq	lr, r8, r0, lsl #8
    20d4:	038f0e00 	orreq	r0, pc, #0, 28
    20d8:	04010000 	streq	r0, [r1], #-0
    20dc:	0003091a 	andeq	r0, r3, sl, lsl r9
    20e0:	74910200 	ldrvc	r0, [r1], #512	; 0x200
    20e4:	0005c90e 	andeq	ip, r5, lr, lsl #18
    20e8:	2e040100 	adfcss	f0, f4, f0
    20ec:	00000279 	andeq	r0, r0, r9, ror r2
    20f0:	00709102 	rsbseq	r9, r0, r2, lsl #2
    20f4:	00051500 	andeq	r1, r5, r0, lsl #10
    20f8:	53000200 	movwpl	r0, #512	; 0x200
    20fc:	04000007 	streq	r0, [r0], #-7
    2100:	0000ad01 	andeq	sl, r0, r1, lsl #26
    2104:	09a20100 	stmibeq	r2!, {r8}
    2108:	00400000 	subeq	r0, r0, r0
    210c:	1be80000 	blne	ffa02114 <_heap_top+0xdf9c2114>
    2110:	1db40000 	ldcne	0, cr0, [r4]
    2114:	12df0000 	sbcsne	r0, pc, #0
    2118:	01020000 	mrseq	r0, (UNDEF: 2)
    211c:	00000f06 	andeq	r0, r0, r6, lsl #30
    2120:	015f0300 	cmpeq	pc, r0, lsl #6
    2124:	2b020000 	blcs	8212c <_etext+0x7f1ff>
    2128:	00003818 	andeq	r3, r0, r8, lsl r8
    212c:	08010200 	stmdaeq	r1, {r9}
    2130:	0000000d 	andeq	r0, r0, sp
    2134:	33050202 	movwcc	r0, #20994	; 0x5202
    2138:	02000001 	andeq	r0, r0, #1
    213c:	001b0702 	andseq	r0, fp, r2, lsl #14
    2140:	04020000 	streq	r0, [r2], #-0
    2144:	0000a405 	andeq	sl, r0, r5, lsl #8
    2148:	014f0300 	mrseq	r0, (UNDEF: 127)
    214c:	4f020000 	svcmi	0x00020000
    2150:	00006019 	andeq	r6, r0, r9, lsl r0
    2154:	07040200 	streq	r0, [r4, -r0, lsl #4]
    2158:	0000008d 	andeq	r0, r0, sp, lsl #1
    215c:	9f050802 	svcls	0x00050802
    2160:	02000000 	andeq	r0, r0, #0
    2164:	00880708 	addeq	r0, r8, r8, lsl #14
    2168:	04040000 	streq	r0, [r4], #-0
    216c:	746e6905 	strbtvc	r6, [lr], #-2309	; 0xfffff6fb
    2170:	07040200 	streq	r0, [r4, -r0, lsl #4]
    2174:	00000092 	muleq	r0, r2, r0
    2178:	00016103 	andeq	r6, r1, r3, lsl #2
    217c:	13180300 	tstne	r8, #0, 6
    2180:	0000002c 	andeq	r0, r0, ip, lsr #32
    2184:	00015103 	andeq	r5, r1, r3, lsl #2
    2188:	14300300 	ldrtne	r0, [r0], #-768	; 0xfffffd00
    218c:	00000054 	andeq	r0, r0, r4, asr r0
    2190:	00045905 	andeq	r5, r4, r5, lsl #18
    2194:	12040800 	andne	r0, r4, #0, 16
    2198:	0000c710 	andeq	ip, r0, r0, lsl r7
    219c:	07a00600 	streq	r0, [r0, r0, lsl #12]!
    21a0:	13040000 	movwne	r0, #16384	; 0x4000
    21a4:	0000c71b 	andeq	ip, r0, fp, lsl r7
    21a8:	00230200 	eoreq	r0, r3, r0, lsl #4
    21ac:	0008a506 	andeq	sl, r8, r6, lsl #10
    21b0:	1b140400 	blne	5031b8 <_etext+0x50028b>
    21b4:	000000c7 	andeq	r0, r0, r7, asr #1
    21b8:	00042302 	andeq	r2, r4, r2, lsl #6
    21bc:	009b0407 	addseq	r0, fp, r7, lsl #8
    21c0:	02030000 	andeq	r0, r3, #0
    21c4:	04000004 	streq	r0, [r0], #-4
    21c8:	009b0215 	addseq	r0, fp, r5, lsl r2
    21cc:	0e050000 	cdpeq	0, 0, cr0, cr5, cr0, {0}
    21d0:	0c000004 	stceq	0, cr0, [r0], {4}
    21d4:	05101904 	ldreq	r1, [r0, #-2308]	; 0xfffff6fc
    21d8:	06000001 	streq	r0, [r0], -r1
    21dc:	0000089b 	muleq	r0, fp, r8
    21e0:	cd111a04 	vldrgt	s2, [r1, #-16]
    21e4:	02000000 	andeq	r0, r0, #0
    21e8:	43060023 	movwmi	r0, #24611	; 0x6023
    21ec:	04000004 	streq	r0, [r0], #-4
    21f0:	008f0e1b 	addeq	r0, pc, fp, lsl lr	; <UNPREDICTABLE>
    21f4:	23020000 	movwcs	r0, #8192	; 0x2000
    21f8:	e9030008 	stmdb	r3, {r3}
    21fc:	04000003 	streq	r0, [r0], #-3
    2200:	00d9021c 	sbcseq	r0, r9, ip, lsl r2
    2204:	ac030000 	stcge	0, cr0, [r3], {-0}
    2208:	05000006 	streq	r0, [r0, #-6]
    220c:	008f120e 	addeq	r1, pc, lr, lsl #4
    2210:	f7050000 			; <UNDEFINED> instruction: 0xf7050000
    2214:	48000004 	stmdami	r0, {r2}
    2218:	1b101005 	blne	406234 <_etext+0x403307>
    221c:	06000002 	streq	r0, [r0], -r2
    2220:	00000c44 	andeq	r0, r0, r4, asr #24
    2224:	1b131205 	blne	4c6a40 <_etext+0x4c3b13>
    2228:	02000002 	andeq	r0, r0, #2
    222c:	a7060023 	strge	r0, [r6, -r3, lsr #32]
    2230:	0500000c 	streq	r0, [r0, #-12]
    2234:	008f0e13 	addeq	r0, pc, r3, lsl lr	; <UNPREDICTABLE>
    2238:	23020000 	movwcs	r0, #8192	; 0x2000
    223c:	0dcb0604 	stcleq	6, cr0, [fp, #16]
    2240:	14050000 	strne	r0, [r5], #-0
    2244:	00008f0e 	andeq	r8, r0, lr, lsl #30
    2248:	08230200 	stmdaeq	r3!, {r9}
    224c:	00036f06 	andeq	r6, r3, r6, lsl #30
    2250:	11170500 	tstne	r7, r0, lsl #10
    2254:	000000cd 	andeq	r0, r0, sp, asr #1
    2258:	060c2302 	streq	r2, [ip], -r2, lsl #6
    225c:	00000d48 	andeq	r0, r0, r8, asr #26
    2260:	8f0e1805 	svchi	0x000e1805
    2264:	02000000 	andeq	r0, r0, #0
    2268:	2c061423 	cfstrscs	mvf1, [r6], {35}	; 0x23
    226c:	05000007 	streq	r0, [r0, #-7]
    2270:	00cd111b 	sbceq	r1, sp, fp, lsl r1
    2274:	23020000 	movwcs	r0, #8192	; 0x2000
    2278:	05a10618 	streq	r0, [r1, #1560]!	; 0x618
    227c:	1c050000 	stcne	0, cr0, [r5], {-0}
    2280:	00008f0e 	andeq	r8, r0, lr, lsl #30
    2284:	20230200 	eorcs	r0, r3, r0, lsl #4
    2288:	0006a006 	andeq	sl, r6, r6
    228c:	0e1f0500 	cfmul32eq	mvfx0, mvfx15, mvfx0
    2290:	0000008f 	andeq	r0, r0, pc, lsl #1
    2294:	06242302 	strteq	r2, [r4], -r2, lsl #6
    2298:	000004f1 	strdeq	r0, [r0], -r1
    229c:	2f0c2205 	svccs	0x000c2205
    22a0:	02000002 	andeq	r0, r0, #2
    22a4:	63062823 	movwvs	r2, #26659	; 0x6823
    22a8:	05000003 	streq	r0, [r0, #-3]
    22ac:	022d0b23 	eoreq	r0, sp, #35840	; 0x8c00
    22b0:	23020000 	movwcs	r0, #8192	; 0x2000
    22b4:	065f062c 	ldrbeq	r0, [pc], -ip, lsr #12
    22b8:	24050000 	strcs	r0, [r5], #-0
    22bc:	0000830d 	andeq	r8, r0, sp, lsl #6
    22c0:	30230200 	eorcc	r0, r3, r0, lsl #4
    22c4:	00038a06 	andeq	r8, r3, r6, lsl #20
    22c8:	17270500 	strne	r0, [r7, -r0, lsl #10]!
    22cc:	00000261 	andeq	r0, r0, r1, ror #4
    22d0:	06342302 	ldrteq	r2, [r4], -r2, lsl #6
    22d4:	00000607 	andeq	r0, r0, r7, lsl #12
    22d8:	2d0b2805 	stccs	8, cr2, [fp, #-20]	; 0xffffffec
    22dc:	02000002 	andeq	r0, r0, #2
    22e0:	f0063823 			; <UNDEFINED> instruction: 0xf0063823
    22e4:	05000003 	streq	r0, [r0, #-3]
    22e8:	008f0e29 	addeq	r0, pc, r9, lsr #28
    22ec:	23020000 	movwcs	r0, #8192	; 0x2000
    22f0:	05bf063c 	ldreq	r0, [pc, #1596]!	; 2934 <flag_group_check_and_consume+0x84>
    22f4:	2c050000 	stccs	0, cr0, [r5], {-0}
    22f8:	00008f0e 	andeq	r8, r0, lr, lsl #30
    22fc:	40230200 	eormi	r0, r3, r0, lsl #4
    2300:	00044e06 	andeq	r4, r4, r6, lsl #28
    2304:	0e2d0500 	cfsh64eq	mvdx0, mvdx13, #0
    2308:	0000008f 	andeq	r0, r0, pc, lsl #1
    230c:	00442302 	subeq	r2, r4, r2, lsl #6
    2310:	01110407 	tsteq	r1, r7, lsl #8
    2314:	01080000 	mrseq	r0, (UNDEF: 8)
    2318:	0000022d 	andeq	r0, r0, sp, lsr #4
    231c:	00022d09 	andeq	r2, r2, r9, lsl #26
    2320:	040a0000 	streq	r0, [sl], #-0
    2324:	02210407 	eoreq	r0, r1, #117440512	; 0x7000000
    2328:	95050000 	strls	r0, [r5, #-0]
    232c:	10000003 	andne	r0, r0, r3
    2330:	61101b06 	tstvs	r0, r6, lsl #22
    2334:	06000002 	streq	r0, [r0], -r2
    2338:	000005c9 	andeq	r0, r0, r9, asr #11
    233c:	87121c06 	ldrhi	r1, [r2, -r6, lsl #24]
    2340:	02000002 	andeq	r0, r0, #2
    2344:	05060023 	streq	r0, [r6, #-35]	; 0xffffffdd
    2348:	06000007 	streq	r0, [r0], -r7
    234c:	01050c1d 	tsteq	r5, sp, lsl ip
    2350:	23020000 	movwcs	r0, #8192	; 0x2000
    2354:	04070004 	streq	r0, [r7], #-4
    2358:	00000235 	andeq	r0, r0, r5, lsr r2
    235c:	0004b303 	andeq	fp, r4, r3, lsl #6
    2360:	022f0500 	eoreq	r0, pc, #0, 10
    2364:	0000011d 	andeq	r0, r0, sp, lsl r1
    2368:	0006b90b 	andeq	fp, r6, fp, lsl #18
    236c:	103a0500 	eorsne	r0, sl, r0, lsl #10
    2370:	00000281 	andeq	r0, r0, r1, lsl #5
    2374:	04070101 	streq	r0, [r7], #-257	; 0xfffffeff
    2378:	00000267 	andeq	r0, r0, r7, ror #4
    237c:	00058503 	andeq	r8, r5, r3, lsl #10
    2380:	12130600 	andsne	r0, r3, #0, 12
    2384:	0000008f 	andeq	r0, r0, pc, lsl #1
    2388:	0006f403 	andeq	pc, r6, r3, lsl #8
    238c:	021e0600 	andseq	r0, lr, #0, 12
    2390:	00000235 	andeq	r0, r0, r5, lsr r2
    2394:	0009b305 	andeq	fp, r9, r5, lsl #6
    2398:	07071800 	streq	r1, [r7, -r0, lsl #16]
    239c:	0002da10 	andeq	sp, r2, r0, lsl sl
    23a0:	038f0600 	orreq	r0, pc, #0, 12
    23a4:	09070000 	stmdbeq	r7, {}	; <UNPREDICTABLE>
    23a8:	0002930d 	andeq	r9, r2, sp, lsl #6
    23ac:	00230200 	eoreq	r0, r3, r0, lsl #4
    23b0:	000e2106 	andeq	r2, lr, r6, lsl #2
    23b4:	0e0a0700 	cdpeq	7, 0, cr0, cr10, cr0, {0}
    23b8:	0000008f 	andeq	r0, r0, pc, lsl #1
    23bc:	06102302 	ldreq	r2, [r0], -r2, lsl #6
    23c0:	000009bb 			; <UNDEFINED> instruction: 0x000009bb
    23c4:	8f0e0b07 	svchi	0x000e0b07
    23c8:	02000000 	andeq	r0, r0, #0
    23cc:	03001423 	movweq	r1, #1059	; 0x423
    23d0:	00000986 	andeq	r0, r0, r6, lsl #19
    23d4:	9f020c07 	svcls	0x00020c07
    23d8:	05000002 	streq	r0, [r0, #-2]
    23dc:	000009c5 	andeq	r0, r0, r5, asr #19
    23e0:	100e070c 	andne	r0, lr, ip, lsl #14
    23e4:	00000321 	andeq	r0, r0, r1, lsr #6
    23e8:	000e2106 	andeq	r2, lr, r6, lsl #2
    23ec:	0e0f0700 	cdpeq	7, 0, cr0, cr15, cr0, {0}
    23f0:	0000008f 	andeq	r0, r0, pc, lsl #1
    23f4:	06002302 	streq	r2, [r0], -r2, lsl #6
    23f8:	000009bb 			; <UNDEFINED> instruction: 0x000009bb
    23fc:	8f0e1007 	svchi	0x000e1007
    2400:	02000000 	andeq	r0, r0, #0
    2404:	39060423 	stmdbcc	r6, {r0, r1, r5, sl}
    2408:	07000009 	streq	r0, [r0, -r9]
    240c:	008f0e11 	addeq	r0, pc, r1, lsl lr	; <UNPREDICTABLE>
    2410:	23020000 	movwcs	r0, #8192	; 0x2000
    2414:	8c030008 	stchi	0, cr0, [r3], {8}
    2418:	07000009 	streq	r0, [r0, -r9]
    241c:	02e60212 	rsceq	r0, r6, #536870913	; 0x20000001
    2420:	c80c0000 	stmdagt	ip, {}	; <UNPREDICTABLE>
    2424:	01000006 	tsteq	r0, r6
    2428:	590e0508 	stmdbpl	lr, {r3, r8, sl}
    242c:	0d000003 	stceq	0, cr0, [r0, #-12]
    2430:	000003d3 	ldrdeq	r0, [r0], -r3
    2434:	07480d00 	strbeq	r0, [r8, -r0, lsl #26]
    2438:	0d010000 	stceq	0, cr0, [r1, #-0]
    243c:	00000541 	andeq	r0, r0, r1, asr #10
    2440:	05000d02 	streq	r0, [r0, #-3330]	; 0xfffff2fe
    2444:	0d030000 	stceq	0, cr0, [r3, #-0]
    2448:	00000467 	andeq	r0, r0, r7, ror #8
    244c:	010e0004 	tsteq	lr, r4
    2450:	000009d2 	ldrdeq	r0, [r0], -r2
    2454:	010a4901 	tsteq	sl, r1, lsl #18
    2458:	0000008f 	andeq	r0, r0, pc, lsl #1
    245c:	00001d78 	andeq	r1, r0, r8, ror sp
    2460:	00001db4 			; <UNDEFINED> instruction: 0x00001db4
    2464:	00001934 	andeq	r1, r0, r4, lsr r9
    2468:	000003a5 	andeq	r0, r0, r5, lsr #7
    246c:	6d65730f 	stclvs	3, cr7, [r5, #-60]!	; 0xffffffc4
    2470:	1d490100 	stfnee	f0, [r9, #-0]
    2474:	000003a5 	andeq	r0, r0, r5, lsr #7
    2478:	106c9102 	rsbne	r9, ip, r2, lsl #2
    247c:	000005f8 	strdeq	r0, [r0], -r8
    2480:	8f0e4b01 	svchi	0x000e4b01
    2484:	02000000 	andeq	r0, r0, #0
    2488:	21107491 			; <UNDEFINED> instruction: 0x21107491
    248c:	0100000e 	tsteq	r0, lr
    2490:	008f0e4d 	addeq	r0, pc, sp, asr #28
    2494:	91020000 	mrsls	r0, (UNDEF: 2)
    2498:	04070070 	streq	r0, [r7], #-112	; 0xffffff90
    249c:	000002da 	ldrdeq	r0, [r0], -sl
    24a0:	094d0111 	stmdbeq	sp, {r0, r4, r8}^
    24a4:	40010000 	andmi	r0, r1, r0
    24a8:	1d3c0106 	ldfnes	f0, [ip, #-24]!	; 0xffffffe8
    24ac:	1d780000 	ldclne	0, cr0, [r8, #-0]
    24b0:	19840000 	stmibne	r4, {}	; <UNPREDICTABLE>
    24b4:	03f30000 	mvnseq	r0, #0
    24b8:	730f0000 	movwvc	r0, #61440	; 0xf000
    24bc:	01006d65 	tsteq	r0, r5, ror #26
    24c0:	03a51a40 			; <UNDEFINED> instruction: 0x03a51a40
    24c4:	91020000 	mrsls	r0, (UNDEF: 2)
    24c8:	053c126c 	ldreq	r1, [ip, #-620]!	; 0xfffffd94
    24cc:	40010000 	andmi	r0, r1, r0
    24d0:	0003f32b 	andeq	pc, r3, fp, lsr #6
    24d4:	68910200 	ldmvs	r1, {r9}
    24d8:	0005f810 	andeq	pc, r5, r0, lsl r8	; <UNPREDICTABLE>
    24dc:	0e420100 	dvfeqs	f0, f2, f0
    24e0:	0000008f 	andeq	r0, r0, pc, lsl #1
    24e4:	00749102 	rsbseq	r9, r4, r2, lsl #2
    24e8:	03210407 			; <UNDEFINED> instruction: 0x03210407
    24ec:	01110000 	tsteq	r1, r0
    24f0:	0000096e 	andeq	r0, r0, lr, ror #18
    24f4:	01062f01 	tsteq	r6, r1, lsl #30
    24f8:	00001cc4 	andeq	r1, r0, r4, asr #25
    24fc:	00001d3c 	andeq	r1, r0, ip, lsr sp
    2500:	000019d4 	ldrdeq	r1, [r0], -r4
    2504:	0000044b 	andeq	r0, r0, fp, asr #8
    2508:	6d65730f 	stclvs	3, cr7, [r5, #-60]!	; 0xffffffc4
    250c:	192f0100 	stmdbne	pc!, {r8}	; <UNPREDICTABLE>
    2510:	000003a5 	andeq	r0, r0, r5, lsr #7
    2514:	106c9102 	rsbne	r9, ip, r2, lsl #2
    2518:	000005f8 	strdeq	r0, [r0], -r8
    251c:	8f0e3101 	svchi	0x000e3101
    2520:	02000000 	andeq	r0, r0, #0
    2524:	e0137491 	muls	r3, r1, r4
    2528:	0200001c 	andeq	r0, r0, #28
    252c:	1000001d 	andne	r0, r0, sp, lsl r0
    2530:	0000041e 	andeq	r0, r0, lr, lsl r4
    2534:	81113301 	tsthi	r1, r1, lsl #6
    2538:	02000002 	andeq	r0, r0, #2
    253c:	00007091 	muleq	r0, r1, r0
    2540:	095a010e 	ldmdbeq	sl, {r1, r2, r3, r8}^
    2544:	21010000 	mrscs	r0, (UNDEF: 1)
    2548:	008f010a 	addeq	r0, pc, sl, lsl #2
    254c:	1c800000 	stcne	0, cr0, [r0], {0}
    2550:	1cc40000 	stclne	0, cr0, [r4], {0}
    2554:	1a240000 	bne	90255c <_etext+0x8ff62f>
    2558:	04880000 	streq	r0, [r8], #0
    255c:	730f0000 	movwvc	r0, #61440	; 0xf000
    2560:	01006d65 	tsteq	r0, r5, ror #26
    2564:	03a52521 			; <UNDEFINED> instruction: 0x03a52521
    2568:	91020000 	mrsls	r0, (UNDEF: 2)
    256c:	05f8106c 	ldrbeq	r1, [r8, #108]!	; 0x6c
    2570:	23010000 	movwcs	r0, #4096	; 0x1000
    2574:	00008f0e 	andeq	r8, r0, lr, lsl #30
    2578:	74910200 	ldrvc	r0, [r1], #512	; 0x200
    257c:	7a010e00 	bvc	45d84 <_etext+0x42e57>
    2580:	01000009 	tsteq	r0, r9
    2584:	8f010a10 	svchi	0x00010a10
    2588:	24000000 	strcs	r0, [r0], #-0
    258c:	8000001c 	andhi	r0, r0, ip, lsl r0
    2590:	7400001c 	strvc	r0, [r0], #-28	; 0xffffffe4
    2594:	d400001a 	strle	r0, [r0], #-26	; 0xffffffe6
    2598:	0f000004 	svceq	0x00000004
    259c:	006d6573 	rsbeq	r6, sp, r3, ror r5
    25a0:	a51d1001 	ldrge	r1, [sp, #-1]
    25a4:	02000003 	andeq	r0, r0, #3
    25a8:	97126c91 			; <UNDEFINED> instruction: 0x97126c91
    25ac:	01000009 	tsteq	r0, r9
    25b0:	008f2b10 	addeq	r2, pc, r0, lsl fp	; <UNPREDICTABLE>
    25b4:	91020000 	mrsls	r0, (UNDEF: 2)
    25b8:	05f81068 	ldrbeq	r1, [r8, #104]!	; 0x68
    25bc:	12010000 	andne	r0, r1, #0
    25c0:	00008f0e 	andeq	r8, r0, lr, lsl #30
    25c4:	74910200 	ldrvc	r0, [r1], #512	; 0x200
    25c8:	44011400 	strmi	r1, [r1], #-1024	; 0xfffffc00
    25cc:	01000009 	tsteq	r0, r9
    25d0:	e8010605 	stmda	r1, {r0, r2, r9, sl}
    25d4:	2400001b 	strcs	r0, [r0], #-27	; 0xffffffe5
    25d8:	c400001c 	strgt	r0, [r0], #-28	; 0xffffffe4
    25dc:	0f00001a 	svceq	0x0000001a
    25e0:	006d6573 	rsbeq	r6, sp, r3, ror r5
    25e4:	a5160501 	ldrge	r0, [r6, #-1281]	; 0xfffffaff
    25e8:	02000003 	andeq	r0, r0, #3
    25ec:	21127491 			; <UNDEFINED> instruction: 0x21127491
    25f0:	0100000e 	tsteq	r0, lr
    25f4:	008f2405 	addeq	r2, pc, r5, lsl #8
    25f8:	91020000 	mrsls	r0, (UNDEF: 2)
    25fc:	09bb1270 	ldmibeq	fp!, {r4, r5, r6, r9, ip}
    2600:	05010000 	streq	r0, [r1, #-0]
    2604:	00008f34 	andeq	r8, r0, r4, lsr pc
    2608:	6c910200 	lfmvs	f0, 4, [r1], {0}
    260c:	05b70000 	ldreq	r0, [r7, #0]!
    2610:	00020000 	andeq	r0, r2, r0
    2614:	00000882 	andeq	r0, r0, r2, lsl #17
    2618:	00ad0104 	adceq	r0, sp, r4, lsl #2
    261c:	f8010000 			; <UNDEFINED> instruction: 0xf8010000
    2620:	40000009 	andmi	r0, r0, r9
    2624:	b4000000 	strlt	r0, [r0], #-0
    2628:	8200001d 	andhi	r0, r0, #29
    262c:	07000020 	streq	r0, [r0, -r0, lsr #32]
    2630:	02000015 	andeq	r0, r0, #21
    2634:	000f0601 	andeq	r0, pc, r1, lsl #12
    2638:	5f030000 	svcpl	0x00030000
    263c:	02000001 	andeq	r0, r0, #1
    2640:	0038182b 	eorseq	r1, r8, fp, lsr #16
    2644:	01020000 	mrseq	r0, (UNDEF: 2)
    2648:	00000d08 	andeq	r0, r0, r8, lsl #26
    264c:	05020200 	streq	r0, [r2, #-512]	; 0xfffffe00
    2650:	00000133 	andeq	r0, r0, r3, lsr r1
    2654:	1b070202 	blne	1c2e64 <_etext+0x1bff37>
    2658:	02000000 	andeq	r0, r0, #0
    265c:	00a40504 	adceq	r0, r4, r4, lsl #10
    2660:	4f030000 	svcmi	0x00030000
    2664:	02000001 	andeq	r0, r0, #1
    2668:	0060194f 	rsbeq	r1, r0, pc, asr #18
    266c:	04020000 	streq	r0, [r2], #-0
    2670:	00008d07 	andeq	r8, r0, r7, lsl #26
    2674:	05080200 	streq	r0, [r8, #-512]	; 0xfffffe00
    2678:	0000009f 	muleq	r0, pc, r0	; <UNPREDICTABLE>
    267c:	88070802 	stmdahi	r7, {r1, fp}
    2680:	04000000 	streq	r0, [r0], #-0
    2684:	6e690504 	cdpvs	5, 6, cr0, cr9, cr4, {0}
    2688:	04020074 	streq	r0, [r2], #-116	; 0xffffff8c
    268c:	00009207 	andeq	r9, r0, r7, lsl #4
    2690:	01610300 	cmneq	r1, r0, lsl #6
    2694:	18030000 	stmdane	r3, {}	; <UNPREDICTABLE>
    2698:	00002c13 	andeq	r2, r0, r3, lsl ip
    269c:	01510300 	cmpeq	r1, r0, lsl #6
    26a0:	30030000 	andcc	r0, r3, r0
    26a4:	00005414 	andeq	r5, r0, r4, lsl r4
    26a8:	04590500 	ldrbeq	r0, [r9], #-1280	; 0xfffffb00
    26ac:	04080000 	streq	r0, [r8], #-0
    26b0:	00c71012 	sbceq	r1, r7, r2, lsl r0
    26b4:	a0060000 	andge	r0, r6, r0
    26b8:	04000007 	streq	r0, [r0], #-7
    26bc:	00c71b13 	sbceq	r1, r7, r3, lsl fp
    26c0:	23020000 	movwcs	r0, #8192	; 0x2000
    26c4:	08a50600 	stmiaeq	r5!, {r9, sl}
    26c8:	14040000 	strne	r0, [r4], #-0
    26cc:	0000c71b 	andeq	ip, r0, fp, lsl r7
    26d0:	04230200 	strteq	r0, [r3], #-512	; 0xfffffe00
    26d4:	9b040700 	blls	1042dc <_etext+0x1013af>
    26d8:	03000000 	movweq	r0, #0
    26dc:	00000402 	andeq	r0, r0, r2, lsl #8
    26e0:	9b021504 	blls	87af8 <_etext+0x84bcb>
    26e4:	05000000 	streq	r0, [r0, #-0]
    26e8:	0000040e 	andeq	r0, r0, lr, lsl #8
    26ec:	1019040c 	andsne	r0, r9, ip, lsl #8
    26f0:	00000105 	andeq	r0, r0, r5, lsl #2
    26f4:	00089b06 	andeq	r9, r8, r6, lsl #22
    26f8:	111a0400 	tstne	sl, r0, lsl #8
    26fc:	000000cd 	andeq	r0, r0, sp, asr #1
    2700:	06002302 	streq	r2, [r0], -r2, lsl #6
    2704:	00000443 	andeq	r0, r0, r3, asr #8
    2708:	8f0e1b04 	svchi	0x000e1b04
    270c:	02000000 	andeq	r0, r0, #0
    2710:	03000823 	movweq	r0, #2083	; 0x823
    2714:	000003e9 	andeq	r0, r0, r9, ror #7
    2718:	d9021c04 	stmdble	r2, {r2, sl, fp, ip}
    271c:	03000000 	movweq	r0, #0
    2720:	000006ac 	andeq	r0, r0, ip, lsr #13
    2724:	8f120e05 	svchi	0x00120e05
    2728:	05000000 	streq	r0, [r0, #-0]
    272c:	000004f7 	strdeq	r0, [r0], -r7
    2730:	10100548 	andsne	r0, r0, r8, asr #10
    2734:	0000021b 	andeq	r0, r0, fp, lsl r2
    2738:	000c4406 	andeq	r4, ip, r6, lsl #8
    273c:	13120500 	tstne	r2, #0, 10
    2740:	0000021b 	andeq	r0, r0, fp, lsl r2
    2744:	06002302 	streq	r2, [r0], -r2, lsl #6
    2748:	00000ca7 	andeq	r0, r0, r7, lsr #25
    274c:	8f0e1305 	svchi	0x000e1305
    2750:	02000000 	andeq	r0, r0, #0
    2754:	cb060423 	blgt	1837e8 <_etext+0x1808bb>
    2758:	0500000d 	streq	r0, [r0, #-13]
    275c:	008f0e14 	addeq	r0, pc, r4, lsl lr	; <UNPREDICTABLE>
    2760:	23020000 	movwcs	r0, #8192	; 0x2000
    2764:	036f0608 	cmneq	pc, #8, 12	; 0x800000
    2768:	17050000 	strne	r0, [r5, -r0]
    276c:	0000cd11 	andeq	ip, r0, r1, lsl sp
    2770:	0c230200 	sfmeq	f0, 4, [r3], #-0
    2774:	000d4806 	andeq	r4, sp, r6, lsl #16
    2778:	0e180500 	cfmul32eq	mvfx0, mvfx8, mvfx0
    277c:	0000008f 	andeq	r0, r0, pc, lsl #1
    2780:	06142302 	ldreq	r2, [r4], -r2, lsl #6
    2784:	0000072c 	andeq	r0, r0, ip, lsr #14
    2788:	cd111b05 	vldrgt	d1, [r1, #-20]	; 0xffffffec
    278c:	02000000 	andeq	r0, r0, #0
    2790:	a1061823 	tstge	r6, r3, lsr #16
    2794:	05000005 	streq	r0, [r0, #-5]
    2798:	008f0e1c 	addeq	r0, pc, ip, lsl lr	; <UNPREDICTABLE>
    279c:	23020000 	movwcs	r0, #8192	; 0x2000
    27a0:	06a00620 	strteq	r0, [r0], r0, lsr #12
    27a4:	1f050000 	svcne	0x00050000
    27a8:	00008f0e 	andeq	r8, r0, lr, lsl #30
    27ac:	24230200 	strtcs	r0, [r3], #-512	; 0xfffffe00
    27b0:	0004f106 	andeq	pc, r4, r6, lsl #2
    27b4:	0c220500 	cfstr32eq	mvfx0, [r2], #-0
    27b8:	0000022f 	andeq	r0, r0, pc, lsr #4
    27bc:	06282302 	strteq	r2, [r8], -r2, lsl #6
    27c0:	00000363 	andeq	r0, r0, r3, ror #6
    27c4:	2d0b2305 	stccs	3, cr2, [fp, #-20]	; 0xffffffec
    27c8:	02000002 	andeq	r0, r0, #2
    27cc:	5f062c23 	svcpl	0x00062c23
    27d0:	05000006 	streq	r0, [r0, #-6]
    27d4:	00830d24 	addeq	r0, r3, r4, lsr #26
    27d8:	23020000 	movwcs	r0, #8192	; 0x2000
    27dc:	038a0630 	orreq	r0, sl, #48, 12	; 0x3000000
    27e0:	27050000 	strcs	r0, [r5, -r0]
    27e4:	00026117 	andeq	r6, r2, r7, lsl r1
    27e8:	34230200 	strtcc	r0, [r3], #-512	; 0xfffffe00
    27ec:	00060706 	andeq	r0, r6, r6, lsl #14
    27f0:	0b280500 	bleq	a03bf8 <_etext+0xa00ccb>
    27f4:	0000022d 	andeq	r0, r0, sp, lsr #4
    27f8:	06382302 	ldrteq	r2, [r8], -r2, lsl #6
    27fc:	000003f0 	strdeq	r0, [r0], -r0	; <UNPREDICTABLE>
    2800:	8f0e2905 	svchi	0x000e2905
    2804:	02000000 	andeq	r0, r0, #0
    2808:	bf063c23 	svclt	0x00063c23
    280c:	05000005 	streq	r0, [r0, #-5]
    2810:	008f0e2c 	addeq	r0, pc, ip, lsr #28
    2814:	23020000 	movwcs	r0, #8192	; 0x2000
    2818:	044e0640 	strbeq	r0, [lr], #-1600	; 0xfffff9c0
    281c:	2d050000 	stccs	0, cr0, [r5, #-0]
    2820:	00008f0e 	andeq	r8, r0, lr, lsl #30
    2824:	44230200 	strtmi	r0, [r3], #-512	; 0xfffffe00
    2828:	11040700 	tstne	r4, r0, lsl #14
    282c:	08000001 	stmdaeq	r0, {r0}
    2830:	00022d01 	andeq	r2, r2, r1, lsl #26
    2834:	022d0900 	eoreq	r0, sp, #0, 18
    2838:	0a000000 	beq	2840 <mutex_get_info+0x14>
    283c:	21040704 	tstcs	r4, r4, lsl #14
    2840:	05000002 	streq	r0, [r0, #-2]
    2844:	00000395 	muleq	r0, r5, r3
    2848:	101b0610 	andsne	r0, fp, r0, lsl r6
    284c:	00000261 	andeq	r0, r0, r1, ror #4
    2850:	0005c906 	andeq	ip, r5, r6, lsl #18
    2854:	121c0600 	andsne	r0, ip, #0, 12
    2858:	00000287 	andeq	r0, r0, r7, lsl #5
    285c:	06002302 	streq	r2, [r0], -r2, lsl #6
    2860:	00000705 	andeq	r0, r0, r5, lsl #14
    2864:	050c1d06 	streq	r1, [ip, #-3334]	; 0xfffff2fa
    2868:	02000001 	andeq	r0, r0, #1
    286c:	07000423 	streq	r0, [r0, -r3, lsr #8]
    2870:	00023504 	andeq	r3, r2, r4, lsl #10
    2874:	04b30300 	ldrteq	r0, [r3], #768	; 0x300
    2878:	2f050000 	svccs	0x00050000
    287c:	00011d02 	andeq	r1, r1, r2, lsl #26
    2880:	06b90b00 	ldrteq	r0, [r9], r0, lsl #22
    2884:	3a050000 	bcc	14288c <_etext+0x13f95f>
    2888:	00028110 	andeq	r8, r2, r0, lsl r1
    288c:	07010100 	streq	r0, [r1, -r0, lsl #2]
    2890:	00026704 	andeq	r6, r2, r4, lsl #14
    2894:	05850300 	streq	r0, [r5, #768]	; 0x300
    2898:	13060000 	movwne	r0, #24576	; 0x6000
    289c:	00008f12 	andeq	r8, r0, r2, lsl pc
    28a0:	06f40300 	ldrbteq	r0, [r4], r0, lsl #6
    28a4:	1e060000 	cdpne	0, 0, cr0, cr6, cr0, {0}
    28a8:	00023502 	andeq	r3, r2, r2, lsl #10
    28ac:	0a120500 	beq	483cb4 <_etext+0x480d87>
    28b0:	07240000 	streq	r0, [r4, -r0]!
    28b4:	03071009 	movweq	r1, #28681	; 0x7009
    28b8:	8f060000 	svchi	0x00060000
    28bc:	07000003 	streq	r0, [r0, -r3]
    28c0:	02930d0b 	addseq	r0, r3, #704	; 0x2c0
    28c4:	23020000 	movwcs	r0, #8192	; 0x2000
    28c8:	0e210600 	cfmadda32eq	mvax0, mvax0, mvfx1, mvfx0
    28cc:	0c070000 	stceq	0, cr0, [r7], {-0}
    28d0:	00008f0e 	andeq	r8, r0, lr, lsl #30
    28d4:	10230200 	eorne	r0, r3, r0, lsl #4
    28d8:	000a0d06 	andeq	r0, sl, r6, lsl #26
    28dc:	0e0d0700 	cdpeq	7, 0, cr0, cr13, cr0, {0}
    28e0:	0000008f 	andeq	r0, r0, pc, lsl #1
    28e4:	06142302 	ldreq	r2, [r4], -r2, lsl #6
    28e8:	00000a75 	andeq	r0, r0, r5, ror sl
    28ec:	8f0e0e07 	svchi	0x000e0e07
    28f0:	02000000 	andeq	r0, r0, #0
    28f4:	bb061823 	bllt	188988 <_etext+0x185a5b>
    28f8:	07000009 	streq	r0, [r0, -r9]
    28fc:	008f0e0f 	addeq	r0, pc, pc, lsl #28
    2900:	23020000 	movwcs	r0, #8192	; 0x2000
    2904:	0a90061c 	beq	fe40417c <_heap_top+0xde3c417c>
    2908:	10070000 	andne	r0, r7, r0
    290c:	0003070c 	andeq	r0, r3, ip, lsl #14
    2910:	20230200 	eorcs	r0, r3, r0, lsl #4
    2914:	2d040700 	stccs	7, cr0, [r4, #-0]
    2918:	03000002 	movweq	r0, #2
    291c:	00000a50 	andeq	r0, r0, r0, asr sl
    2920:	9f021207 	svcls	0x00021207
    2924:	05000002 	streq	r0, [r0, #-2]
    2928:	00000a29 	andeq	r0, r0, r9, lsr #20
    292c:	1014070c 	andsne	r0, r4, ip, lsl #14
    2930:	00000354 	andeq	r0, r0, r4, asr r3
    2934:	000e2106 	andeq	r2, lr, r6, lsl #2
    2938:	0e150700 	cdpeq	7, 1, cr0, cr5, cr0, {0}
    293c:	0000008f 	andeq	r0, r0, pc, lsl #1
    2940:	06002302 	streq	r2, [r0], -r2, lsl #6
    2944:	000009bb 			; <UNDEFINED> instruction: 0x000009bb
    2948:	8f0e1607 	svchi	0x000e1607
    294c:	02000000 	andeq	r0, r0, #0
    2950:	39060423 	stmdbcc	r6, {r0, r1, r5, sl}
    2954:	07000009 	streq	r0, [r0, -r9]
    2958:	008f0e17 	addeq	r0, pc, r7, lsl lr	; <UNPREDICTABLE>
    295c:	23020000 	movwcs	r0, #8192	; 0x2000
    2960:	44030008 	strmi	r0, [r3], #-8
    2964:	0700000a 	streq	r0, [r0, -sl]
    2968:	03190218 	tsteq	r9, #24, 4	; 0x80000001
    296c:	c80c0000 	stmdagt	ip, {}	; <UNPREDICTABLE>
    2970:	01000006 	tsteq	r0, r6
    2974:	8c0e0508 	cfstr32hi	mvfx0, [lr], {8}
    2978:	0d000003 	stceq	0, cr0, [r0, #-12]
    297c:	000003d3 	ldrdeq	r0, [r0], -r3
    2980:	07480d00 	strbeq	r0, [r8, -r0, lsl #26]
    2984:	0d010000 	stceq	0, cr0, [r1, #-0]
    2988:	00000541 	andeq	r0, r0, r1, asr #10
    298c:	05000d02 	streq	r0, [r0, #-3330]	; 0xfffff2fe
    2990:	0d030000 	stceq	0, cr0, [r3, #-0]
    2994:	00000467 	andeq	r0, r0, r7, ror #8
    2998:	010e0004 	tsteq	lr, r4
    299c:	00000a1b 	andeq	r0, r0, fp, lsl sl
    29a0:	01067801 	tsteq	r6, r1, lsl #16
    29a4:	00002046 	andeq	r2, r0, r6, asr #32
    29a8:	00002082 	andeq	r2, r0, r2, lsl #1
    29ac:	00001b14 	andeq	r1, r0, r4, lsl fp
    29b0:	000003d4 	ldrdeq	r0, [r0], -r4
    29b4:	000a570f 	andeq	r5, sl, pc, lsl #14
    29b8:	1c780100 	ldfnee	f0, [r8], #-0
    29bc:	000003d4 	ldrdeq	r0, [r0], -r4
    29c0:	0f6c9102 	svceq	0x006c9102
    29c4:	0000053c 	andeq	r0, r0, ip, lsr r5
    29c8:	da2f7801 	ble	be09d4 <_etext+0xbddaa7>
    29cc:	02000003 	andeq	r0, r0, #3
    29d0:	f8106891 			; <UNDEFINED> instruction: 0xf8106891
    29d4:	01000005 	tsteq	r0, r5
    29d8:	008f0e7a 	addeq	r0, pc, sl, ror lr	; <UNPREDICTABLE>
    29dc:	91020000 	mrsls	r0, (UNDEF: 2)
    29e0:	04070074 	streq	r0, [r7], #-116	; 0xffffff8c
    29e4:	0000030d 	andeq	r0, r0, sp, lsl #6
    29e8:	03540407 	cmpeq	r4, #117440512	; 0x7000000
    29ec:	01110000 	tsteq	r1, r0
    29f0:	00000a37 	andeq	r0, r0, r7, lsr sl
    29f4:	010a6a01 	tsteq	sl, r1, lsl #20
    29f8:	0000008f 	andeq	r0, r0, pc, lsl #1
    29fc:	00002010 	andeq	r2, r0, r0, lsl r0
    2a00:	00002046 	andeq	r2, r0, r6, asr #32
    2a04:	00001b64 	andeq	r1, r0, r4, ror #22
    2a08:	0000042c 	andeq	r0, r0, ip, lsr #8
    2a0c:	000a570f 	andeq	r5, sl, pc, lsl #14
    2a10:	1f6a0100 	svcne	0x006a0100
    2a14:	000003d4 	ldrdeq	r0, [r0], -r4
    2a18:	106c9102 	rsbne	r9, ip, r2, lsl #2
    2a1c:	000005f8 	strdeq	r0, [r0], -r8
    2a20:	8f0e6c01 	svchi	0x000e6c01
    2a24:	02000000 	andeq	r0, r0, #0
    2a28:	21107491 			; <UNDEFINED> instruction: 0x21107491
    2a2c:	0100000e 	tsteq	r0, lr
    2a30:	008f0e6e 	addeq	r0, pc, lr, ror #28
    2a34:	91020000 	mrsls	r0, (UNDEF: 2)
    2a38:	010e0070 	tsteq	lr, r0, ror r0
    2a3c:	00000a85 	andeq	r0, r0, r5, lsl #21
    2a40:	01065d01 	tsteq	r6, r1, lsl #26
    2a44:	00001fd4 	ldrdeq	r1, [r0], -r4
    2a48:	00002010 	andeq	r2, r0, r0, lsl r0
    2a4c:	00001bb4 			; <UNDEFINED> instruction: 0x00001bb4
    2a50:	00000465 	andeq	r0, r0, r5, ror #8
    2a54:	000a570f 	andeq	r5, sl, pc, lsl #14
    2a58:	195d0100 	ldmdbne	sp, {r8}^
    2a5c:	000003d4 	ldrdeq	r0, [r0], -r4
    2a60:	106c9102 	rsbne	r9, ip, r2, lsl #2
    2a64:	000005f8 	strdeq	r0, [r0], -r8
    2a68:	8f0e5f01 	svchi	0x000e5f01
    2a6c:	02000000 	andeq	r0, r0, #0
    2a70:	11007491 			; <UNDEFINED> instruction: 0x11007491
    2a74:	000a6b01 	andeq	r6, sl, r1, lsl #22
    2a78:	0a390100 	beq	e42e80 <_etext+0xe3ff53>
    2a7c:	00008f01 	andeq	r8, r0, r1, lsl #30
    2a80:	001ef400 	andseq	pc, lr, r0, lsl #8
    2a84:	001fd400 	andseq	sp, pc, r0, lsl #8
    2a88:	001c0400 	andseq	r0, ip, r0, lsl #8
    2a8c:	0004cf00 	andeq	ip, r4, r0, lsl #30
    2a90:	0a570f00 	beq	15c6698 <_etext+0x15c376b>
    2a94:	39010000 	stmdbcc	r1, {}	; <UNPREDICTABLE>
    2a98:	0003d41c 	andeq	sp, r3, ip, lsl r4
    2a9c:	6c910200 	lfmvs	f0, 4, [r1], {0}
    2aa0:	67736d12 			; <UNDEFINED> instruction: 0x67736d12
    2aa4:	28390100 	ldmdacs	r9!, {r8}
    2aa8:	0000022d 	andeq	r0, r0, sp, lsr #4
    2aac:	0f689102 	svceq	0x00689102
    2ab0:	00000a5c 	andeq	r0, r0, ip, asr sl
    2ab4:	8f363901 	svchi	0x00363901
    2ab8:	02000000 	andeq	r0, r0, #0
    2abc:	f8106491 			; <UNDEFINED> instruction: 0xf8106491
    2ac0:	01000005 	tsteq	r0, r5
    2ac4:	008f0e3b 	addeq	r0, pc, fp, lsr lr	; <UNPREDICTABLE>
    2ac8:	91020000 	mrsls	r0, (UNDEF: 2)
    2acc:	041e1074 	ldreq	r1, [lr], #-116	; 0xffffff8c
    2ad0:	3c010000 	stccc	0, cr0, [r1], {-0}
    2ad4:	0002810d 	andeq	r8, r2, sp, lsl #2
    2ad8:	70910200 	addsvc	r0, r1, r0, lsl #4
    2adc:	e7011100 	str	r1, [r1, -r0, lsl #2]
    2ae0:	01000009 	tsteq	r0, r9
    2ae4:	8f010a26 	svchi	0x00010a26
    2ae8:	84000000 	strhi	r0, [r0], #-0
    2aec:	f400001e 	vst4.8	{d0-d3}, [r0 :64], lr
    2af0:	5400001e 	strpl	r0, [r0], #-30	; 0xffffffe2
    2af4:	1b00001c 	blne	2b6c <task1_entry+0x4>
    2af8:	0f000005 	svceq	0x00000005
    2afc:	00000a57 	andeq	r0, r0, r7, asr sl
    2b00:	d4232601 	strtle	r2, [r3], #-1537	; 0xfffff9ff
    2b04:	02000003 	andeq	r0, r0, #3
    2b08:	6d126c91 	ldcvs	12, cr6, [r2, #-580]	; 0xfffffdbc
    2b0c:	01006773 	tsteq	r0, r3, ror r7
    2b10:	03073026 	movweq	r3, #28710	; 0x7026
    2b14:	91020000 	mrsls	r0, (UNDEF: 2)
    2b18:	05f81068 	ldrbeq	r1, [r8, #104]!	; 0x68
    2b1c:	28010000 	stmdacs	r1, {}	; <UNPREDICTABLE>
    2b20:	00008f0e 	andeq	r8, r0, lr, lsl #30
    2b24:	74910200 	ldrvc	r0, [r1], #512	; 0x200
    2b28:	de011100 	adfles	f1, f1, f0
    2b2c:	01000009 	tsteq	r0, r9
    2b30:	8f010a0f 	svchi	0x00010a0f
    2b34:	f2000000 	vhadd.s8	d0, d0, d0
    2b38:	8400001d 	strhi	r0, [r0], #-29	; 0xffffffe3
    2b3c:	a400001e 	strge	r0, [r0], #-30	; 0xffffffe2
    2b40:	7600001c 			; <UNDEFINED> instruction: 0x7600001c
    2b44:	0f000005 	svceq	0x00000005
    2b48:	00000a57 	andeq	r0, r0, r7, asr sl
    2b4c:	d41b0f01 	ldrle	r0, [fp], #-3841	; 0xfffff0ff
    2b50:	02000003 	andeq	r0, r0, #3
    2b54:	6d126c91 	ldcvs	12, cr6, [r2, #-580]	; 0xfffffdbc
    2b58:	01006773 	tsteq	r0, r3, ror r7
    2b5c:	0307280f 	movweq	r2, #30735	; 0x780f
    2b60:	91020000 	mrsls	r0, (UNDEF: 2)
    2b64:	09970f68 	ldmibeq	r7, {r3, r5, r6, r8, r9, sl, fp}
    2b68:	0f010000 	svceq	0x00010000
    2b6c:	00008f36 	andeq	r8, r0, r6, lsr pc
    2b70:	64910200 	ldrvs	r0, [r1], #512	; 0x200
    2b74:	0005f810 	andeq	pc, r5, r0, lsl r8	; <UNPREDICTABLE>
    2b78:	0e110100 	mufeqs	f0, f1, f0
    2b7c:	0000008f 	andeq	r0, r0, pc, lsl #1
    2b80:	00749102 	rsbseq	r9, r4, r2, lsl #2
    2b84:	0a7b0113 	beq	1ec2fd8 <_etext+0x1ec00ab>
    2b88:	05010000 	streq	r0, [r1, #-0]
    2b8c:	1db40106 	ldfnes	f0, [r4, #24]!
    2b90:	1df20000 	ldclne	0, cr0, [r2]
    2b94:	1cf40000 	ldclne	0, cr0, [r4]
    2b98:	570f0000 	strpl	r0, [pc, -r0]
    2b9c:	0100000a 	tsteq	r0, sl
    2ba0:	03d41805 	bicseq	r1, r4, #327680	; 0x50000
    2ba4:	91020000 	mrsls	r0, (UNDEF: 2)
    2ba8:	0a900f74 	beq	fe406980 <_heap_top+0xde3c6980>
    2bac:	05010000 	streq	r0, [r1, #-0]
    2bb0:	00030725 	andeq	r0, r3, r5, lsr #14
    2bb4:	70910200 	addsvc	r0, r1, r0, lsl #4
    2bb8:	0009bb0f 	andeq	fp, r9, pc, lsl #22
    2bbc:	3a050100 	bcc	142fc4 <_etext+0x140097>
    2bc0:	0000008f 	andeq	r0, r0, pc, lsl #1
    2bc4:	006c9102 	rsbeq	r9, ip, r2, lsl #2
    2bc8:	0005b400 	andeq	fp, r5, r0, lsl #8
    2bcc:	a8000200 	stmdage	r0, {r9}
    2bd0:	04000009 	streq	r0, [r0], #-9
    2bd4:	0000ad01 	andeq	sl, r0, r1, lsl #26
    2bd8:	0b7d0100 	bleq	1f42fe0 <_etext+0x1f400b3>
    2bdc:	00400000 	subeq	r0, r0, r0
    2be0:	20840000 	addcs	r0, r4, r0
    2be4:	22a20000 	adccs	r0, r2, #0
    2be8:	17c50000 	strbne	r0, [r5, r0]
    2bec:	01020000 	mrseq	r0, (UNDEF: 2)
    2bf0:	00000f06 	andeq	r0, r0, r6, lsl #30
    2bf4:	015f0300 	cmpeq	pc, r0, lsl #6
    2bf8:	2b020000 	blcs	82c00 <_etext+0x7fcd3>
    2bfc:	00003818 	andeq	r3, r0, r8, lsl r8
    2c00:	08010200 	stmdaeq	r1, {r9}
    2c04:	0000000d 	andeq	r0, r0, sp
    2c08:	33050202 	movwcc	r0, #20994	; 0x5202
    2c0c:	02000001 	andeq	r0, r0, #1
    2c10:	001b0702 	andseq	r0, fp, r2, lsl #14
    2c14:	04020000 	streq	r0, [r2], #-0
    2c18:	0000a405 	andeq	sl, r0, r5, lsl #8
    2c1c:	014f0300 	mrseq	r0, (UNDEF: 127)
    2c20:	4f020000 	svcmi	0x00020000
    2c24:	00006019 	andeq	r6, r0, r9, lsl r0
    2c28:	07040200 	streq	r0, [r4, -r0, lsl #4]
    2c2c:	0000008d 	andeq	r0, r0, sp, lsl #1
    2c30:	9f050802 	svcls	0x00050802
    2c34:	02000000 	andeq	r0, r0, #0
    2c38:	00880708 	addeq	r0, r8, r8, lsl #14
    2c3c:	04040000 	streq	r0, [r4], #-0
    2c40:	746e6905 	strbtvc	r6, [lr], #-2309	; 0xfffff6fb
    2c44:	07040200 	streq	r0, [r4, -r0, lsl #4]
    2c48:	00000092 	muleq	r0, r2, r0
    2c4c:	00016103 	andeq	r6, r1, r3, lsl #2
    2c50:	13180300 	tstne	r8, #0, 6
    2c54:	0000002c 	andeq	r0, r0, ip, lsr #32
    2c58:	00015103 	andeq	r5, r1, r3, lsl #2
    2c5c:	14300300 	ldrtne	r0, [r0], #-768	; 0xfffffd00
    2c60:	00000054 	andeq	r0, r0, r4, asr r0
    2c64:	00045905 	andeq	r5, r4, r5, lsl #18
    2c68:	12040800 	andne	r0, r4, #0, 16
    2c6c:	0000c710 	andeq	ip, r0, r0, lsl r7
    2c70:	07a00600 	streq	r0, [r0, r0, lsl #12]!
    2c74:	13040000 	movwne	r0, #16384	; 0x4000
    2c78:	0000c71b 	andeq	ip, r0, fp, lsl r7
    2c7c:	00230200 	eoreq	r0, r3, r0, lsl #4
    2c80:	0008a506 	andeq	sl, r8, r6, lsl #10
    2c84:	1b140400 	blne	503c8c <_etext+0x500d5f>
    2c88:	000000c7 	andeq	r0, r0, r7, asr #1
    2c8c:	00042302 	andeq	r2, r4, r2, lsl #6
    2c90:	009b0407 	addseq	r0, fp, r7, lsl #8
    2c94:	02030000 	andeq	r0, r3, #0
    2c98:	04000004 	streq	r0, [r0], #-4
    2c9c:	009b0215 	addseq	r0, fp, r5, lsl r2
    2ca0:	0e050000 	cdpeq	0, 0, cr0, cr5, cr0, {0}
    2ca4:	0c000004 	stceq	0, cr0, [r0], {4}
    2ca8:	05101904 	ldreq	r1, [r0, #-2308]	; 0xfffff6fc
    2cac:	06000001 	streq	r0, [r0], -r1
    2cb0:	0000089b 	muleq	r0, fp, r8
    2cb4:	cd111a04 	vldrgt	s2, [r1, #-16]
    2cb8:	02000000 	andeq	r0, r0, #0
    2cbc:	43060023 	movwmi	r0, #24611	; 0x6023
    2cc0:	04000004 	streq	r0, [r0], #-4
    2cc4:	008f0e1b 	addeq	r0, pc, fp, lsl lr	; <UNPREDICTABLE>
    2cc8:	23020000 	movwcs	r0, #8192	; 0x2000
    2ccc:	e9030008 	stmdb	r3, {r3}
    2cd0:	04000003 	streq	r0, [r0], #-3
    2cd4:	00d9021c 	sbcseq	r0, r9, ip, lsl r2
    2cd8:	ac030000 	stcge	0, cr0, [r3], {-0}
    2cdc:	05000006 	streq	r0, [r0, #-6]
    2ce0:	008f120e 	addeq	r1, pc, lr, lsl #4
    2ce4:	f7050000 			; <UNDEFINED> instruction: 0xf7050000
    2ce8:	48000004 	stmdami	r0, {r2}
    2cec:	1b101005 	blne	406d08 <_etext+0x403ddb>
    2cf0:	06000002 	streq	r0, [r0], -r2
    2cf4:	00000c44 	andeq	r0, r0, r4, asr #24
    2cf8:	1b131205 	blne	4c7514 <_etext+0x4c45e7>
    2cfc:	02000002 	andeq	r0, r0, #2
    2d00:	a7060023 	strge	r0, [r6, -r3, lsr #32]
    2d04:	0500000c 	streq	r0, [r0, #-12]
    2d08:	008f0e13 	addeq	r0, pc, r3, lsl lr	; <UNPREDICTABLE>
    2d0c:	23020000 	movwcs	r0, #8192	; 0x2000
    2d10:	0dcb0604 	stcleq	6, cr0, [fp, #16]
    2d14:	14050000 	strne	r0, [r5], #-0
    2d18:	00008f0e 	andeq	r8, r0, lr, lsl #30
    2d1c:	08230200 	stmdaeq	r3!, {r9}
    2d20:	00036f06 	andeq	r6, r3, r6, lsl #30
    2d24:	11170500 	tstne	r7, r0, lsl #10
    2d28:	000000cd 	andeq	r0, r0, sp, asr #1
    2d2c:	060c2302 	streq	r2, [ip], -r2, lsl #6
    2d30:	00000d48 	andeq	r0, r0, r8, asr #26
    2d34:	8f0e1805 	svchi	0x000e1805
    2d38:	02000000 	andeq	r0, r0, #0
    2d3c:	2c061423 	cfstrscs	mvf1, [r6], {35}	; 0x23
    2d40:	05000007 	streq	r0, [r0, #-7]
    2d44:	00cd111b 	sbceq	r1, sp, fp, lsl r1
    2d48:	23020000 	movwcs	r0, #8192	; 0x2000
    2d4c:	05a10618 	streq	r0, [r1, #1560]!	; 0x618
    2d50:	1c050000 	stcne	0, cr0, [r5], {-0}
    2d54:	00008f0e 	andeq	r8, r0, lr, lsl #30
    2d58:	20230200 	eorcs	r0, r3, r0, lsl #4
    2d5c:	0006a006 	andeq	sl, r6, r6
    2d60:	0e1f0500 	cfmul32eq	mvfx0, mvfx15, mvfx0
    2d64:	0000008f 	andeq	r0, r0, pc, lsl #1
    2d68:	06242302 	strteq	r2, [r4], -r2, lsl #6
    2d6c:	000004f1 	strdeq	r0, [r0], -r1
    2d70:	2f0c2205 	svccs	0x000c2205
    2d74:	02000002 	andeq	r0, r0, #2
    2d78:	63062823 	movwvs	r2, #26659	; 0x6823
    2d7c:	05000003 	streq	r0, [r0, #-3]
    2d80:	022d0b23 	eoreq	r0, sp, #35840	; 0x8c00
    2d84:	23020000 	movwcs	r0, #8192	; 0x2000
    2d88:	065f062c 	ldrbeq	r0, [pc], -ip, lsr #12
    2d8c:	24050000 	strcs	r0, [r5], #-0
    2d90:	0000830d 	andeq	r8, r0, sp, lsl #6
    2d94:	30230200 	eorcc	r0, r3, r0, lsl #4
    2d98:	00038a06 	andeq	r8, r3, r6, lsl #20
    2d9c:	17270500 	strne	r0, [r7, -r0, lsl #10]!
    2da0:	00000261 	andeq	r0, r0, r1, ror #4
    2da4:	06342302 	ldrteq	r2, [r4], -r2, lsl #6
    2da8:	00000607 	andeq	r0, r0, r7, lsl #12
    2dac:	2d0b2805 	stccs	8, cr2, [fp, #-20]	; 0xffffffec
    2db0:	02000002 	andeq	r0, r0, #2
    2db4:	f0063823 			; <UNDEFINED> instruction: 0xf0063823
    2db8:	05000003 	streq	r0, [r0, #-3]
    2dbc:	008f0e29 	addeq	r0, pc, r9, lsr #28
    2dc0:	23020000 	movwcs	r0, #8192	; 0x2000
    2dc4:	05bf063c 	ldreq	r0, [pc, #1596]!	; 3408 <_etext+0x4db>
    2dc8:	2c050000 	stccs	0, cr0, [r5], {-0}
    2dcc:	00008f0e 	andeq	r8, r0, lr, lsl #30
    2dd0:	40230200 	eormi	r0, r3, r0, lsl #4
    2dd4:	00044e06 	andeq	r4, r4, r6, lsl #28
    2dd8:	0e2d0500 	cfsh64eq	mvdx0, mvdx13, #0
    2ddc:	0000008f 	andeq	r0, r0, pc, lsl #1
    2de0:	00442302 	subeq	r2, r4, r2, lsl #6
    2de4:	01110407 	tsteq	r1, r7, lsl #8
    2de8:	01080000 	mrseq	r0, (UNDEF: 8)
    2dec:	0000022d 	andeq	r0, r0, sp, lsr #4
    2df0:	00022d09 	andeq	r2, r2, r9, lsl #26
    2df4:	040a0000 	streq	r0, [sl], #-0
    2df8:	02210407 	eoreq	r0, r1, #117440512	; 0x7000000
    2dfc:	95050000 	strls	r0, [r5, #-0]
    2e00:	10000003 	andne	r0, r0, r3
    2e04:	61101b06 	tstvs	r0, r6, lsl #22
    2e08:	06000002 	streq	r0, [r0], -r2
    2e0c:	000005c9 	andeq	r0, r0, r9, asr #11
    2e10:	87121c06 	ldrhi	r1, [r2, -r6, lsl #24]
    2e14:	02000002 	andeq	r0, r0, #2
    2e18:	05060023 	streq	r0, [r6, #-35]	; 0xffffffdd
    2e1c:	06000007 	streq	r0, [r0], -r7
    2e20:	01050c1d 	tsteq	r5, sp, lsl ip
    2e24:	23020000 	movwcs	r0, #8192	; 0x2000
    2e28:	04070004 	streq	r0, [r7], #-4
    2e2c:	00000235 	andeq	r0, r0, r5, lsr r2
    2e30:	0004b303 	andeq	fp, r4, r3, lsl #6
    2e34:	022f0500 	eoreq	r0, pc, #0, 10
    2e38:	0000011d 	andeq	r0, r0, sp, lsl r1
    2e3c:	0006b90b 	andeq	fp, r6, fp, lsl #18
    2e40:	103a0500 	eorsne	r0, sl, r0, lsl #10
    2e44:	00000281 	andeq	r0, r0, r1, lsl #5
    2e48:	04070101 	streq	r0, [r7], #-257	; 0xfffffeff
    2e4c:	00000267 	andeq	r0, r0, r7, ror #4
    2e50:	00058503 	andeq	r8, r5, r3, lsl #10
    2e54:	12130600 	andsne	r0, r3, #0, 12
    2e58:	0000008f 	andeq	r0, r0, pc, lsl #1
    2e5c:	0006f403 	andeq	pc, r6, r3, lsl #8
    2e60:	021e0600 	andseq	r0, lr, #0, 12
    2e64:	00000235 	andeq	r0, r0, r5, lsr r2
    2e68:	0006c80c 	andeq	ip, r6, ip, lsl #16
    2e6c:	05080100 	streq	r0, [r8, #-256]	; 0xffffff00
    2e70:	0002cb0e 	andeq	ip, r2, lr, lsl #22
    2e74:	03d30d00 	bicseq	r0, r3, #0, 26
    2e78:	0d000000 	stceq	0, cr0, [r0, #-0]
    2e7c:	00000748 	andeq	r0, r0, r8, asr #14
    2e80:	05410d01 	strbeq	r0, [r1, #-3329]	; 0xfffff2ff
    2e84:	0d020000 	stceq	0, cr0, [r2, #-0]
    2e88:	00000500 	andeq	r0, r0, r0, lsl #10
    2e8c:	04670d03 	strbteq	r0, [r7], #-3331	; 0xfffff2fd
    2e90:	00040000 	andeq	r0, r4, r0
    2e94:	000a9b05 	andeq	r9, sl, r5, lsl #22
    2e98:	0b072800 	bleq	1ccea0 <_etext+0x1c9f73>
    2e9c:	00032410 	andeq	r2, r3, r0, lsl r4
    2ea0:	038f0600 	orreq	r0, pc, #0, 12
    2ea4:	0c070000 	stceq	0, cr0, [r7], {-0}
    2ea8:	0002930d 	andeq	r9, r2, sp, lsl #6
    2eac:	00230200 	eoreq	r0, r3, r0, lsl #4
    2eb0:	000b4506 	andeq	r4, fp, r6, lsl #10
    2eb4:	0b0d0700 	bleq	344abc <_etext+0x341b8f>
    2eb8:	0000022d 	andeq	r0, r0, sp, lsr #4
    2ebc:	06102302 	ldreq	r2, [r0], -r2, lsl #6
    2ec0:	00000ae2 	andeq	r0, r0, r2, ror #21
    2ec4:	8f0e0e07 	svchi	0x000e0e07
    2ec8:	02000000 	andeq	r0, r0, #0
    2ecc:	bb061423 	bllt	187f60 <_etext+0x185033>
    2ed0:	07000009 	streq	r0, [r0, -r9]
    2ed4:	008f0e0f 	addeq	r0, pc, pc, lsl #28
    2ed8:	23020000 	movwcs	r0, #8192	; 0x2000
    2edc:	0b110618 	bleq	444744 <_etext+0x441817>
    2ee0:	10070000 	andne	r0, r7, r0
    2ee4:	0001050c 	andeq	r0, r1, ip, lsl #10
    2ee8:	1c230200 	sfmne	f0, 4, [r3], #-0
    2eec:	0b550300 	bleq	1543af4 <_etext+0x1540bc7>
    2ef0:	11070000 	mrsne	r0, (UNDEF: 7)
    2ef4:	0002cb02 	andeq	ip, r2, r2, lsl #22
    2ef8:	0ac10500 	beq	ff044300 <_heap_top+0xdf004300>
    2efc:	07100000 	ldreq	r0, [r0, -r0]
    2f00:	037a1013 	cmneq	sl, #19
    2f04:	21060000 	mrscs	r0, (UNDEF: 6)
    2f08:	0700000e 	streq	r0, [r0, -lr]
    2f0c:	008f0e14 	addeq	r0, pc, r4, lsl lr	; <UNPREDICTABLE>
    2f10:	23020000 	movwcs	r0, #8192	; 0x2000
    2f14:	09bb0600 	ldmibeq	fp!, {r9, sl}
    2f18:	15070000 	strne	r0, [r7, #-0]
    2f1c:	00008f0e 	andeq	r8, r0, lr, lsl #30
    2f20:	04230200 	strteq	r0, [r3], #-512	; 0xfffffe00
    2f24:	000ae206 	andeq	lr, sl, r6, lsl #4
    2f28:	0e160700 	cdpeq	7, 1, cr0, cr6, cr0, {0}
    2f2c:	0000008f 	andeq	r0, r0, pc, lsl #1
    2f30:	06082302 	streq	r2, [r8], -r2, lsl #6
    2f34:	00000939 	andeq	r0, r0, r9, lsr r9
    2f38:	8f0e1707 	svchi	0x000e1707
    2f3c:	02000000 	andeq	r0, r0, #0
    2f40:	03000c23 	movweq	r0, #3107	; 0xc23
    2f44:	00000aed 	andeq	r0, r0, sp, ror #21
    2f48:	30021807 	andcc	r1, r2, r7, lsl #16
    2f4c:	0e000003 	cdpeq	0, 0, cr0, cr0, cr3, {0}
    2f50:	000b6b01 	andeq	r6, fp, r1, lsl #22
    2f54:	0a580100 	beq	160335c <_etext+0x160042f>
    2f58:	00008f01 	andeq	r8, r0, r1, lsl #30
    2f5c:	00226c00 	eoreq	r6, r2, r0, lsl #24
    2f60:	0022a200 	eoreq	sl, r2, r0, lsl #4
    2f64:	001d4400 	andseq	r4, sp, r0, lsl #8
    2f68:	0003d200 	andeq	sp, r3, r0, lsl #4
    2f6c:	0b4b0f00 	bleq	12c6b74 <_etext+0x12c3c47>
    2f70:	58010000 	stmdapl	r1, {}	; <UNPREDICTABLE>
    2f74:	0003d229 	andeq	sp, r3, r9, lsr #4
    2f78:	6c910200 	lfmvs	f0, 4, [r1], {0}
    2f7c:	0005f810 	andeq	pc, r5, r0, lsl r8	; <UNPREDICTABLE>
    2f80:	0e5a0100 	rdfeqe	f0, f2, f0
    2f84:	0000008f 	andeq	r0, r0, pc, lsl #1
    2f88:	10749102 	rsbsne	r9, r4, r2, lsl #2
    2f8c:	00000e21 	andeq	r0, r0, r1, lsr #28
    2f90:	8f0e5c01 	svchi	0x000e5c01
    2f94:	02000000 	andeq	r0, r0, #0
    2f98:	07007091 			; <UNDEFINED> instruction: 0x07007091
    2f9c:	00032404 	andeq	r2, r3, r4, lsl #8
    2fa0:	fe011100 	cdp2	1, 0, cr1, cr1, cr0, {0}
    2fa4:	0100000a 	tsteq	r0, sl
    2fa8:	2001064e 	andcs	r0, r1, lr, asr #12
    2fac:	6c000022 	stcvs	0, cr0, [r0], {34}	; 0x22
    2fb0:	94000022 	strls	r0, [r0], #-34	; 0xffffffde
    2fb4:	2000001d 	andcs	r0, r0, sp, lsl r0
    2fb8:	0f000004 	svceq	0x00000004
    2fbc:	00000b4b 	andeq	r0, r0, fp, asr #22
    2fc0:	d2264e01 	eorle	r4, r6, #1, 28
    2fc4:	02000003 	andeq	r0, r0, #3
    2fc8:	3c0f6c91 	stccc	12, cr6, [pc], {145}	; 0x91
    2fcc:	01000005 	tsteq	r0, r5
    2fd0:	0420434e 	strteq	r4, [r0], #-846	; 0xfffffcb2
    2fd4:	91020000 	mrsls	r0, (UNDEF: 2)
    2fd8:	05f81068 	ldrbeq	r1, [r8, #104]!	; 0x68
    2fdc:	50010000 	andpl	r0, r1, r0
    2fe0:	00008f0e 	andeq	r8, r0, lr, lsl #30
    2fe4:	74910200 	ldrvc	r0, [r1], #512	; 0x200
    2fe8:	7a040700 	bvc	104bf0 <_etext+0x101cc3>
    2fec:	11000003 	tstne	r0, r3
    2ff0:	000b1c01 	andeq	r1, fp, r1, lsl #24
    2ff4:	063f0100 	ldrteq	r0, [pc], -r0, lsl #2
    2ff8:	0021c201 	eoreq	ip, r1, r1, lsl #4
    2ffc:	00222000 	eoreq	r2, r2, r0
    3000:	001de400 	andseq	lr, sp, r0, lsl #8
    3004:	00048700 	andeq	r8, r4, r0, lsl #14
    3008:	0b4b0f00 	bleq	12c6c10 <_etext+0x12c3ce3>
    300c:	3f010000 	svccc	0x00010000
    3010:	0003d222 	andeq	sp, r3, r2, lsr #4
    3014:	6c910200 	lfmvs	f0, 4, [r1], {0}
    3018:	6d656d12 	stclvs	13, cr6, [r5, #-72]!	; 0xffffffb8
    301c:	363f0100 	ldrtcc	r0, [pc], -r0, lsl #2
    3020:	00000487 	andeq	r0, r0, r7, lsl #9
    3024:	10689102 	rsbne	r9, r8, r2, lsl #2
    3028:	000005f8 	strdeq	r0, [r0], -r8
    302c:	8f0e4101 	svchi	0x000e4101
    3030:	02000000 	andeq	r0, r0, #0
    3034:	e0137491 	muls	r3, r1, r4
    3038:	02000021 	andeq	r0, r0, #33	; 0x21
    303c:	10000022 	andne	r0, r0, r2, lsr #32
    3040:	0000041e 	andeq	r0, r0, lr, lsl r4
    3044:	81114301 	tsthi	r1, r1, lsl #6
    3048:	02000002 	andeq	r0, r0, #2
    304c:	00007091 	muleq	r0, r1, r0
    3050:	00830407 	addeq	r0, r3, r7, lsl #8
    3054:	010e0000 	mrseq	r0, (UNDEF: 14)
    3058:	00000aa9 	andeq	r0, r0, r9, lsr #21
    305c:	010a3001 	tsteq	sl, r1
    3060:	0000008f 	andeq	r0, r0, pc, lsl #1
    3064:	00002178 	andeq	r2, r0, r8, ror r1
    3068:	000021c2 	andeq	r2, r0, r2, asr #3
    306c:	00001e34 	andeq	r1, r0, r4, lsr lr
    3070:	000004d9 	ldrdeq	r0, [r0], -r9
    3074:	000b4b0f 	andeq	r4, fp, pc, lsl #22
    3078:	2f300100 	svccs	0x00300100
    307c:	000003d2 	ldrdeq	r0, [r0], -r2
    3080:	126c9102 	rsbne	r9, ip, #-2147483648	; 0x80000000
    3084:	006d656d 	rsbeq	r6, sp, sp, ror #10
    3088:	d9443001 	stmdble	r4, {r0, ip, sp}^
    308c:	02000004 	andeq	r0, r0, #4
    3090:	f8106891 			; <UNDEFINED> instruction: 0xf8106891
    3094:	01000005 	tsteq	r0, r5
    3098:	008f0e32 	addeq	r0, pc, r2, lsr lr	; <UNPREDICTABLE>
    309c:	91020000 	mrsls	r0, (UNDEF: 2)
    30a0:	04070074 	streq	r0, [r7], #-116	; 0xffffff8c
    30a4:	00000487 	andeq	r0, r0, r7, lsl #9
    30a8:	0b2b010e 	bleq	ac34e8 <_etext+0xac05bb>
    30ac:	1f010000 	svcne	0x00010000
    30b0:	008f010a 	addeq	r0, pc, sl, lsl #2
    30b4:	21020000 	mrscs	r0, (UNDEF: 2)
    30b8:	21780000 	cmncs	r8, r0
    30bc:	1e840000 	cdpne	0, 8, cr0, cr4, cr0, {0}
    30c0:	053a0000 	ldreq	r0, [sl, #-0]!
    30c4:	4b0f0000 	blmi	3c30cc <_etext+0x3c019f>
    30c8:	0100000b 	tsteq	r0, fp
    30cc:	03d2271f 	bicseq	r2, r2, #8126464	; 0x7c0000
    30d0:	91020000 	mrsls	r0, (UNDEF: 2)
    30d4:	656d126c 	strbvs	r1, [sp, #-620]!	; 0xfffffd94
    30d8:	1f01006d 	svcne	0x0001006d
    30dc:	0004d93c 	andeq	sp, r4, ip, lsr r9
    30e0:	68910200 	ldmvs	r1, {r9}
    30e4:	0009970f 	andeq	r9, r9, pc, lsl #14
    30e8:	4a1f0100 	bmi	7c34f0 <_etext+0x7c05c3>
    30ec:	0000008f 	andeq	r0, r0, pc, lsl #1
    30f0:	10649102 	rsbne	r9, r4, r2, lsl #2
    30f4:	000005f8 	strdeq	r0, [r0], -r8
    30f8:	8f0e2101 	svchi	0x000e2101
    30fc:	02000000 	andeq	r0, r0, #0
    3100:	14007491 	strne	r7, [r0], #-1169	; 0xfffffb6f
    3104:	000b9301 	andeq	r9, fp, r1, lsl #6
    3108:	06040100 	streq	r0, [r4], -r0, lsl #2
    310c:	00208401 	eoreq	r8, r0, r1, lsl #8
    3110:	00210200 	eoreq	r0, r1, r0, lsl #4
    3114:	001ed400 	andseq	sp, lr, r0, lsl #8
    3118:	0b4b0f00 	bleq	12c6d20 <_etext+0x12c3df3>
    311c:	04010000 	streq	r0, [r1], #-0
    3120:	0003d222 	andeq	sp, r3, r2, lsr #4
    3124:	6c910200 	lfmvs	f0, 4, [r1], {0}
    3128:	000b450f 	andeq	r4, fp, pc, lsl #10
    312c:	36040100 	strcc	r0, [r4], -r0, lsl #2
    3130:	00000487 	andeq	r0, r0, r7, lsl #9
    3134:	0f689102 	svceq	0x00689102
    3138:	00000ae2 	andeq	r0, r0, r2, ror #21
    313c:	8f460401 	svchi	0x00460401
    3140:	02000000 	andeq	r0, r0, #0
    3144:	610f6491 			; <UNDEFINED> instruction: 0x610f6491
    3148:	0100000b 	tsteq	r0, fp
    314c:	008f5b04 	addeq	r5, pc, r4, lsl #22
    3150:	91020000 	mrsls	r0, (UNDEF: 2)
    3154:	0b3b1060 	bleq	ec72dc <_etext+0xec43af>
    3158:	06010000 	streq	r0, [r1], -r0
    315c:	0004870e 	andeq	r8, r4, lr, lsl #14
    3160:	74910200 	ldrvc	r0, [r1], #512	; 0x200
    3164:	000ad410 	andeq	sp, sl, r0, lsl r4
    3168:	0e070100 	adfeqs	f0, f7, f0
    316c:	00000487 	andeq	r0, r0, r7, lsl #9
    3170:	15709102 	ldrbne	r9, [r0, #-258]!	; 0xfffffefe
    3174:	00000825 	andeq	r0, r0, r5, lsr #16
    3178:	fa011a01 	blx	49984 <_etext+0x46a57>
    317c:	00000020 	andeq	r0, r0, r0, lsr #32
    3180:	0005f900 	andeq	pc, r5, r0, lsl #18
    3184:	e6000200 	str	r0, [r0], -r0, lsl #4
    3188:	0400000a 	streq	r0, [r0], #-10
    318c:	0000ad01 	andeq	sl, r0, r1, lsl #26
    3190:	0ce80100 	stfeqe	f0, [r8]
    3194:	00400000 	subeq	r0, r0, r0
    3198:	22a40000 	adccs	r0, r4, #0
    319c:	254c0000 	strbcs	r0, [ip, #-0]
    31a0:	1a0f0000 	bne	3c31a8 <_etext+0x3c027b>
    31a4:	01020000 	mrseq	r0, (UNDEF: 2)
    31a8:	00000f06 	andeq	r0, r0, r6, lsl #30
    31ac:	015f0300 	cmpeq	pc, r0, lsl #6
    31b0:	2b020000 	blcs	831b8 <_etext+0x8028b>
    31b4:	00003818 	andeq	r3, r0, r8, lsl r8
    31b8:	08010200 	stmdaeq	r1, {r9}
    31bc:	0000000d 	andeq	r0, r0, sp
    31c0:	33050202 	movwcc	r0, #20994	; 0x5202
    31c4:	02000001 	andeq	r0, r0, #1
    31c8:	001b0702 	andseq	r0, fp, r2, lsl #14
    31cc:	04020000 	streq	r0, [r2], #-0
    31d0:	0000a405 	andeq	sl, r0, r5, lsl #8
    31d4:	014f0300 	mrseq	r0, (UNDEF: 127)
    31d8:	4f020000 	svcmi	0x00020000
    31dc:	00006019 	andeq	r6, r0, r9, lsl r0
    31e0:	07040200 	streq	r0, [r4, -r0, lsl #4]
    31e4:	0000008d 	andeq	r0, r0, sp, lsl #1
    31e8:	9f050802 	svcls	0x00050802
    31ec:	02000000 	andeq	r0, r0, #0
    31f0:	00880708 	addeq	r0, r8, r8, lsl #14
    31f4:	04040000 	streq	r0, [r4], #-0
    31f8:	746e6905 	strbtvc	r6, [lr], #-2309	; 0xfffff6fb
    31fc:	07040200 	streq	r0, [r4, -r0, lsl #4]
    3200:	00000092 	muleq	r0, r2, r0
    3204:	00016103 	andeq	r6, r1, r3, lsl #2
    3208:	13180300 	tstne	r8, #0, 6
    320c:	0000002c 	andeq	r0, r0, ip, lsr #32
    3210:	00015103 	andeq	r5, r1, r3, lsl #2
    3214:	14300300 	ldrtne	r0, [r0], #-768	; 0xfffffd00
    3218:	00000054 	andeq	r0, r0, r4, asr r0
    321c:	00045905 	andeq	r5, r4, r5, lsl #18
    3220:	12040800 	andne	r0, r4, #0, 16
    3224:	0000c710 	andeq	ip, r0, r0, lsl r7
    3228:	07a00600 	streq	r0, [r0, r0, lsl #12]!
    322c:	13040000 	movwne	r0, #16384	; 0x4000
    3230:	0000c71b 	andeq	ip, r0, fp, lsl r7
    3234:	00230200 	eoreq	r0, r3, r0, lsl #4
    3238:	0008a506 	andeq	sl, r8, r6, lsl #10
    323c:	1b140400 	blne	504244 <_etext+0x501317>
    3240:	000000c7 	andeq	r0, r0, r7, asr #1
    3244:	00042302 	andeq	r2, r4, r2, lsl #6
    3248:	009b0407 	addseq	r0, fp, r7, lsl #8
    324c:	02030000 	andeq	r0, r3, #0
    3250:	04000004 	streq	r0, [r0], #-4
    3254:	009b0215 	addseq	r0, fp, r5, lsl r2
    3258:	0e050000 	cdpeq	0, 0, cr0, cr5, cr0, {0}
    325c:	0c000004 	stceq	0, cr0, [r0], {4}
    3260:	05101904 	ldreq	r1, [r0, #-2308]	; 0xfffff6fc
    3264:	06000001 	streq	r0, [r0], -r1
    3268:	0000089b 	muleq	r0, fp, r8
    326c:	cd111a04 	vldrgt	s2, [r1, #-16]
    3270:	02000000 	andeq	r0, r0, #0
    3274:	43060023 	movwmi	r0, #24611	; 0x6023
    3278:	04000004 	streq	r0, [r0], #-4
    327c:	008f0e1b 	addeq	r0, pc, fp, lsl lr	; <UNPREDICTABLE>
    3280:	23020000 	movwcs	r0, #8192	; 0x2000
    3284:	e9030008 	stmdb	r3, {r3}
    3288:	04000003 	streq	r0, [r0], #-3
    328c:	00d9021c 	sbcseq	r0, r9, ip, lsl r2
    3290:	ac030000 	stcge	0, cr0, [r3], {-0}
    3294:	05000006 	streq	r0, [r0, #-6]
    3298:	008f120e 	addeq	r1, pc, lr, lsl #4
    329c:	f7050000 			; <UNDEFINED> instruction: 0xf7050000
    32a0:	48000004 	stmdami	r0, {r2}
    32a4:	1b101005 	blne	4072c0 <_etext+0x404393>
    32a8:	06000002 	streq	r0, [r0], -r2
    32ac:	00000c44 	andeq	r0, r0, r4, asr #24
    32b0:	1b131205 	blne	4c7acc <_etext+0x4c4b9f>
    32b4:	02000002 	andeq	r0, r0, #2
    32b8:	a7060023 	strge	r0, [r6, -r3, lsr #32]
    32bc:	0500000c 	streq	r0, [r0, #-12]
    32c0:	008f0e13 	addeq	r0, pc, r3, lsl lr	; <UNPREDICTABLE>
    32c4:	23020000 	movwcs	r0, #8192	; 0x2000
    32c8:	0dcb0604 	stcleq	6, cr0, [fp, #16]
    32cc:	14050000 	strne	r0, [r5], #-0
    32d0:	00008f0e 	andeq	r8, r0, lr, lsl #30
    32d4:	08230200 	stmdaeq	r3!, {r9}
    32d8:	00036f06 	andeq	r6, r3, r6, lsl #30
    32dc:	11170500 	tstne	r7, r0, lsl #10
    32e0:	000000cd 	andeq	r0, r0, sp, asr #1
    32e4:	060c2302 	streq	r2, [ip], -r2, lsl #6
    32e8:	00000d48 	andeq	r0, r0, r8, asr #26
    32ec:	8f0e1805 	svchi	0x000e1805
    32f0:	02000000 	andeq	r0, r0, #0
    32f4:	2c061423 	cfstrscs	mvf1, [r6], {35}	; 0x23
    32f8:	05000007 	streq	r0, [r0, #-7]
    32fc:	00cd111b 	sbceq	r1, sp, fp, lsl r1
    3300:	23020000 	movwcs	r0, #8192	; 0x2000
    3304:	05a10618 	streq	r0, [r1, #1560]!	; 0x618
    3308:	1c050000 	stcne	0, cr0, [r5], {-0}
    330c:	00008f0e 	andeq	r8, r0, lr, lsl #30
    3310:	20230200 	eorcs	r0, r3, r0, lsl #4
    3314:	0006a006 	andeq	sl, r6, r6
    3318:	0e1f0500 	cfmul32eq	mvfx0, mvfx15, mvfx0
    331c:	0000008f 	andeq	r0, r0, pc, lsl #1
    3320:	06242302 	strteq	r2, [r4], -r2, lsl #6
    3324:	000004f1 	strdeq	r0, [r0], -r1
    3328:	2f0c2205 	svccs	0x000c2205
    332c:	02000002 	andeq	r0, r0, #2
    3330:	63062823 	movwvs	r2, #26659	; 0x6823
    3334:	05000003 	streq	r0, [r0, #-3]
    3338:	022d0b23 	eoreq	r0, sp, #35840	; 0x8c00
    333c:	23020000 	movwcs	r0, #8192	; 0x2000
    3340:	065f062c 	ldrbeq	r0, [pc], -ip, lsr #12
    3344:	24050000 	strcs	r0, [r5], #-0
    3348:	0000830d 	andeq	r8, r0, sp, lsl #6
    334c:	30230200 	eorcc	r0, r3, r0, lsl #4
    3350:	00038a06 	andeq	r8, r3, r6, lsl #20
    3354:	17270500 	strne	r0, [r7, -r0, lsl #10]!
    3358:	00000261 	andeq	r0, r0, r1, ror #4
    335c:	06342302 	ldrteq	r2, [r4], -r2, lsl #6
    3360:	00000607 	andeq	r0, r0, r7, lsl #12
    3364:	2d0b2805 	stccs	8, cr2, [fp, #-20]	; 0xffffffec
    3368:	02000002 	andeq	r0, r0, #2
    336c:	f0063823 			; <UNDEFINED> instruction: 0xf0063823
    3370:	05000003 	streq	r0, [r0, #-3]
    3374:	008f0e29 	addeq	r0, pc, r9, lsr #28
    3378:	23020000 	movwcs	r0, #8192	; 0x2000
    337c:	05bf063c 	ldreq	r0, [pc, #1596]!	; 39c0 <_etext+0xa93>
    3380:	2c050000 	stccs	0, cr0, [r5], {-0}
    3384:	00008f0e 	andeq	r8, r0, lr, lsl #30
    3388:	40230200 	eormi	r0, r3, r0, lsl #4
    338c:	00044e06 	andeq	r4, r4, r6, lsl #28
    3390:	0e2d0500 	cfsh64eq	mvdx0, mvdx13, #0
    3394:	0000008f 	andeq	r0, r0, pc, lsl #1
    3398:	00442302 	subeq	r2, r4, r2, lsl #6
    339c:	01110407 	tsteq	r1, r7, lsl #8
    33a0:	01080000 	mrseq	r0, (UNDEF: 8)
    33a4:	0000022d 	andeq	r0, r0, sp, lsr #4
    33a8:	00022d09 	andeq	r2, r2, r9, lsl #26
    33ac:	040a0000 	streq	r0, [sl], #-0
    33b0:	02210407 	eoreq	r0, r1, #117440512	; 0x7000000
    33b4:	95050000 	strls	r0, [r5, #-0]
    33b8:	10000003 	andne	r0, r0, r3
    33bc:	61101b06 	tstvs	r0, r6, lsl #22
    33c0:	06000002 	streq	r0, [r0], -r2
    33c4:	000005c9 	andeq	r0, r0, r9, asr #11
    33c8:	73121c06 	tstvc	r2, #1536	; 0x600
    33cc:	02000002 	andeq	r0, r0, #2
    33d0:	05060023 	streq	r0, [r6, #-35]	; 0xffffffdd
    33d4:	06000007 	streq	r0, [r0], -r7
    33d8:	01050c1d 	tsteq	r5, sp, lsl ip
    33dc:	23020000 	movwcs	r0, #8192	; 0x2000
    33e0:	04070004 	streq	r0, [r7], #-4
    33e4:	00000235 	andeq	r0, r0, r5, lsr r2
    33e8:	0004b303 	andeq	fp, r4, r3, lsl #6
    33ec:	022f0500 	eoreq	r0, pc, #0, 10
    33f0:	0000011d 	andeq	r0, r0, sp, lsl r1
    33f4:	00058503 	andeq	r8, r5, r3, lsl #10
    33f8:	12130600 	andsne	r0, r3, #0, 12
    33fc:	0000008f 	andeq	r0, r0, pc, lsl #1
    3400:	0006f403 	andeq	pc, r6, r3, lsl #8
    3404:	021e0600 	andseq	r0, lr, #0, 12
    3408:	00000235 	andeq	r0, r0, r5, lsr r2
    340c:	000d420b 	andeq	r4, sp, fp, lsl #4
    3410:	06070100 	streq	r0, [r7], -r0, lsl #2
    3414:	0002b70e 	andeq	fp, r2, lr, lsl #14
    3418:	0bfb0c00 	bleq	ffec6420 <_heap_top+0xdfe86420>
    341c:	0c000000 	stceq	0, cr0, [r0], {-0}
    3420:	00000d34 	andeq	r0, r0, r4, lsr sp
    3424:	0ba20c01 	bleq	fe886430 <_heap_top+0xde846430>
    3428:	0c020000 	stceq	0, cr0, [r2], {-0}
    342c:	00000cfb 	strdeq	r0, [r0], -fp
    3430:	0bd30c03 	bleq	ff4c6444 <_heap_top+0xdf486444>
    3434:	00040000 	andeq	r0, r4, r0
    3438:	000cb303 	andeq	fp, ip, r3, lsl #6
    343c:	020c0700 	andeq	r0, ip, #0, 14
    3440:	0000028b 	andeq	r0, r0, fp, lsl #5
    3444:	000d1a05 	andeq	r1, sp, r5, lsl #20
    3448:	0e072400 	cfcpyseq	mvf2, mvf7
    344c:	00034910 	andeq	r4, r3, r0, lsl r9
    3450:	0bb00600 	bleq	fec04c58 <_heap_top+0xdebc4c58>
    3454:	10070000 	andne	r0, r7, r0
    3458:	0000cd11 	andeq	ip, r0, r1, lsl sp
    345c:	00230200 	eoreq	r0, r3, r0, lsl #4
    3460:	000c0906 	andeq	r0, ip, r6, lsl #18
    3464:	0e110700 	cdpeq	7, 1, cr0, cr1, cr0, {0}
    3468:	0000008f 	andeq	r0, r0, pc, lsl #1
    346c:	06082302 	streq	r2, [r8], -r2, lsl #6
    3470:	00000ca1 	andeq	r0, r0, r1, lsr #25
    3474:	8f0e1207 	svchi	0x000e1207
    3478:	02000000 	andeq	r0, r0, #0
    347c:	a7060c23 	strge	r0, [r6, -r3, lsr #24]
    3480:	0700000c 	streq	r0, [r0, -ip]
    3484:	008f0e13 	addeq	r0, pc, r3, lsl lr	; <UNPREDICTABLE>
    3488:	23020000 	movwcs	r0, #8192	; 0x2000
    348c:	0be30610 	bleq	ff8c4cd4 <_heap_top+0xdf884cd4>
    3490:	14070000 	strne	r0, [r7], #-0
    3494:	00022f0c 	andeq	r2, r2, ip, lsl #30
    3498:	14230200 	strtne	r0, [r3], #-512	; 0xfffffe00
    349c:	6772610d 	ldrbvs	r6, [r2, -sp, lsl #2]!
    34a0:	0b150700 	bleq	5450a8 <_etext+0x54217b>
    34a4:	0000022d 	andeq	r0, r0, sp, lsr #4
    34a8:	06182302 	ldreq	r2, [r8], -r2, lsl #6
    34ac:	00000bee 	andeq	r0, r0, lr, ror #23
    34b0:	8f0e1607 	svchi	0x000e1607
    34b4:	02000000 	andeq	r0, r0, #0
    34b8:	48061c23 	stmdami	r6, {r0, r1, r5, sl, fp, ip}
    34bc:	0700000d 	streq	r0, [r0, -sp]
    34c0:	02b71318 	adcseq	r1, r7, #24, 6	; 0x60000000
    34c4:	23020000 	movwcs	r0, #8192	; 0x2000
    34c8:	99030020 	stmdbls	r3, {r5}
    34cc:	0700000c 	streq	r0, [r0, -ip]
    34d0:	02c30219 	sbceq	r0, r3, #-1879048191	; 0x90000001
    34d4:	b3050000 	movwlt	r0, #20480	; 0x5000
    34d8:	18000009 	stmdane	r0, {r0, r3}
    34dc:	90100708 	andsls	r0, r0, r8, lsl #14
    34e0:	06000003 	streq	r0, [r0], -r3
    34e4:	0000038f 	andeq	r0, r0, pc, lsl #7
    34e8:	7f0d0908 	svcvc	0x000d0908
    34ec:	02000002 	andeq	r0, r0, #2
    34f0:	21060023 	tstcs	r6, r3, lsr #32
    34f4:	0800000e 	stmdaeq	r0, {r1, r2, r3}
    34f8:	008f0e0a 	addeq	r0, pc, sl, lsl #28
    34fc:	23020000 	movwcs	r0, #8192	; 0x2000
    3500:	09bb0610 	ldmibeq	fp!, {r4, r9, sl}
    3504:	0b080000 	bleq	20350c <_etext+0x2005df>
    3508:	00008f0e 	andeq	r8, r0, lr, lsl #30
    350c:	14230200 	strtne	r0, [r3], #-512	; 0xfffffe00
    3510:	09860300 	stmibeq	r6, {r8, r9}
    3514:	0c080000 	stceq	0, cr0, [r8], {-0}
    3518:	00035502 	andeq	r5, r3, r2, lsl #10
    351c:	0cd60e00 	ldcleq	14, cr0, [r6], {0}
    3520:	05010000 	streq	r0, [r1, #-0]
    3524:	0001050f 	andeq	r0, r1, pc, lsl #10
    3528:	e8030500 	stmda	r3, {r8, sl}
    352c:	0e200011 	miaeq	acc0, r1, r0
    3530:	00000c18 	andeq	r0, r0, r8, lsl ip
    3534:	050f0601 	streq	r0, [pc, #-1537]	; 2f3b <_etext+0xe>
    3538:	05000001 	streq	r0, [r0, #-1]
    353c:	0011f403 	andseq	pc, r1, r3, lsl #8
    3540:	0c850e20 	stceq	14, cr0, [r5], {32}
    3544:	07010000 	streq	r0, [r1, -r0]
    3548:	0003900e 	andeq	r9, r3, lr
    354c:	00030500 	andeq	r0, r3, r0, lsl #10
    3550:	0e200012 	miaeq	acc0, r2, r0
    3554:	00000d09 	andeq	r0, r0, r9, lsl #26
    3558:	900e0801 	andls	r0, lr, r1, lsl #16
    355c:	05000003 	streq	r0, [r0, #-3]
    3560:	00121803 	andseq	r1, r2, r3, lsl #16
    3564:	0c2a0e20 	stceq	14, cr0, [sl], #-128	; 0xffffff80
    3568:	1d010000 	stcne	0, cr0, [r1, #-0]
    356c:	0002670f 	andeq	r6, r2, pc, lsl #14
    3570:	30030500 	andcc	r0, r3, r0, lsl #10
    3574:	0f200012 	svceq	0x00200012
    3578:	00000111 	andeq	r0, r0, r1, lsl r1
    357c:	00000407 	andeq	r0, r0, r7, lsl #8
    3580:	00007c10 	andeq	r7, r0, r0, lsl ip
    3584:	0003ff00 	andeq	pc, r3, r0, lsl #30
    3588:	000c370e 	andeq	r3, ip, lr, lsl #14
    358c:	151e0100 	ldrne	r0, [lr, #-256]	; 0xffffff00
    3590:	000003f6 	strdeq	r0, [r0], -r6
    3594:	12780305 	rsbsne	r0, r8, #335544320	; 0x14000000
    3598:	01112000 	tsteq	r1, r0
    359c:	00000d4e 	andeq	r0, r0, lr, asr #26
    35a0:	01067b01 	tsteq	r6, r1, lsl #22
    35a4:	000024f4 	strdeq	r2, [r0], -r4
    35a8:	0000254c 	andeq	r2, r0, ip, asr #10
    35ac:	00001f24 	andeq	r1, r0, r4, lsr #30
    35b0:	0bba0112 	bleq	fee83a00 <_heap_top+0xdee43a00>
    35b4:	72010000 	andvc	r0, r1, #0
    35b8:	24c40106 	strbcs	r0, [r4], #262	; 0x106
    35bc:	24f40000 	ldrbtcs	r0, [r4], #0
    35c0:	1f680000 	svcne	0x00680000
    35c4:	04590000 	ldrbeq	r0, [r9], #-0
    35c8:	f80e0000 			; <UNDEFINED> instruction: 0xf80e0000
    35cc:	01000005 	tsteq	r0, r5
    35d0:	008f0e74 	addeq	r0, pc, r4, ror lr	; <UNPREDICTABLE>
    35d4:	91020000 	mrsls	r0, (UNDEF: 2)
    35d8:	24130074 	ldrcs	r0, [r3], #-116	; 0xffffff8c
    35dc:	0100000d 	tsteq	r0, sp
    35e0:	90010d67 	andls	r0, r1, r7, ror #26
    35e4:	c4000024 	strgt	r0, [r0], #-36	; 0xffffffdc
    35e8:	b8000024 	stmdalt	r0, {r2, r5}
    35ec:	8200001f 	andhi	r0, r0, #31
    35f0:	14000004 	strne	r0, [r0], #-4
    35f4:	00000369 	andeq	r0, r0, r9, ror #6
    35f8:	2d236701 	stccs	7, cr6, [r3, #-4]!
    35fc:	02000002 	andeq	r0, r0, #2
    3600:	12007491 	andne	r7, r0, #-1862270976	; 0x91000000
    3604:	000c6001 	andeq	r6, ip, r1
    3608:	06610100 	strbteq	r0, [r1], -r0, lsl #2
    360c:	00247201 	eoreq	r7, r4, r1, lsl #4
    3610:	00249000 	eoreq	r9, r4, r0
    3614:	001ff000 	andseq	pc, pc, r0
    3618:	0004ac00 	andeq	sl, r4, r0, lsl #24
    361c:	0bf51400 	bleq	ffd48624 <_heap_top+0xdfd08624>
    3620:	61010000 	mrsvs	r0, (UNDEF: 1)
    3624:	0004ac1d 	andeq	sl, r4, sp, lsl ip
    3628:	74910200 	ldrvc	r0, [r1], #512	; 0x200
    362c:	49040700 	stmdbmi	r4, {r8, r9, sl}
    3630:	13000003 	movwne	r0, #3
    3634:	00000cc1 	andeq	r0, r0, r1, asr #25
    3638:	010d4d01 	tsteq	sp, r1, lsl #26
    363c:	000023f8 	strdeq	r2, [r0], -r8
    3640:	00002472 	andeq	r2, r0, r2, ror r4
    3644:	00002040 	andeq	r2, r0, r0, asr #32
    3648:	000004f9 	strdeq	r0, [r0], -r9
    364c:	000c5514 	andeq	r5, ip, r4, lsl r5
    3650:	2a4d0100 	bcs	1343a58 <_etext+0x1340b2b>
    3654:	000004f9 	strdeq	r0, [r0], -r9
    3658:	0e6c9102 	lgneqe	f1, f2
    365c:	00000bb5 			; <UNDEFINED> instruction: 0x00000bb5
    3660:	ff124f01 			; <UNDEFINED> instruction: 0xff124f01
    3664:	02000004 	andeq	r0, r0, #4
    3668:	f50e7491 			; <UNDEFINED> instruction: 0xf50e7491
    366c:	0100000b 	tsteq	r0, fp
    3670:	04ac0e50 	strteq	r0, [ip], #3664	; 0xe50
    3674:	91020000 	mrsls	r0, (UNDEF: 2)
    3678:	04070070 	streq	r0, [r7], #-112	; 0xffffff90
    367c:	00000105 	andeq	r0, r0, r5, lsl #2
    3680:	00cd0407 	sbceq	r0, sp, r7, lsl #8
    3684:	01120000 	tsteq	r2, r0
    3688:	00000c7a 	andeq	r0, r0, sl, ror ip
    368c:	01063801 	tsteq	r6, r1, lsl #16
    3690:	00002388 	andeq	r2, r0, r8, lsl #7
    3694:	000023f8 	strdeq	r2, [r0], -r8
    3698:	00002090 	muleq	r0, r0, r0
    369c:	00000548 	andeq	r0, r0, r8, asr #10
    36a0:	000bf514 	andeq	pc, fp, r4, lsl r5	; <UNPREDICTABLE>
    36a4:	1a380100 	bne	e03aac <_etext+0xe00b7f>
    36a8:	000004ac 	andeq	r0, r0, ip, lsr #9
    36ac:	156c9102 	strbne	r9, [ip, #-258]!	; 0xfffffefe
    36b0:	000023a8 	andeq	r2, r0, r8, lsr #7
    36b4:	000023be 			; <UNDEFINED> instruction: 0x000023be
    36b8:	0005f80e 	andeq	pc, r5, lr, lsl #16
    36bc:	163e0100 	ldrtne	r0, [lr], -r0, lsl #2
    36c0:	0000008f 	andeq	r0, r0, pc, lsl #1
    36c4:	00749102 	rsbseq	r9, r4, r2, lsl #2
    36c8:	6e011200 	cdpvs	2, 0, cr1, cr1, cr0, {0}
    36cc:	0100000c 	tsteq	r0, ip
    36d0:	fe010621 	cdp2	6, 0, cr0, cr1, cr1, {1}
    36d4:	88000022 	stmdahi	r0, {r1, r5}
    36d8:	e0000023 	and	r0, r0, r3, lsr #32
    36dc:	8b000020 	blhi	3764 <_etext+0x837>
    36e0:	14000005 	strne	r0, [r0], #-5
    36e4:	00000bf5 	strdeq	r0, [r0], -r5
    36e8:	ac1b2101 	ldfges	f2, [fp], {1}
    36ec:	02000004 	andeq	r0, r0, #4
    36f0:	3e156c91 	mrccc	12, 0, r6, cr5, cr1, {4}
    36f4:	54000023 	strpl	r0, [r0], #-35	; 0xffffffdd
    36f8:	0e000023 	cdpeq	0, 0, cr0, cr0, cr3, {1}
    36fc:	000005f8 	strdeq	r0, [r0], -r8
    3700:	8f162a01 	svchi	0x00162a01
    3704:	02000000 	andeq	r0, r0, #0
    3708:	00007491 	muleq	r0, r1, r4
    370c:	0c4a0116 	stfeqe	f0, [sl], {22}
    3710:	0a010000 	beq	43718 <_etext+0x407eb>
    3714:	22a40106 	adccs	r0, r4, #-2147483647	; 0x80000001
    3718:	22fe0000 	rscscs	r0, lr, #0
    371c:	21300000 	teqcs	r0, r0
    3720:	f5140000 			; <UNDEFINED> instruction: 0xf5140000
    3724:	0100000b 	tsteq	r0, fp
    3728:	04ac1a0a 	strteq	r1, [ip], #2570	; 0xa0a
    372c:	91020000 	mrsls	r0, (UNDEF: 2)
    3730:	0ca71474 	cfstrseq	mvf1, [r7], #464	; 0x1d0
    3734:	0a010000 	beq	4373c <_etext+0x4080f>
    3738:	00008f2a 	andeq	r8, r0, sl, lsr #30
    373c:	70910200 	addsvc	r0, r1, r0, lsl #4
    3740:	000c0914 	andeq	r0, ip, r4, lsl r9
    3744:	400a0100 	andmi	r0, sl, r0, lsl #2
    3748:	0000008f 	andeq	r0, r0, pc, lsl #1
    374c:	146c9102 	strbtne	r9, [ip], #-258	; 0xfffffefe
    3750:	00000be3 	andeq	r0, r0, r3, ror #23
    3754:	2f0f0b01 	svccs	0x000f0b01
    3758:	02000002 	andeq	r0, r0, #2
    375c:	61176891 			; <UNDEFINED> instruction: 0x61176891
    3760:	01006772 	tsteq	r0, r2, ror r7
    3764:	022d2d0b 	eoreq	r2, sp, #704	; 0x2c0
    3768:	91020000 	mrsls	r0, (UNDEF: 2)
    376c:	0bee1400 	bleq	ffb88774 <_heap_top+0xdfb48774>
    3770:	0b010000 	bleq	43778 <_etext+0x4084b>
    3774:	00008f3b 	andeq	r8, r0, fp, lsr pc
    3778:	04910200 	ldreq	r0, [r1], #512	; 0x200
    377c:	05370000 	ldreq	r0, [r7, #-0]!
    3780:	00020000 	andeq	r0, r2, r0
    3784:	00000c38 	andeq	r0, r0, r8, lsr ip
    3788:	00ad0104 	adceq	r0, sp, r4, lsl #2
    378c:	01010000 	mrseq	r0, (UNDEF: 1)
    3790:	4000000e 	andmi	r0, r0, lr
    3794:	4c000000 	stcmi	0, cr0, [r0], {-0}
    3798:	8a000025 	bhi	3834 <_etext+0x907>
    379c:	72000028 	andvc	r0, r0, #40	; 0x28
    37a0:	0200001c 	andeq	r0, r0, #28
    37a4:	000f0601 	andeq	r0, pc, r1, lsl #12
    37a8:	5f030000 	svcpl	0x00030000
    37ac:	02000001 	andeq	r0, r0, #1
    37b0:	0038182b 	eorseq	r1, r8, fp, lsr #16
    37b4:	01020000 	mrseq	r0, (UNDEF: 2)
    37b8:	00000d08 	andeq	r0, r0, r8, lsl #26
    37bc:	05020200 	streq	r0, [r2, #-512]	; 0xfffffe00
    37c0:	00000133 	andeq	r0, r0, r3, lsr r1
    37c4:	1b070202 	blne	1c3fd4 <_etext+0x1c10a7>
    37c8:	02000000 	andeq	r0, r0, #0
    37cc:	00a40504 	adceq	r0, r4, r4, lsl #10
    37d0:	4f030000 	svcmi	0x00030000
    37d4:	02000001 	andeq	r0, r0, #1
    37d8:	0060194f 	rsbeq	r1, r0, pc, asr #18
    37dc:	04020000 	streq	r0, [r2], #-0
    37e0:	00008d07 	andeq	r8, r0, r7, lsl #26
    37e4:	05080200 	streq	r0, [r8, #-512]	; 0xfffffe00
    37e8:	0000009f 	muleq	r0, pc, r0	; <UNPREDICTABLE>
    37ec:	88070802 	stmdahi	r7, {r1, fp}
    37f0:	04000000 	streq	r0, [r0], #-0
    37f4:	6e690504 	cdpvs	5, 6, cr0, cr9, cr4, {0}
    37f8:	04020074 	streq	r0, [r2], #-116	; 0xffffff8c
    37fc:	00009207 	andeq	r9, r0, r7, lsl #4
    3800:	01610300 	cmneq	r1, r0, lsl #6
    3804:	18030000 	stmdane	r3, {}	; <UNPREDICTABLE>
    3808:	00002c13 	andeq	r2, r0, r3, lsl ip
    380c:	01510300 	cmpeq	r1, r0, lsl #6
    3810:	30030000 	andcc	r0, r3, r0
    3814:	00005414 	andeq	r5, r0, r4, lsl r4
    3818:	04590500 	ldrbeq	r0, [r9], #-1280	; 0xfffffb00
    381c:	04080000 	streq	r0, [r8], #-0
    3820:	00c71012 	sbceq	r1, r7, r2, lsl r0
    3824:	a0060000 	andge	r0, r6, r0
    3828:	04000007 	streq	r0, [r0], #-7
    382c:	00c71b13 	sbceq	r1, r7, r3, lsl fp
    3830:	23020000 	movwcs	r0, #8192	; 0x2000
    3834:	08a50600 	stmiaeq	r5!, {r9, sl}
    3838:	14040000 	strne	r0, [r4], #-0
    383c:	0000c71b 	andeq	ip, r0, fp, lsl r7
    3840:	04230200 	strteq	r0, [r3], #-512	; 0xfffffe00
    3844:	9b040700 	blls	10544c <_etext+0x10251f>
    3848:	03000000 	movweq	r0, #0
    384c:	00000402 	andeq	r0, r0, r2, lsl #8
    3850:	9b021504 	blls	88c68 <_etext+0x85d3b>
    3854:	05000000 	streq	r0, [r0, #-0]
    3858:	0000040e 	andeq	r0, r0, lr, lsl #8
    385c:	1019040c 	andsne	r0, r9, ip, lsl #8
    3860:	00000105 	andeq	r0, r0, r5, lsl #2
    3864:	00089b06 	andeq	r9, r8, r6, lsl #22
    3868:	111a0400 	tstne	sl, r0, lsl #8
    386c:	000000cd 	andeq	r0, r0, sp, asr #1
    3870:	06002302 	streq	r2, [r0], -r2, lsl #6
    3874:	00000443 	andeq	r0, r0, r3, asr #8
    3878:	8f0e1b04 	svchi	0x000e1b04
    387c:	02000000 	andeq	r0, r0, #0
    3880:	03000823 	movweq	r0, #2083	; 0x823
    3884:	000003e9 	andeq	r0, r0, r9, ror #7
    3888:	d9021c04 	stmdble	r2, {r2, sl, fp, ip}
    388c:	03000000 	movweq	r0, #0
    3890:	000006ac 	andeq	r0, r0, ip, lsr #13
    3894:	8f120e05 	svchi	0x00120e05
    3898:	05000000 	streq	r0, [r0, #-0]
    389c:	000004f7 	strdeq	r0, [r0], -r7
    38a0:	10100548 	andsne	r0, r0, r8, asr #10
    38a4:	0000021b 	andeq	r0, r0, fp, lsl r2
    38a8:	000c4406 	andeq	r4, ip, r6, lsl #8
    38ac:	13120500 	tstne	r2, #0, 10
    38b0:	0000021b 	andeq	r0, r0, fp, lsl r2
    38b4:	06002302 	streq	r2, [r0], -r2, lsl #6
    38b8:	00000ca7 	andeq	r0, r0, r7, lsr #25
    38bc:	8f0e1305 	svchi	0x000e1305
    38c0:	02000000 	andeq	r0, r0, #0
    38c4:	cb060423 	blgt	184958 <_etext+0x181a2b>
    38c8:	0500000d 	streq	r0, [r0, #-13]
    38cc:	008f0e14 	addeq	r0, pc, r4, lsl lr	; <UNPREDICTABLE>
    38d0:	23020000 	movwcs	r0, #8192	; 0x2000
    38d4:	036f0608 	cmneq	pc, #8, 12	; 0x800000
    38d8:	17050000 	strne	r0, [r5, -r0]
    38dc:	0000cd11 	andeq	ip, r0, r1, lsl sp
    38e0:	0c230200 	sfmeq	f0, 4, [r3], #-0
    38e4:	000d4806 	andeq	r4, sp, r6, lsl #16
    38e8:	0e180500 	cfmul32eq	mvfx0, mvfx8, mvfx0
    38ec:	0000008f 	andeq	r0, r0, pc, lsl #1
    38f0:	06142302 	ldreq	r2, [r4], -r2, lsl #6
    38f4:	0000072c 	andeq	r0, r0, ip, lsr #14
    38f8:	cd111b05 	vldrgt	d1, [r1, #-20]	; 0xffffffec
    38fc:	02000000 	andeq	r0, r0, #0
    3900:	a1061823 	tstge	r6, r3, lsr #16
    3904:	05000005 	streq	r0, [r0, #-5]
    3908:	008f0e1c 	addeq	r0, pc, ip, lsl lr	; <UNPREDICTABLE>
    390c:	23020000 	movwcs	r0, #8192	; 0x2000
    3910:	06a00620 	strteq	r0, [r0], r0, lsr #12
    3914:	1f050000 	svcne	0x00050000
    3918:	00008f0e 	andeq	r8, r0, lr, lsl #30
    391c:	24230200 	strtcs	r0, [r3], #-512	; 0xfffffe00
    3920:	0004f106 	andeq	pc, r4, r6, lsl #2
    3924:	0c220500 	cfstr32eq	mvfx0, [r2], #-0
    3928:	0000022f 	andeq	r0, r0, pc, lsr #4
    392c:	06282302 	strteq	r2, [r8], -r2, lsl #6
    3930:	00000363 	andeq	r0, r0, r3, ror #6
    3934:	2d0b2305 	stccs	3, cr2, [fp, #-20]	; 0xffffffec
    3938:	02000002 	andeq	r0, r0, #2
    393c:	5f062c23 	svcpl	0x00062c23
    3940:	05000006 	streq	r0, [r0, #-6]
    3944:	00830d24 	addeq	r0, r3, r4, lsr #26
    3948:	23020000 	movwcs	r0, #8192	; 0x2000
    394c:	038a0630 	orreq	r0, sl, #48, 12	; 0x3000000
    3950:	27050000 	strcs	r0, [r5, -r0]
    3954:	00026117 	andeq	r6, r2, r7, lsl r1
    3958:	34230200 	strtcc	r0, [r3], #-512	; 0xfffffe00
    395c:	00060706 	andeq	r0, r6, r6, lsl #14
    3960:	0b280500 	bleq	a04d68 <_etext+0xa01e3b>
    3964:	0000022d 	andeq	r0, r0, sp, lsr #4
    3968:	06382302 	ldrteq	r2, [r8], -r2, lsl #6
    396c:	000003f0 	strdeq	r0, [r0], -r0	; <UNPREDICTABLE>
    3970:	8f0e2905 	svchi	0x000e2905
    3974:	02000000 	andeq	r0, r0, #0
    3978:	bf063c23 	svclt	0x00063c23
    397c:	05000005 	streq	r0, [r0, #-5]
    3980:	008f0e2c 	addeq	r0, pc, ip, lsr #28
    3984:	23020000 	movwcs	r0, #8192	; 0x2000
    3988:	044e0640 	strbeq	r0, [lr], #-1600	; 0xfffff9c0
    398c:	2d050000 	stccs	0, cr0, [r5, #-0]
    3990:	00008f0e 	andeq	r8, r0, lr, lsl #30
    3994:	44230200 	strtmi	r0, [r3], #-512	; 0xfffffe00
    3998:	11040700 	tstne	r4, r0, lsl #14
    399c:	08000001 	stmdaeq	r0, {r0}
    39a0:	00022d01 	andeq	r2, r2, r1, lsl #26
    39a4:	022d0900 	eoreq	r0, sp, #0, 18
    39a8:	0a000000 	beq	39b0 <_etext+0xa83>
    39ac:	21040704 	tstcs	r4, r4, lsl #14
    39b0:	05000002 	streq	r0, [r0, #-2]
    39b4:	00000395 	muleq	r0, r5, r3
    39b8:	101b0610 	andsne	r0, fp, r0, lsl r6
    39bc:	00000261 	andeq	r0, r0, r1, ror #4
    39c0:	0005c906 	andeq	ip, r5, r6, lsl #18
    39c4:	121c0600 	andsne	r0, ip, #0, 12
    39c8:	00000287 	andeq	r0, r0, r7, lsl #5
    39cc:	06002302 	streq	r2, [r0], -r2, lsl #6
    39d0:	00000705 	andeq	r0, r0, r5, lsl #14
    39d4:	050c1d06 	streq	r1, [ip, #-3334]	; 0xfffff2fa
    39d8:	02000001 	andeq	r0, r0, #1
    39dc:	07000423 	streq	r0, [r0, -r3, lsr #8]
    39e0:	00023504 	andeq	r3, r2, r4, lsl #10
    39e4:	04b30300 	ldrteq	r0, [r3], #768	; 0x300
    39e8:	2f050000 	svccs	0x00050000
    39ec:	00011d02 	andeq	r1, r1, r2, lsl #26
    39f0:	06b90b00 	ldrteq	r0, [r9], r0, lsl #22
    39f4:	3a050000 	bcc	1439fc <_etext+0x140acf>
    39f8:	00028110 	andeq	r8, r2, r0, lsl r1
    39fc:	07010100 	streq	r0, [r1, -r0, lsl #2]
    3a00:	00026704 	andeq	r6, r2, r4, lsl #14
    3a04:	05850300 	streq	r0, [r5, #768]	; 0x300
    3a08:	13060000 	movwne	r0, #24576	; 0x6000
    3a0c:	00008f12 	andeq	r8, r0, r2, lsl pc
    3a10:	06f40300 	ldrbteq	r0, [r4], r0, lsl #6
    3a14:	1e060000 	cdpne	0, 0, cr0, cr6, cr0, {0}
    3a18:	00023502 	andeq	r3, r2, r2, lsl #10
    3a1c:	0d790500 	cfldr64eq	mvdx0, [r9, #-0]
    3a20:	071c0000 	ldreq	r0, [ip, -r0]
    3a24:	02e91007 	rsceq	r1, r9, #7
    3a28:	8f060000 	svchi	0x00060000
    3a2c:	07000003 	streq	r0, [r0, -r3]
    3a30:	02930d09 	addseq	r0, r3, #576	; 0x240
    3a34:	23020000 	movwcs	r0, #8192	; 0x2000
    3a38:	0da50600 	stceq	6, cr0, [r5]
    3a3c:	0a070000 	beq	1c3a44 <_etext+0x1c0b17>
    3a40:	00008f0e 	andeq	r8, r0, lr, lsl #30
    3a44:	10230200 	eorne	r0, r3, r0, lsl #4
    3a48:	000dd006 	andeq	sp, sp, r6
    3a4c:	0d0b0700 	stceq	7, cr0, [fp, #-0]
    3a50:	00000281 	andeq	r0, r0, r1, lsl #5
    3a54:	06142302 	ldreq	r2, [r4], -r2, lsl #6
    3a58:	00000dd6 	ldrdeq	r0, [r0], -r6
    3a5c:	8f0e0c07 	svchi	0x000e0c07
    3a60:	02000000 	andeq	r0, r0, #0
    3a64:	03001823 	movweq	r1, #2083	; 0x823
    3a68:	00000df9 	strdeq	r0, [r0], -r9
    3a6c:	9f020d07 	svcls	0x00020d07
    3a70:	05000002 	streq	r0, [r0, #-2]
    3a74:	00000d96 	muleq	r0, r6, sp
    3a78:	10100714 	andsne	r0, r0, r4, lsl r7
    3a7c:	0000034e 	andeq	r0, r0, lr, asr #6
    3a80:	00093906 	andeq	r3, r9, r6, lsl #18
    3a84:	0e110700 	cdpeq	7, 1, cr0, cr1, cr0, {0}
    3a88:	0000008f 	andeq	r0, r0, pc, lsl #1
    3a8c:	06002302 	streq	r2, [r0], -r2, lsl #6
    3a90:	00000d60 	andeq	r0, r0, r0, ror #26
    3a94:	8f0e1207 	svchi	0x000e1207
    3a98:	02000000 	andeq	r0, r0, #0
    3a9c:	c6060423 	strgt	r0, [r6], -r3, lsr #8
    3aa0:	0700000d 	streq	r0, [r0, -sp]
    3aa4:	008f0e13 	addeq	r0, pc, r3, lsl lr	; <UNPREDICTABLE>
    3aa8:	23020000 	movwcs	r0, #8192	; 0x2000
    3aac:	0dd00608 	ldcleq	6, cr0, [r0, #32]
    3ab0:	14070000 	strne	r0, [r7], #-0
    3ab4:	0002810d 	andeq	r8, r2, sp, lsl #2
    3ab8:	0c230200 	sfmeq	f0, 4, [r3], #-0
    3abc:	000e1a06 	andeq	r1, lr, r6, lsl #20
    3ac0:	0e150700 	cdpeq	7, 1, cr0, cr5, cr0, {0}
    3ac4:	0000008f 	andeq	r0, r0, pc, lsl #1
    3ac8:	00102302 	andseq	r2, r0, r2, lsl #6
    3acc:	000e3403 	andeq	r3, lr, r3, lsl #8
    3ad0:	02160700 	andseq	r0, r6, #0, 14
    3ad4:	000002f5 	strdeq	r0, [r0], -r5
    3ad8:	0006c80c 	andeq	ip, r6, ip, lsl #16
    3adc:	05080100 	streq	r0, [r8, #-256]	; 0xffffff00
    3ae0:	0003860e 	andeq	r8, r3, lr, lsl #12
    3ae4:	03d30d00 	bicseq	r0, r3, #0, 26
    3ae8:	0d000000 	stceq	0, cr0, [r0, #-0]
    3aec:	00000748 	andeq	r0, r0, r8, asr #14
    3af0:	05410d01 	strbeq	r0, [r1, #-3329]	; 0xfffff2ff
    3af4:	0d020000 	stceq	0, cr0, [r2, #-0]
    3af8:	00000500 	andeq	r0, r0, r0, lsl #10
    3afc:	04670d03 	strbteq	r0, [r7], #-3331	; 0xfffff2fd
    3b00:	00040000 	andeq	r0, r4, r0
    3b04:	0dea010e 	stfeqe	f0, [sl, #56]!	; 0x38
    3b08:	8d010000 	stchi	0, cr0, [r1, #-0]
    3b0c:	282c0106 	stmdacs	ip!, {r1, r2, r8}
    3b10:	288a0000 	stmcs	sl, {}	; <UNPREDICTABLE>
    3b14:	21800000 	orrcs	r0, r0, r0
    3b18:	03ce0000 	biceq	r0, lr, #0
    3b1c:	140f0000 	strne	r0, [pc], #-0	; 3b24 <_etext+0xbf7>
    3b20:	0100000e 	tsteq	r0, lr
    3b24:	03ce1e8d 	biceq	r1, lr, #2256	; 0x8d0
    3b28:	91020000 	mrsls	r0, (UNDEF: 2)
    3b2c:	053c0f6c 	ldreq	r0, [ip, #-3948]!	; 0xfffff094
    3b30:	8d010000 	stchi	0, cr0, [r1, #-0]
    3b34:	0003d433 	andeq	sp, r3, r3, lsr r4
    3b38:	68910200 	ldmvs	r1, {r9}
    3b3c:	0005f810 	andeq	pc, r5, r0, lsl r8	; <UNPREDICTABLE>
    3b40:	0e8f0100 	rmfeqe	f0, f7, f0
    3b44:	0000008f 	andeq	r0, r0, pc, lsl #1
    3b48:	00749102 	rsbseq	r9, r4, r2, lsl #2
    3b4c:	02e90407 	rsceq	r0, r9, #117440512	; 0x7000000
    3b50:	04070000 	streq	r0, [r7], #-0
    3b54:	0000034e 	andeq	r0, r0, lr, asr #6
    3b58:	0d6b0111 	stfeqe	f0, [fp, #-68]!	; 0xffffffbc
    3b5c:	73010000 	movwvc	r0, #4096	; 0x1000
    3b60:	008f010a 	addeq	r0, pc, sl, lsl #2
    3b64:	27a80000 	strcs	r0, [r8, r0]!
    3b68:	282c0000 	stmdacs	ip!, {}	; <UNPREDICTABLE>
    3b6c:	21d00000 	bicscs	r0, r0, r0
    3b70:	04260000 	strteq	r0, [r6], #-0
    3b74:	140f0000 	strne	r0, [pc], #-0	; 3b7c <_etext+0xc4f>
    3b78:	0100000e 	tsteq	r0, lr
    3b7c:	03ce2173 	biceq	r2, lr, #-1073741796	; 0xc000001c
    3b80:	91020000 	mrsls	r0, (UNDEF: 2)
    3b84:	0e21106c 	cdpeq	0, 2, cr1, cr1, cr12, {3}
    3b88:	75010000 	strvc	r0, [r1, #-0]
    3b8c:	00008f0e 	andeq	r8, r0, lr, lsl #30
    3b90:	74910200 	ldrvc	r0, [r1], #512	; 0x200
    3b94:	0005f810 	andeq	pc, r5, r0, lsl r8	; <UNPREDICTABLE>
    3b98:	0e760100 	rpweqs	f0, f6, f0
    3b9c:	0000008f 	andeq	r0, r0, pc, lsl #1
    3ba0:	00709102 	rsbseq	r9, r0, r2, lsl #2
    3ba4:	0e270111 	mcreq	1, 1, r0, cr7, cr1, {0}
    3ba8:	48010000 	stmdami	r1, {}	; <UNPREDICTABLE>
    3bac:	008f010a 	addeq	r0, pc, sl, lsl #2
    3bb0:	26b80000 	ldrtcs	r0, [r8], r0
    3bb4:	27a80000 	strcs	r0, [r8, r0]!
    3bb8:	22200000 	eorcs	r0, r0, #0
    3bbc:	047c0000 	ldrbteq	r0, [ip], #-0
    3bc0:	140f0000 	strne	r0, [pc], #-0	; 3bc8 <_etext+0xc9b>
    3bc4:	0100000e 	tsteq	r0, lr
    3bc8:	03ce2048 	biceq	r2, lr, #72	; 0x48
    3bcc:	91020000 	mrsls	r0, (UNDEF: 2)
    3bd0:	05f8106c 	ldrbeq	r1, [r8, #108]!	; 0x6c
    3bd4:	4a010000 	bmi	43bdc <_etext+0x40caf>
    3bd8:	00008f0e 	andeq	r8, r0, lr, lsl #30
    3bdc:	74910200 	ldrvc	r0, [r1], #512	; 0x200
    3be0:	00275a12 	eoreq	r5, r7, r2, lsl sl
    3be4:	00279200 	eoreq	r9, r7, r0, lsl #4
    3be8:	041e1000 	ldreq	r1, [lr], #-0
    3bec:	66010000 	strvs	r0, [r1], -r0
    3bf0:	00028111 	andeq	r8, r2, r1, lsl r1
    3bf4:	70910200 	addsvc	r0, r1, r0, lsl #4
    3bf8:	01110000 	tsteq	r1, r0
    3bfc:	00000d83 	andeq	r0, r0, r3, lsl #27
    3c00:	010a3201 	tsteq	sl, r1, lsl #4
    3c04:	0000008f 	andeq	r0, r0, pc, lsl #1
    3c08:	00002648 	andeq	r2, r0, r8, asr #12
    3c0c:	000026b8 			; <UNDEFINED> instruction: 0x000026b8
    3c10:	00002270 	andeq	r2, r0, r0, ror r2
    3c14:	000004b9 			; <UNDEFINED> instruction: 0x000004b9
    3c18:	000e140f 	andeq	r1, lr, pc, lsl #8
    3c1c:	26320100 	ldrtcs	r0, [r2], -r0, lsl #2
    3c20:	000003ce 	andeq	r0, r0, lr, asr #7
    3c24:	106c9102 	rsbne	r9, ip, r2, lsl #2
    3c28:	000005f8 	strdeq	r0, [r0], -r8
    3c2c:	8f0e3401 	svchi	0x000e3401
    3c30:	02000000 	andeq	r0, r0, #0
    3c34:	11007491 			; <UNDEFINED> instruction: 0x11007491
    3c38:	000dbb01 	andeq	fp, sp, r1, lsl #22
    3c3c:	0a0d0100 	beq	344044 <_etext+0x341117>
    3c40:	00008f01 	andeq	r8, r0, r1, lsl #30
    3c44:	00257a00 	eoreq	r7, r5, r0, lsl #20
    3c48:	00264800 	eoreq	r4, r6, r0, lsl #16
    3c4c:	0022c000 	eoreq	ip, r2, r0
    3c50:	00051400 	andeq	r1, r5, r0, lsl #8
    3c54:	0e140f00 	cdpeq	15, 1, cr0, cr4, cr0, {0}
    3c58:	0d010000 	stceq	0, cr0, [r1, #-0]
    3c5c:	0003ce1e 	andeq	ip, r3, lr, lsl lr
    3c60:	6c910200 	lfmvs	f0, 4, [r1], {0}
    3c64:	0009970f 	andeq	r9, r9, pc, lsl #14
    3c68:	2e0d0100 	adfcse	f0, f5, f0
    3c6c:	0000008f 	andeq	r0, r0, pc, lsl #1
    3c70:	10689102 	rsbne	r9, r8, r2, lsl #2
    3c74:	000005f8 	strdeq	r0, [r0], -r8
    3c78:	8f0e0f01 	svchi	0x000e0f01
    3c7c:	02000000 	andeq	r0, r0, #0
    3c80:	d0107491 	mulsle	r0, r1, r4
    3c84:	0100000d 	tsteq	r0, sp
    3c88:	02810d10 	addeq	r0, r1, #16, 26	; 0x400
    3c8c:	91020000 	mrsls	r0, (UNDEF: 2)
    3c90:	01130070 	tsteq	r3, r0, ror r0
    3c94:	00000db0 			; <UNDEFINED> instruction: 0x00000db0
    3c98:	01060501 	tsteq	r6, r1, lsl #10
    3c9c:	0000254c 	andeq	r2, r0, ip, asr #10
    3ca0:	0000257a 	andeq	r2, r0, sl, ror r5
    3ca4:	00002310 	andeq	r2, r0, r0, lsl r3
    3ca8:	000e140f 	andeq	r1, lr, pc, lsl #8
    3cac:	1a050100 	bne	1440b4 <_etext+0x141187>
    3cb0:	000003ce 	andeq	r0, r0, lr, asr #7
    3cb4:	00749102 	rsbseq	r9, r4, r2, lsl #2
    3cb8:	00069e00 	andeq	r9, r6, r0, lsl #28
    3cbc:	56000200 	strpl	r0, [r0], -r0, lsl #4
    3cc0:	0400000d 	streq	r0, [r0], #-13
    3cc4:	0000ad01 	andeq	sl, r0, r1, lsl #26
    3cc8:	0ecc0100 	poleqe	f0, f4, f0
    3ccc:	00400000 	subeq	r0, r0, r0
    3cd0:	288c0000 	stmcs	ip, {}	; <UNPREDICTABLE>
    3cd4:	2b300000 	blcs	c03cdc <_etext+0xc00daf>
    3cd8:	1f9a0000 	svcne	0x009a0000
    3cdc:	01020000 	mrseq	r0, (UNDEF: 2)
    3ce0:	00000f06 	andeq	r0, r0, r6, lsl #30
    3ce4:	015f0300 	cmpeq	pc, r0, lsl #6
    3ce8:	2b020000 	blcs	83cf0 <_etext+0x80dc3>
    3cec:	00003818 	andeq	r3, r0, r8, lsl r8
    3cf0:	08010200 	stmdaeq	r1, {r9}
    3cf4:	0000000d 	andeq	r0, r0, sp
    3cf8:	33050202 	movwcc	r0, #20994	; 0x5202
    3cfc:	02000001 	andeq	r0, r0, #1
    3d00:	001b0702 	andseq	r0, fp, r2, lsl #14
    3d04:	04020000 	streq	r0, [r2], #-0
    3d08:	0000a405 	andeq	sl, r0, r5, lsl #8
    3d0c:	014f0300 	mrseq	r0, (UNDEF: 127)
    3d10:	4f020000 	svcmi	0x00020000
    3d14:	00006019 	andeq	r6, r0, r9, lsl r0
    3d18:	07040200 	streq	r0, [r4, -r0, lsl #4]
    3d1c:	0000008d 	andeq	r0, r0, sp, lsl #1
    3d20:	9f050802 	svcls	0x00050802
    3d24:	02000000 	andeq	r0, r0, #0
    3d28:	00880708 	addeq	r0, r8, r8, lsl #14
    3d2c:	04040000 	streq	r0, [r4], #-0
    3d30:	746e6905 	strbtvc	r6, [lr], #-2309	; 0xfffff6fb
    3d34:	07040200 	streq	r0, [r4, -r0, lsl #4]
    3d38:	00000092 	muleq	r0, r2, r0
    3d3c:	00016103 	andeq	r6, r1, r3, lsl #2
    3d40:	13180300 	tstne	r8, #0, 6
    3d44:	0000002c 	andeq	r0, r0, ip, lsr #32
    3d48:	00015103 	andeq	r5, r1, r3, lsl #2
    3d4c:	14300300 	ldrtne	r0, [r0], #-768	; 0xfffffd00
    3d50:	00000054 	andeq	r0, r0, r4, asr r0
    3d54:	00045905 	andeq	r5, r4, r5, lsl #18
    3d58:	12040800 	andne	r0, r4, #0, 16
    3d5c:	0000c710 	andeq	ip, r0, r0, lsl r7
    3d60:	07a00600 	streq	r0, [r0, r0, lsl #12]!
    3d64:	13040000 	movwne	r0, #16384	; 0x4000
    3d68:	0000c71b 	andeq	ip, r0, fp, lsl r7
    3d6c:	00230200 	eoreq	r0, r3, r0, lsl #4
    3d70:	0008a506 	andeq	sl, r8, r6, lsl #10
    3d74:	1b140400 	blne	504d7c <_etext+0x501e4f>
    3d78:	000000c7 	andeq	r0, r0, r7, asr #1
    3d7c:	00042302 	andeq	r2, r4, r2, lsl #6
    3d80:	009b0407 	addseq	r0, fp, r7, lsl #8
    3d84:	02030000 	andeq	r0, r3, #0
    3d88:	04000004 	streq	r0, [r0], #-4
    3d8c:	009b0215 	addseq	r0, fp, r5, lsl r2
    3d90:	0e050000 	cdpeq	0, 0, cr0, cr5, cr0, {0}
    3d94:	0c000004 	stceq	0, cr0, [r0], {4}
    3d98:	05101904 	ldreq	r1, [r0, #-2308]	; 0xfffff6fc
    3d9c:	06000001 	streq	r0, [r0], -r1
    3da0:	0000089b 	muleq	r0, fp, r8
    3da4:	cd111a04 	vldrgt	s2, [r1, #-16]
    3da8:	02000000 	andeq	r0, r0, #0
    3dac:	43060023 	movwmi	r0, #24611	; 0x6023
    3db0:	04000004 	streq	r0, [r0], #-4
    3db4:	008f0e1b 	addeq	r0, pc, fp, lsl lr	; <UNPREDICTABLE>
    3db8:	23020000 	movwcs	r0, #8192	; 0x2000
    3dbc:	e9030008 	stmdb	r3, {r3}
    3dc0:	04000003 	streq	r0, [r0], #-3
    3dc4:	00d9021c 	sbcseq	r0, r9, ip, lsl r2
    3dc8:	ac030000 	stcge	0, cr0, [r3], {-0}
    3dcc:	05000006 	streq	r0, [r0, #-6]
    3dd0:	008f120e 	addeq	r1, pc, lr, lsl #4
    3dd4:	f7050000 			; <UNDEFINED> instruction: 0xf7050000
    3dd8:	48000004 	stmdami	r0, {r2}
    3ddc:	1b101005 	blne	407df8 <_etext+0x404ecb>
    3de0:	06000002 	streq	r0, [r0], -r2
    3de4:	00000c44 	andeq	r0, r0, r4, asr #24
    3de8:	1b131205 	blne	4c8604 <_etext+0x4c56d7>
    3dec:	02000002 	andeq	r0, r0, #2
    3df0:	a7060023 	strge	r0, [r6, -r3, lsr #32]
    3df4:	0500000c 	streq	r0, [r0, #-12]
    3df8:	008f0e13 	addeq	r0, pc, r3, lsl lr	; <UNPREDICTABLE>
    3dfc:	23020000 	movwcs	r0, #8192	; 0x2000
    3e00:	0dcb0604 	stcleq	6, cr0, [fp, #16]
    3e04:	14050000 	strne	r0, [r5], #-0
    3e08:	00008f0e 	andeq	r8, r0, lr, lsl #30
    3e0c:	08230200 	stmdaeq	r3!, {r9}
    3e10:	00036f06 	andeq	r6, r3, r6, lsl #30
    3e14:	11170500 	tstne	r7, r0, lsl #10
    3e18:	000000cd 	andeq	r0, r0, sp, asr #1
    3e1c:	060c2302 	streq	r2, [ip], -r2, lsl #6
    3e20:	00000d48 	andeq	r0, r0, r8, asr #26
    3e24:	8f0e1805 	svchi	0x000e1805
    3e28:	02000000 	andeq	r0, r0, #0
    3e2c:	2c061423 	cfstrscs	mvf1, [r6], {35}	; 0x23
    3e30:	05000007 	streq	r0, [r0, #-7]
    3e34:	00cd111b 	sbceq	r1, sp, fp, lsl r1
    3e38:	23020000 	movwcs	r0, #8192	; 0x2000
    3e3c:	05a10618 	streq	r0, [r1, #1560]!	; 0x618
    3e40:	1c050000 	stcne	0, cr0, [r5], {-0}
    3e44:	00008f0e 	andeq	r8, r0, lr, lsl #30
    3e48:	20230200 	eorcs	r0, r3, r0, lsl #4
    3e4c:	0006a006 	andeq	sl, r6, r6
    3e50:	0e1f0500 	cfmul32eq	mvfx0, mvfx15, mvfx0
    3e54:	0000008f 	andeq	r0, r0, pc, lsl #1
    3e58:	06242302 	strteq	r2, [r4], -r2, lsl #6
    3e5c:	000004f1 	strdeq	r0, [r0], -r1
    3e60:	2f0c2205 	svccs	0x000c2205
    3e64:	02000002 	andeq	r0, r0, #2
    3e68:	63062823 	movwvs	r2, #26659	; 0x6823
    3e6c:	05000003 	streq	r0, [r0, #-3]
    3e70:	022d0b23 	eoreq	r0, sp, #35840	; 0x8c00
    3e74:	23020000 	movwcs	r0, #8192	; 0x2000
    3e78:	065f062c 	ldrbeq	r0, [pc], -ip, lsr #12
    3e7c:	24050000 	strcs	r0, [r5], #-0
    3e80:	0000830d 	andeq	r8, r0, sp, lsl #6
    3e84:	30230200 	eorcc	r0, r3, r0, lsl #4
    3e88:	00038a06 	andeq	r8, r3, r6, lsl #20
    3e8c:	17270500 	strne	r0, [r7, -r0, lsl #10]!
    3e90:	00000261 	andeq	r0, r0, r1, ror #4
    3e94:	06342302 	ldrteq	r2, [r4], -r2, lsl #6
    3e98:	00000607 	andeq	r0, r0, r7, lsl #12
    3e9c:	2d0b2805 	stccs	8, cr2, [fp, #-20]	; 0xffffffec
    3ea0:	02000002 	andeq	r0, r0, #2
    3ea4:	f0063823 			; <UNDEFINED> instruction: 0xf0063823
    3ea8:	05000003 	streq	r0, [r0, #-3]
    3eac:	008f0e29 	addeq	r0, pc, r9, lsr #28
    3eb0:	23020000 	movwcs	r0, #8192	; 0x2000
    3eb4:	05bf063c 	ldreq	r0, [pc, #1596]!	; 44f8 <_etext+0x15cb>
    3eb8:	2c050000 	stccs	0, cr0, [r5], {-0}
    3ebc:	00008f0e 	andeq	r8, r0, lr, lsl #30
    3ec0:	40230200 	eormi	r0, r3, r0, lsl #4
    3ec4:	00044e06 	andeq	r4, r4, r6, lsl #28
    3ec8:	0e2d0500 	cfsh64eq	mvdx0, mvdx13, #0
    3ecc:	0000008f 	andeq	r0, r0, pc, lsl #1
    3ed0:	00442302 	subeq	r2, r4, r2, lsl #6
    3ed4:	01110407 	tsteq	r1, r7, lsl #8
    3ed8:	01080000 	mrseq	r0, (UNDEF: 8)
    3edc:	0000022d 	andeq	r0, r0, sp, lsr #4
    3ee0:	00022d09 	andeq	r2, r2, r9, lsl #26
    3ee4:	040a0000 	streq	r0, [sl], #-0
    3ee8:	02210407 	eoreq	r0, r1, #117440512	; 0x7000000
    3eec:	95050000 	strls	r0, [r5, #-0]
    3ef0:	10000003 	andne	r0, r0, r3
    3ef4:	61101b06 	tstvs	r0, r6, lsl #22
    3ef8:	06000002 	streq	r0, [r0], -r2
    3efc:	000005c9 	andeq	r0, r0, r9, asr #11
    3f00:	87121c06 	ldrhi	r1, [r2, -r6, lsl #24]
    3f04:	02000002 	andeq	r0, r0, #2
    3f08:	05060023 	streq	r0, [r6, #-35]	; 0xffffffdd
    3f0c:	06000007 	streq	r0, [r0], -r7
    3f10:	01050c1d 	tsteq	r5, sp, lsl ip
    3f14:	23020000 	movwcs	r0, #8192	; 0x2000
    3f18:	04070004 	streq	r0, [r7], #-4
    3f1c:	00000235 	andeq	r0, r0, r5, lsr r2
    3f20:	0004b303 	andeq	fp, r4, r3, lsl #6
    3f24:	022f0500 	eoreq	r0, pc, #0, 10
    3f28:	0000011d 	andeq	r0, r0, sp, lsl r1
    3f2c:	0006b90b 	andeq	fp, r6, fp, lsl #18
    3f30:	103a0500 	eorsne	r0, sl, r0, lsl #10
    3f34:	00000281 	andeq	r0, r0, r1, lsl #5
    3f38:	04070101 	streq	r0, [r7], #-257	; 0xfffffeff
    3f3c:	00000267 	andeq	r0, r0, r7, ror #4
    3f40:	00058503 	andeq	r8, r5, r3, lsl #10
    3f44:	12130600 	andsne	r0, r3, #0, 12
    3f48:	0000008f 	andeq	r0, r0, pc, lsl #1
    3f4c:	0006f403 	andeq	pc, r6, r3, lsl #8
    3f50:	021e0600 	andseq	r0, lr, #0, 12
    3f54:	00000235 	andeq	r0, r0, r5, lsr r2
    3f58:	000e8305 	andeq	r8, lr, r5, lsl #6
    3f5c:	05071400 	streq	r1, [r7, #-1024]	; 0xfffffc00
    3f60:	0002cb10 	andeq	ip, r2, r0, lsl fp
    3f64:	038f0600 	orreq	r0, pc, #0, 12
    3f68:	07070000 	streq	r0, [r7, -r0]
    3f6c:	0002930d 	andeq	r9, r2, sp, lsl #6
    3f70:	00230200 	eoreq	r0, r3, r0, lsl #4
    3f74:	000f6c06 	andeq	r6, pc, r6, lsl #24
    3f78:	0e080700 	cdpeq	7, 0, cr0, cr8, cr0, {0}
    3f7c:	0000008f 	andeq	r0, r0, pc, lsl #1
    3f80:	00102302 	andseq	r2, r0, r2, lsl #6
    3f84:	000eb203 	andeq	fp, lr, r3, lsl #4
    3f88:	02090700 	andeq	r0, r9, #0, 14
    3f8c:	0000029f 	muleq	r0, pc, r2	; <UNPREDICTABLE>
    3f90:	000f2905 	andeq	r2, pc, r5, lsl #18
    3f94:	0b070800 	bleq	1c5f9c <_etext+0x1c306f>
    3f98:	00030310 	andeq	r0, r3, r0, lsl r3
    3f9c:	0fcf0600 	svceq	0x00cf0600
    3fa0:	0d070000 	stceq	0, cr0, [r7, #-0]
    3fa4:	00008f0e 	andeq	r8, r0, lr, lsl #30
    3fa8:	00230200 	eoreq	r0, r3, r0, lsl #4
    3fac:	00093906 	andeq	r3, r9, r6, lsl #18
    3fb0:	0e0e0700 	cdpeq	7, 0, cr0, cr14, cr0, {0}
    3fb4:	0000008f 	andeq	r0, r0, pc, lsl #1
    3fb8:	00042302 	andeq	r2, r4, r2, lsl #6
    3fbc:	000ee403 	andeq	lr, lr, r3, lsl #8
    3fc0:	020f0700 	andeq	r0, pc, #0, 14
    3fc4:	000002d7 	ldrdeq	r0, [r0], -r7
    3fc8:	0006c80c 	andeq	ip, r6, ip, lsl #16
    3fcc:	05080100 	streq	r0, [r8, #-256]	; 0xffffff00
    3fd0:	00033b0e 	andeq	r3, r3, lr, lsl #22
    3fd4:	03d30d00 	bicseq	r0, r3, #0, 26
    3fd8:	0d000000 	stceq	0, cr0, [r0, #-0]
    3fdc:	00000748 	andeq	r0, r0, r8, asr #14
    3fe0:	05410d01 	strbeq	r0, [r1, #-3329]	; 0xfffff2ff
    3fe4:	0d020000 	stceq	0, cr0, [r2, #-0]
    3fe8:	00000500 	andeq	r0, r0, r0, lsl #10
    3fec:	04670d03 	strbteq	r0, [r7], #-3331	; 0xfffff2fd
    3ff0:	00040000 	andeq	r0, r4, r0
    3ff4:	0e41010e 	dvfeqs	f0, f1, #0.5
    3ff8:	7c010000 	stcvc	0, cr0, [r1], {-0}
    3ffc:	008f010a 	addeq	r0, pc, sl, lsl #2
    4000:	2afa0000 	bcs	ffe84008 <_heap_top+0xdfe44008>
    4004:	2b300000 	blcs	c0400c <_etext+0xc010df>
    4008:	23600000 	cmncs	r0, #0
    400c:	03870000 	orreq	r0, r7, #0
    4010:	1e0f0000 	cdpne	0, 0, cr0, cr15, cr0, {0}
    4014:	0100000f 	tsteq	r0, pc
    4018:	03872b7c 	orreq	r2, r7, #124, 22	; 0x1f000
    401c:	91020000 	mrsls	r0, (UNDEF: 2)
    4020:	05f8106c 	ldrbeq	r1, [r8, #108]!	; 0x6c
    4024:	7e010000 	cdpvc	0, 0, cr0, cr1, cr0, {0}
    4028:	00008f0e 	andeq	r8, r0, lr, lsl #30
    402c:	74910200 	ldrvc	r0, [r1], #512	; 0x200
    4030:	000e2110 	andeq	r2, lr, r0, lsl r1
    4034:	0e7f0100 	rpweqe	f0, f7, f0
    4038:	0000008f 	andeq	r0, r0, pc, lsl #1
    403c:	00709102 	rsbseq	r9, r0, r2, lsl #2
    4040:	02cb0407 	sbceq	r0, fp, #117440512	; 0x7000000
    4044:	01110000 	tsteq	r1, r0
    4048:	00000f3d 	andeq	r0, r0, sp, lsr pc
    404c:	01067201 	tsteq	r6, r1, lsl #4
    4050:	00002ac6 	andeq	r2, r0, r6, asr #21
    4054:	00002afa 	strdeq	r2, [r0], -sl
    4058:	000023b0 			; <UNDEFINED> instruction: 0x000023b0
    405c:	000003d5 	ldrdeq	r0, [r0], -r5
    4060:	000f1e0f 	andeq	r1, pc, pc, lsl #28
    4064:	28720100 	ldmdacs	r2!, {r8}^
    4068:	00000387 	andeq	r0, r0, r7, lsl #7
    406c:	0f6c9102 	svceq	0x006c9102
    4070:	0000053c 	andeq	r0, r0, ip, lsr r5
    4074:	d5477201 	strble	r7, [r7, #-513]	; 0xfffffdff
    4078:	02000003 	andeq	r0, r0, #3
    407c:	f8106891 			; <UNDEFINED> instruction: 0xf8106891
    4080:	01000005 	tsteq	r0, r5
    4084:	008f0e74 	addeq	r0, pc, r4, ror lr	; <UNPREDICTABLE>
    4088:	91020000 	mrsls	r0, (UNDEF: 2)
    408c:	04070074 	streq	r0, [r7], #-116	; 0xffffff8c
    4090:	00000303 	andeq	r0, r0, r3, lsl #6
    4094:	0e540111 	mrceq	1, 2, r0, cr4, cr1, {0}
    4098:	4f010000 	svcmi	0x00010000
    409c:	2a140106 	bcs	5044bc <_etext+0x50158f>
    40a0:	2ac60000 	bcs	ff1840a8 <_heap_top+0xdf1440a8>
    40a4:	24000000 	strcs	r0, [r0], #-0
    40a8:	04a50000 	strteq	r0, [r5], #0
    40ac:	1e0f0000 	cdpne	0, 0, cr0, cr15, cr0, {0}
    40b0:	0100000f 	tsteq	r0, pc
    40b4:	0387264f 	orreq	r2, r7, #82837504	; 0x4f00000
    40b8:	91020000 	mrsls	r0, (UNDEF: 2)
    40bc:	0e920f54 	mrceq	15, 4, r0, cr2, cr4, {2}
    40c0:	4f010000 	svcmi	0x00010000
    40c4:	0000833a 	andeq	r8, r0, sl, lsr r3
    40c8:	53910200 	orrspl	r0, r1, #0, 4
    40cc:	000f6c0f 	andeq	r6, pc, pc, lsl #24
    40d0:	4b4f0100 	blmi	13c44d8 <_etext+0x13c15ab>
    40d4:	0000008f 	andeq	r0, r0, pc, lsl #1
    40d8:	104c9102 	subne	r9, ip, r2, lsl #2
    40dc:	00000705 	andeq	r0, r0, r5, lsl #14
    40e0:	a50d5101 	strge	r5, [sp, #-257]	; 0xfffffeff
    40e4:	02000004 	andeq	r0, r0, #4
    40e8:	b5106891 	ldrlt	r6, [r0, #-2193]	; 0xfffff76f
    40ec:	0100000b 	tsteq	r0, fp
    40f0:	04ab1252 	strteq	r1, [fp], #594	; 0x252
    40f4:	91020000 	mrsls	r0, (UNDEF: 2)
    40f8:	086b1074 	stmdaeq	fp!, {r2, r4, r5, r6, ip}^
    40fc:	53010000 	movwpl	r0, #4096	; 0x1000
    4100:	0004ab12 	andeq	sl, r4, r2, lsl fp
    4104:	60910200 	addsvs	r0, r1, r0, lsl #4
    4108:	0005f810 	andeq	pc, r5, r0, lsl r8	; <UNPREDICTABLE>
    410c:	0e540100 	rdfeqs	f0, f4, f0
    4110:	0000008f 	andeq	r0, r0, pc, lsl #1
    4114:	106c9102 	rsbne	r9, ip, r2, lsl #2
    4118:	0000078a 	andeq	r0, r0, sl, lsl #15
    411c:	830d5501 	movwhi	r5, #54529	; 0xd501
    4120:	02000000 	andeq	r0, r0, #0
    4124:	fb107391 	blx	420f72 <_etext+0x41e045>
    4128:	01000003 	tsteq	r0, r3
    412c:	008f0e56 	addeq	r0, pc, r6, asr lr	; <UNPREDICTABLE>
    4130:	91020000 	mrsls	r0, (UNDEF: 2)
    4134:	2a5e125c 	bcs	1788aac <_etext+0x1785b7f>
    4138:	2aa00000 	bcs	fe804140 <_heap_top+0xde7c4140>
    413c:	1e100000 	cdpne	0, 1, cr0, cr0, cr0, {0}
    4140:	01000004 	tsteq	r0, r4
    4144:	02811160 	addeq	r1, r1, #96, 2
    4148:	91020000 	mrsls	r0, (UNDEF: 2)
    414c:	0fcf1064 	svceq	0x00cf1064
    4150:	61010000 	mrsvs	r0, (UNDEF: 1)
    4154:	00008f12 	andeq	r8, r0, r2, lsl pc
    4158:	58910200 	ldmpl	r1, {r9}
    415c:	04070000 	streq	r0, [r7], #-0
    4160:	00000105 	andeq	r0, r0, r5, lsl #2
    4164:	00cd0407 	sbceq	r0, sp, r7, lsl #8
    4168:	010e0000 	mrseq	r0, (UNDEF: 14)
    416c:	00000f51 	andeq	r0, r0, r1, asr pc
    4170:	010a4001 	tsteq	sl, r1
    4174:	0000008f 	andeq	r0, r0, pc, lsl #1
    4178:	000029d8 	ldrdeq	r2, [r0], -r8
    417c:	00002a14 	andeq	r2, r0, r4, lsl sl
    4180:	00002450 	andeq	r2, r0, r0, asr r4
    4184:	00000539 	andeq	r0, r0, r9, lsr r5
    4188:	000f1e0f 	andeq	r1, pc, pc, lsl #28
    418c:	2f400100 	svccs	0x00400100
    4190:	00000387 	andeq	r0, r0, r7, lsl #7
    4194:	0f649102 	svceq	0x00649102
    4198:	00000e66 	andeq	r0, r0, r6, ror #28
    419c:	8f444001 	svchi	0x00444001
    41a0:	02000000 	andeq	r0, r0, #0
    41a4:	bf0f6091 	svclt	0x000f6091
    41a8:	0100000e 	tsteq	r0, lr
    41ac:	008f5840 	addeq	r5, pc, r0, asr #16
    41b0:	91020000 	mrsls	r0, (UNDEF: 2)
    41b4:	0e770f5c 	mrceq	15, 3, r0, cr7, cr12, {2}
    41b8:	41010000 	mrsmi	r0, (UNDEF: 1)
    41bc:	00053927 	andeq	r3, r5, r7, lsr #18
    41c0:	58910200 	ldmpl	r1, {r9}
    41c4:	000fcf10 	andeq	ip, pc, r0, lsl pc	; <UNPREDICTABLE>
    41c8:	0e440100 	dvfeqs	f0, f4, f0
    41cc:	0000008f 	andeq	r0, r0, pc, lsl #1
    41d0:	10749102 	rsbsne	r9, r4, r2, lsl #2
    41d4:	000003fb 	strdeq	r0, [r0], -fp
    41d8:	8f0e4501 	svchi	0x000e4501
    41dc:	02000000 	andeq	r0, r0, #0
    41e0:	f8106c91 			; <UNDEFINED> instruction: 0xf8106c91
    41e4:	01000005 	tsteq	r0, r5
    41e8:	008f0e47 	addeq	r0, pc, r7, asr #28
    41ec:	91020000 	mrsls	r0, (UNDEF: 2)
    41f0:	04070070 	streq	r0, [r7], #-112	; 0xffffff90
    41f4:	0000008f 	andeq	r0, r0, pc, lsl #1
    41f8:	0f71010e 	svceq	0x0071010e
    41fc:	26010000 	strcs	r0, [r1], -r0
    4200:	008f010a 	addeq	r0, pc, sl, lsl #2
    4204:	29540000 	ldmdbcs	r4, {}^	; <UNPREDICTABLE>
    4208:	29d80000 	ldmibcs	r8, {}^	; <UNPREDICTABLE>
    420c:	24a00000 	strtcs	r0, [r0], #0
    4210:	05d60000 	ldrbeq	r0, [r6]
    4214:	1e0f0000 	cdpne	0, 0, cr0, cr15, cr0, {0}
    4218:	0100000f 	tsteq	r0, pc
    421c:	03872826 	orreq	r2, r7, #2490368	; 0x260000
    4220:	91020000 	mrsls	r0, (UNDEF: 2)
    4224:	0e660f64 	cdpeq	15, 6, cr0, cr6, cr4, {3}
    4228:	26010000 	strcs	r0, [r1], -r0
    422c:	00008f3d 	andeq	r8, r0, sp, lsr pc
    4230:	60910200 	addsvs	r0, r1, r0, lsl #4
    4234:	000ebf0f 	andeq	fp, lr, pc, lsl #30
    4238:	16270100 	strtne	r0, [r7], -r0, lsl #2
    423c:	0000008f 	andeq	r0, r0, pc, lsl #1
    4240:	0f5c9102 	svceq	0x005c9102
    4244:	00000e77 	andeq	r0, r0, r7, ror lr
    4248:	392e2701 	stmdbcc	lr!, {r0, r8, r9, sl, sp}
    424c:	02000005 	andeq	r0, r0, #5
    4250:	970f5891 			; <UNDEFINED> instruction: 0x970f5891
    4254:	01000009 	tsteq	r0, r9
    4258:	008f4427 	addeq	r4, pc, r7, lsr #8
    425c:	91020000 	mrsls	r0, (UNDEF: 2)
    4260:	03fb1000 	mvnseq	r1, #0
    4264:	29010000 	stmdbcs	r1, {}	; <UNPREDICTABLE>
    4268:	00008f0e 	andeq	r8, r0, lr, lsl #30
    426c:	70910200 	addsvc	r0, r1, r0, lsl #4
    4270:	000fcf10 	andeq	ip, pc, r0, lsl pc	; <UNPREDICTABLE>
    4274:	0e2a0100 	sufeqe	f0, f2, f0
    4278:	0000008f 	andeq	r0, r0, pc, lsl #1
    427c:	106c9102 	rsbne	r9, ip, r2, lsl #2
    4280:	000005f8 	strdeq	r0, [r0], -r8
    4284:	8f0e2b01 	svchi	0x000e2b01
    4288:	02000000 	andeq	r0, r0, #0
    428c:	13007491 	movwne	r7, #1169	; 0x491
    4290:	00000f01 	andeq	r0, r0, r1, lsl #30
    4294:	01110b01 	tsteq	r1, r1, lsl #22
    4298:	0000008f 	andeq	r0, r0, pc, lsl #1
    429c:	000028b0 			; <UNDEFINED> instruction: 0x000028b0
    42a0:	00002954 	andeq	r2, r0, r4, asr r9
    42a4:	000024f0 	strdeq	r2, [r0], -r0
    42a8:	0000066c 	andeq	r0, r0, ip, ror #12
    42ac:	000f1e0f 	andeq	r1, pc, pc, lsl #28
    42b0:	3c0b0100 	stfccs	f0, [fp], {-0}
    42b4:	00000387 	andeq	r0, r0, r7, lsl #7
    42b8:	0f5c9102 	svceq	0x005c9102
    42bc:	000005c9 	andeq	r0, r0, r9, asr #11
    42c0:	8f1e0c01 	svchi	0x001e0c01
    42c4:	02000000 	andeq	r0, r0, #0
    42c8:	6c0f5891 	stcvs	8, cr5, [pc], {145}	; 0x91
    42cc:	0100000f 	tsteq	r0, pc
    42d0:	05392e0c 	ldreq	r2, [r9, #-3596]!	; 0xfffff1f4
    42d4:	91020000 	mrsls	r0, (UNDEF: 2)
    42d8:	0f681054 	svceq	0x00681054
    42dc:	0e010000 	cdpeq	0, 0, cr0, cr1, cr0, {0}
    42e0:	00008f0e 	andeq	r8, r0, lr, lsl #30
    42e4:	74910200 	ldrvc	r0, [r1], #512	; 0x200
    42e8:	000e9210 	andeq	r9, lr, r0, lsl r2
    42ec:	0e0f0100 	adfeqe	f0, f7, f0
    42f0:	0000008f 	andeq	r0, r0, pc, lsl #1
    42f4:	10709102 	rsbsne	r9, r0, r2, lsl #2
    42f8:	00000e70 	andeq	r0, r0, r0, ror lr
    42fc:	8f0e1001 	svchi	0x000e1001
    4300:	02000000 	andeq	r0, r0, #0
    4304:	f6106c91 			; <UNDEFINED> instruction: 0xf6106c91
    4308:	0100000e 	tsteq	r0, lr
    430c:	008f0e11 	addeq	r0, pc, r1, lsl lr	; <UNPREDICTABLE>
    4310:	91020000 	mrsls	r0, (UNDEF: 2)
    4314:	0e991068 	cdpeq	0, 9, cr1, cr9, cr8, {3}
    4318:	13010000 	movwne	r0, #4096	; 0x1000
    431c:	00008f0e 	andeq	r8, r0, lr, lsl #30
    4320:	64910200 	ldrvs	r0, [r1], #512	; 0x200
    4324:	a2011400 	andge	r1, r1, #0, 8
    4328:	0100000e 	tsteq	r0, lr
    432c:	8c010605 	stchi	6, cr0, [r1], {5}
    4330:	b0000028 	andlt	r0, r0, r8, lsr #32
    4334:	4c000028 	stcmi	0, cr0, [r0], {40}	; 0x28
    4338:	0f000025 	svceq	0x00000025
    433c:	00000f1e 	andeq	r0, r0, lr, lsl pc
    4340:	87240501 	strhi	r0, [r4, -r1, lsl #10]!
    4344:	02000003 	andeq	r0, r0, #3
    4348:	cf0f7491 	svcgt	0x000f7491
    434c:	0100000f 	tsteq	r0, pc
    4350:	008f3905 	addeq	r3, pc, r5, lsl #18
    4354:	91020000 	mrsls	r0, (UNDEF: 2)
    4358:	0c000070 	stceq	0, cr0, [r0], {112}	; 0x70
    435c:	02000005 	andeq	r0, r0, #5
    4360:	000e8d00 	andeq	r8, lr, r0, lsl #26
    4364:	ad010400 	cfstrsge	mvf0, [r1, #-0]
    4368:	01000000 	mrseq	r0, (UNDEF: 0)
    436c:	00001007 	andeq	r1, r0, r7
    4370:	00000040 	andeq	r0, r0, r0, asr #32
    4374:	00002b30 	andeq	r2, r0, r0, lsr fp
    4378:	00002cb8 			; <UNDEFINED> instruction: 0x00002cb8
    437c:	00002222 	andeq	r2, r0, r2, lsr #4
    4380:	0f060102 	svceq	0x00060102
    4384:	03000000 	movweq	r0, #0
    4388:	0000015f 	andeq	r0, r0, pc, asr r1
    438c:	38182b02 	ldmdacc	r8, {r1, r8, r9, fp, sp}
    4390:	02000000 	andeq	r0, r0, #0
    4394:	000d0801 	andeq	r0, sp, r1, lsl #16
    4398:	02020000 	andeq	r0, r2, #0
    439c:	00013305 	andeq	r3, r1, r5, lsl #6
    43a0:	07020200 	streq	r0, [r2, -r0, lsl #4]
    43a4:	0000001b 	andeq	r0, r0, fp, lsl r0
    43a8:	a4050402 	strge	r0, [r5], #-1026	; 0xfffffbfe
    43ac:	03000000 	movweq	r0, #0
    43b0:	0000014f 	andeq	r0, r0, pc, asr #2
    43b4:	60194f02 	andsvs	r4, r9, r2, lsl #30
    43b8:	02000000 	andeq	r0, r0, #0
    43bc:	008d0704 	addeq	r0, sp, r4, lsl #14
    43c0:	08020000 	stmdaeq	r2, {}	; <UNPREDICTABLE>
    43c4:	00009f05 	andeq	r9, r0, r5, lsl #30
    43c8:	07080200 	streq	r0, [r8, -r0, lsl #4]
    43cc:	00000088 	andeq	r0, r0, r8, lsl #1
    43d0:	69050404 	stmdbvs	r5, {r2, sl}
    43d4:	0200746e 	andeq	r7, r0, #1845493760	; 0x6e000000
    43d8:	00920704 	addseq	r0, r2, r4, lsl #14
    43dc:	61030000 	mrsvs	r0, (UNDEF: 3)
    43e0:	03000001 	movweq	r0, #1
    43e4:	002c1318 	eoreq	r1, ip, r8, lsl r3
    43e8:	51030000 	mrspl	r0, (UNDEF: 3)
    43ec:	03000001 	movweq	r0, #1
    43f0:	00541430 	subseq	r1, r4, r0, lsr r4
    43f4:	59050000 	stmdbpl	r5, {}	; <UNPREDICTABLE>
    43f8:	08000004 	stmdaeq	r0, {r2}
    43fc:	c7101204 	ldrgt	r1, [r0, -r4, lsl #4]
    4400:	06000000 	streq	r0, [r0], -r0
    4404:	000007a0 	andeq	r0, r0, r0, lsr #15
    4408:	c71b1304 	ldrgt	r1, [fp, -r4, lsl #6]
    440c:	02000000 	andeq	r0, r0, #0
    4410:	a5060023 	strge	r0, [r6, #-35]	; 0xffffffdd
    4414:	04000008 	streq	r0, [r0], #-8
    4418:	00c71b14 	sbceq	r1, r7, r4, lsl fp
    441c:	23020000 	movwcs	r0, #8192	; 0x2000
    4420:	04070004 	streq	r0, [r7], #-4
    4424:	0000009b 	muleq	r0, fp, r0
    4428:	00040203 	andeq	r0, r4, r3, lsl #4
    442c:	02150400 	andseq	r0, r5, #0, 8
    4430:	0000009b 	muleq	r0, fp, r0
    4434:	00040e05 	andeq	r0, r4, r5, lsl #28
    4438:	19040c00 	stmdbne	r4, {sl, fp}
    443c:	00010510 	andeq	r0, r1, r0, lsl r5
    4440:	089b0600 	ldmeq	fp, {r9, sl}
    4444:	1a040000 	bne	10444c <_etext+0x10151f>
    4448:	0000cd11 	andeq	ip, r0, r1, lsl sp
    444c:	00230200 	eoreq	r0, r3, r0, lsl #4
    4450:	00044306 	andeq	r4, r4, r6, lsl #6
    4454:	0e1b0400 	cfmulseq	mvf0, mvf11, mvf0
    4458:	0000008f 	andeq	r0, r0, pc, lsl #1
    445c:	00082302 	andeq	r2, r8, r2, lsl #6
    4460:	0003e903 	andeq	lr, r3, r3, lsl #18
    4464:	021c0400 	andseq	r0, ip, #0, 8
    4468:	000000d9 	ldrdeq	r0, [r0], -r9
    446c:	0006ac03 	andeq	sl, r6, r3, lsl #24
    4470:	120e0500 	andne	r0, lr, #0, 10
    4474:	0000008f 	andeq	r0, r0, pc, lsl #1
    4478:	0004f705 	andeq	pc, r4, r5, lsl #14
    447c:	10054800 	andne	r4, r5, r0, lsl #16
    4480:	00021b10 	andeq	r1, r2, r0, lsl fp
    4484:	0c440600 	mcrreq	6, 0, r0, r4, cr0
    4488:	12050000 	andne	r0, r5, #0
    448c:	00021b13 	andeq	r1, r2, r3, lsl fp
    4490:	00230200 	eoreq	r0, r3, r0, lsl #4
    4494:	000ca706 	andeq	sl, ip, r6, lsl #14
    4498:	0e130500 	cfmul32eq	mvfx0, mvfx3, mvfx0
    449c:	0000008f 	andeq	r0, r0, pc, lsl #1
    44a0:	06042302 	streq	r2, [r4], -r2, lsl #6
    44a4:	00000dcb 	andeq	r0, r0, fp, asr #27
    44a8:	8f0e1405 	svchi	0x000e1405
    44ac:	02000000 	andeq	r0, r0, #0
    44b0:	6f060823 	svcvs	0x00060823
    44b4:	05000003 	streq	r0, [r0, #-3]
    44b8:	00cd1117 	sbceq	r1, sp, r7, lsl r1
    44bc:	23020000 	movwcs	r0, #8192	; 0x2000
    44c0:	0d48060c 	stcleq	6, cr0, [r8, #-48]	; 0xffffffd0
    44c4:	18050000 	stmdane	r5, {}	; <UNPREDICTABLE>
    44c8:	00008f0e 	andeq	r8, r0, lr, lsl #30
    44cc:	14230200 	strtne	r0, [r3], #-512	; 0xfffffe00
    44d0:	00072c06 	andeq	r2, r7, r6, lsl #24
    44d4:	111b0500 	tstne	fp, r0, lsl #10
    44d8:	000000cd 	andeq	r0, r0, sp, asr #1
    44dc:	06182302 	ldreq	r2, [r8], -r2, lsl #6
    44e0:	000005a1 	andeq	r0, r0, r1, lsr #11
    44e4:	8f0e1c05 	svchi	0x000e1c05
    44e8:	02000000 	andeq	r0, r0, #0
    44ec:	a0062023 	andge	r2, r6, r3, lsr #32
    44f0:	05000006 	streq	r0, [r0, #-6]
    44f4:	008f0e1f 	addeq	r0, pc, pc, lsl lr	; <UNPREDICTABLE>
    44f8:	23020000 	movwcs	r0, #8192	; 0x2000
    44fc:	04f10624 	ldrbteq	r0, [r1], #1572	; 0x624
    4500:	22050000 	andcs	r0, r5, #0
    4504:	00022f0c 	andeq	r2, r2, ip, lsl #30
    4508:	28230200 	stmdacs	r3!, {r9}
    450c:	00036306 	andeq	r6, r3, r6, lsl #6
    4510:	0b230500 	bleq	8c5918 <_etext+0x8c29eb>
    4514:	0000022d 	andeq	r0, r0, sp, lsr #4
    4518:	062c2302 	strteq	r2, [ip], -r2, lsl #6
    451c:	0000065f 	andeq	r0, r0, pc, asr r6
    4520:	830d2405 	movwhi	r2, #54277	; 0xd405
    4524:	02000000 	andeq	r0, r0, #0
    4528:	8a063023 	bhi	1905bc <_etext+0x18d68f>
    452c:	05000003 	streq	r0, [r0, #-3]
    4530:	02611727 	rsbeq	r1, r1, #10223616	; 0x9c0000
    4534:	23020000 	movwcs	r0, #8192	; 0x2000
    4538:	06070634 			; <UNDEFINED> instruction: 0x06070634
    453c:	28050000 	stmdacs	r5, {}	; <UNPREDICTABLE>
    4540:	00022d0b 	andeq	r2, r2, fp, lsl #26
    4544:	38230200 	stmdacc	r3!, {r9}
    4548:	0003f006 	andeq	pc, r3, r6
    454c:	0e290500 	cfsh64eq	mvdx0, mvdx9, #0
    4550:	0000008f 	andeq	r0, r0, pc, lsl #1
    4554:	063c2302 	ldrteq	r2, [ip], -r2, lsl #6
    4558:	000005bf 			; <UNDEFINED> instruction: 0x000005bf
    455c:	8f0e2c05 	svchi	0x000e2c05
    4560:	02000000 	andeq	r0, r0, #0
    4564:	4e064023 	cdpmi	0, 0, cr4, cr6, cr3, {1}
    4568:	05000004 	streq	r0, [r0, #-4]
    456c:	008f0e2d 	addeq	r0, pc, sp, lsr #28
    4570:	23020000 	movwcs	r0, #8192	; 0x2000
    4574:	04070044 	streq	r0, [r7], #-68	; 0xffffffbc
    4578:	00000111 	andeq	r0, r0, r1, lsl r1
    457c:	022d0108 	eoreq	r0, sp, #8, 2
    4580:	2d090000 	stccs	0, cr0, [r9, #-0]
    4584:	00000002 	andeq	r0, r0, r2
    4588:	0407040a 	streq	r0, [r7], #-1034	; 0xfffffbf6
    458c:	00000221 	andeq	r0, r0, r1, lsr #4
    4590:	00039505 	andeq	r9, r3, r5, lsl #10
    4594:	1b061000 	blne	18859c <_etext+0x18566f>
    4598:	00026110 	andeq	r6, r2, r0, lsl r1
    459c:	05c90600 	strbeq	r0, [r9, #1536]	; 0x600
    45a0:	1c060000 	stcne	0, cr0, [r6], {-0}
    45a4:	00028712 	andeq	r8, r2, r2, lsl r7
    45a8:	00230200 	eoreq	r0, r3, r0, lsl #4
    45ac:	00070506 	andeq	r0, r7, r6, lsl #10
    45b0:	0c1d0600 	ldceq	6, cr0, [sp], {-0}
    45b4:	00000105 	andeq	r0, r0, r5, lsl #2
    45b8:	00042302 	andeq	r2, r4, r2, lsl #6
    45bc:	02350407 	eorseq	r0, r5, #117440512	; 0x7000000
    45c0:	b3030000 	movwlt	r0, #12288	; 0x3000
    45c4:	05000004 	streq	r0, [r0, #-4]
    45c8:	011d022f 	tsteq	sp, pc, lsr #4
    45cc:	04070000 	streq	r0, [r7], #-0
    45d0:	00000267 	andeq	r0, r0, r7, ror #4
    45d4:	0005e00b 	andeq	lr, r5, fp
    45d8:	103b0500 	eorsne	r0, fp, r0, lsl #10
    45dc:	00000273 	andeq	r0, r0, r3, ror r2
    45e0:	85030101 	strhi	r0, [r3, #-257]	; 0xfffffeff
    45e4:	06000005 	streq	r0, [r0], -r5
    45e8:	008f1213 	addeq	r1, pc, r3, lsl r2	; <UNPREDICTABLE>
    45ec:	f4030000 	vst4.8	{d0-d3}, [r3], r0
    45f0:	06000006 	streq	r0, [r0], -r6
    45f4:	0235021e 	eorseq	r0, r5, #-536870911	; 0xe0000001
    45f8:	83050000 	movwhi	r0, #20480	; 0x5000
    45fc:	1400000e 	strne	r0, [r0], #-14
    4600:	cb100507 	blgt	405a24 <_etext+0x402af7>
    4604:	06000002 	streq	r0, [r0], -r2
    4608:	0000038f 	andeq	r0, r0, pc, lsl #7
    460c:	930d0707 	movwls	r0, #55047	; 0xd707
    4610:	02000002 	andeq	r0, r0, #2
    4614:	6c060023 	stcvs	0, cr0, [r6], {35}	; 0x23
    4618:	0700000f 	streq	r0, [r0, -pc]
    461c:	008f0e08 	addeq	r0, pc, r8, lsl #28
    4620:	23020000 	movwcs	r0, #8192	; 0x2000
    4624:	b2030010 	andlt	r0, r3, #16
    4628:	0700000e 	streq	r0, [r0, -lr]
    462c:	029f0209 	addseq	r0, pc, #-1879048192	; 0x90000000
    4630:	f80b0000 			; <UNDEFINED> instruction: 0xf80b0000
    4634:	0100000f 	tsteq	r0, pc
    4638:	008f110b 	addeq	r1, pc, fp, lsl #2
    463c:	01010000 	mrseq	r0, (UNDEF: 1)
    4640:	000fa10b 	andeq	sl, pc, fp, lsl #2
    4644:	110c0100 	mrsne	r0, (UNDEF: 28)
    4648:	0000008f 	andeq	r0, r0, pc, lsl #1
    464c:	e10c0101 	tst	ip, r1, lsl #2
    4650:	0100000f 	tsteq	r0, pc
    4654:	02670818 	rsbeq	r0, r7, #24, 16	; 0x180000
    4658:	05010000 	streq	r0, [r1, #-0]
    465c:	00227803 	eoreq	r7, r2, r3, lsl #16
    4660:	0fa70c20 	svceq	0x00a70c20
    4664:	19010000 	stmdbne	r1, {}	; <UNPREDICTABLE>
    4668:	00026708 	andeq	r6, r2, r8, lsl #14
    466c:	03050100 	movweq	r0, #20736	; 0x5100
    4670:	200022c0 	andcs	r2, r0, r0, asr #5
    4674:	000fe70c 	andeq	lr, pc, ip, lsl #14
    4678:	081a0100 	ldmdaeq	sl, {r8}
    467c:	00000267 	andeq	r0, r0, r7, ror #4
    4680:	08030501 	stmdaeq	r3, {r0, r8, sl}
    4684:	0c200023 	stceq	0, cr0, [r0], #-140	; 0xffffff74
    4688:	00000fed 	andeq	r0, r0, sp, ror #31
    468c:	67081b01 	strvs	r1, [r8, -r1, lsl #22]
    4690:	01000002 	tsteq	r0, r2
    4694:	23500305 	cmpcs	r0, #335544320	; 0x14000000
    4698:	110d2000 	mrsne	r2, (UNDEF: 13)
    469c:	50000001 	andpl	r0, r0, r1
    46a0:	0e000003 	cdpeq	0, 0, cr0, cr0, cr3, {0}
    46a4:	0000007c 	andeq	r0, r0, ip, ror r0
    46a8:	0c0003ff 	stceq	3, cr0, [r0], {255}	; 0xff
    46ac:	00000f8b 	andeq	r0, r0, fp, lsl #31
    46b0:	3f0e1c01 	svccc	0x000e1c01
    46b4:	01000003 	tsteq	r0, r3
    46b8:	23980305 	orrscs	r0, r8, #335544320	; 0x14000000
    46bc:	ad0c2000 	stcge	0, cr2, [ip, #-0]
    46c0:	0100000f 	tsteq	r0, pc
    46c4:	033f0e1d 	teqeq	pc, #464	; 0x1d0
    46c8:	05010000 	streq	r0, [r1, #-0]
    46cc:	00339803 	eorseq	r9, r3, r3, lsl #16
    46d0:	0ffd0c20 	svceq	0x00fd0c20
    46d4:	1e010000 	cdpne	0, 0, cr0, cr1, cr0, {0}
    46d8:	00033f0e 	andeq	r3, r3, lr, lsl #30
    46dc:	03050100 	movweq	r0, #20736	; 0x5100
    46e0:	20004398 	mulcs	r0, r8, r3
    46e4:	000f810c 	andeq	r8, pc, ip, lsl #2
    46e8:	0e1f0100 	mufeqe	f0, f7, f0
    46ec:	0000033f 	andeq	r0, r0, pc, lsr r3
    46f0:	98030501 	stmdals	r3, {r0, r8, sl}
    46f4:	0c200053 	stceq	0, cr0, [r0], #-332	; 0xfffffeb4
    46f8:	00000f1e 	andeq	r0, r0, lr, lsl pc
    46fc:	cb0e2101 	blgt	38cb08 <_etext+0x389bdb>
    4700:	01000002 	tsteq	r0, r2
    4704:	63980305 	orrsvs	r0, r8, #335544320	; 0x14000000
    4708:	010f2000 	mrseq	r2, CPSR
    470c:	00000fb7 			; <UNDEFINED> instruction: 0x00000fb7
    4710:	75054b01 	strvc	r4, [r5, #-2817]	; 0xfffff4ff
    4714:	28000000 	stmdacs	r0, {}	; <UNPREDICTABLE>
    4718:	b800002c 	stmdalt	r0, {r2, r3, r5}
    471c:	9c00002c 	stcls	0, cr0, [r0], {44}	; 0x2c
    4720:	10000025 	andne	r0, r0, r5, lsr #32
    4724:	000f9501 	andeq	r9, pc, r1, lsl #10
    4728:	06410100 	strbeq	r0, [r1], -r0, lsl #2
    472c:	002bfc01 	eoreq	pc, fp, r1, lsl #24
    4730:	002c2800 	eoreq	r2, ip, r0, lsl #16
    4734:	0025d400 	eoreq	sp, r5, r0, lsl #8
    4738:	00040200 	andeq	r0, r4, r0, lsl #4
    473c:	03691100 	cmneq	r9, #0, 2
    4740:	41010000 	mrsmi	r0, (UNDEF: 1)
    4744:	00022d18 	andeq	r2, r2, r8, lsl sp
    4748:	74910200 	ldrvc	r0, [r1], #512	; 0x200
    474c:	0006fc12 	andeq	pc, r6, r2, lsl ip	; <UNPREDICTABLE>
    4750:	00041200 	andeq	r1, r4, r0, lsl #4
    4754:	03050100 	movweq	r0, #20736	; 0x5100
    4758:	00002f14 	andeq	r2, r0, r4, lsl pc
    475c:	041e0d00 	ldreq	r0, [lr], #-3328	; 0xfffff300
    4760:	04120000 	ldreq	r0, [r2], #-0
    4764:	7c130000 	ldcvc	0, cr0, [r3], {-0}
    4768:	0b000000 	bleq	4770 <_etext+0x1843>
    476c:	04021400 	streq	r1, [r2], #-1024	; 0xfffffc00
    4770:	01020000 	mrseq	r0, (UNDEF: 2)
    4774:	00001608 	andeq	r1, r0, r8, lsl #12
    4778:	04171400 	ldreq	r1, [r7], #-1024	; 0xfffffc00
    477c:	01100000 	tsteq	r0, r0
    4780:	00000fbc 			; <UNDEFINED> instruction: 0x00000fbc
    4784:	01063801 	tsteq	r6, r1, lsl #16
    4788:	00002bdc 	ldrdeq	r2, [r0], -ip
    478c:	00002bfc 	strdeq	r2, [r0], -ip
    4790:	0000260c 	andeq	r2, r0, ip, lsl #12
    4794:	0000045d 	andeq	r0, r0, sp, asr r4
    4798:	00036911 	andeq	r6, r3, r1, lsl r9
    479c:	18380100 	ldmdane	r8!, {r8}
    47a0:	0000022d 	andeq	r0, r0, sp, lsr #4
    47a4:	12749102 	rsbsne	r9, r4, #-2147483648	; 0x80000000
    47a8:	000006fc 	strdeq	r0, [r0], -ip
    47ac:	00000412 	andeq	r0, r0, r2, lsl r4
    47b0:	08030501 	stmdaeq	r3, {r0, r8, sl}
    47b4:	0000002f 	andeq	r0, r0, pc, lsr #32
    47b8:	0fd50110 	svceq	0x00d50110
    47bc:	2f010000 	svccs	0x00010000
    47c0:	2ba40106 	blcs	fe904be0 <_heap_top+0xde8c4be0>
    47c4:	2bdc0000 	blcs	ff7047cc <_heap_top+0xdf6c47cc>
    47c8:	26440000 	strbcs	r0, [r4], -r0
    47cc:	04a60000 	strteq	r0, [r6], #0
    47d0:	69110000 	ldmdbvs	r1, {}	; <UNPREDICTABLE>
    47d4:	01000003 	tsteq	r0, r3
    47d8:	022d182f 	eoreq	r1, sp, #3080192	; 0x2f0000
    47dc:	91020000 	mrsls	r0, (UNDEF: 2)
    47e0:	0fc8156c 	svceq	0x00c8156c
    47e4:	31010000 	mrscc	r0, (UNDEF: 1)
    47e8:	00008f0e 	andeq	r8, r0, lr, lsl #30
    47ec:	74910200 	ldrvc	r0, [r1], #512	; 0x200
    47f0:	0006fc12 	andeq	pc, r6, r2, lsl ip	; <UNPREDICTABLE>
    47f4:	00041200 	andeq	r1, r4, r0, lsl #4
    47f8:	03050100 	movweq	r0, #20736	; 0x5100
    47fc:	00002efc 	strdeq	r2, [r0], -ip
    4800:	12011000 	andne	r1, r1, #0
    4804:	01000010 	tsteq	r0, r0, lsl r0
    4808:	68010623 	stmdavs	r1, {r0, r1, r5, r9, sl}
    480c:	a400002b 	strge	r0, [r0], #-43	; 0xffffffd5
    4810:	7c00002b 	stcvc	0, cr0, [r0], {43}	; 0x2b
    4814:	e0000026 	and	r0, r0, r6, lsr #32
    4818:	11000004 	tstne	r0, r4
    481c:	00000369 	andeq	r0, r0, r9, ror #6
    4820:	2d182301 	ldccs	3, cr2, [r8, #-4]
    4824:	02000002 	andeq	r0, r0, #2
    4828:	fc127491 	ldc2	4, cr7, [r2], {145}	; 0x91
    482c:	12000006 	andne	r0, r0, #6
    4830:	01000004 	tsteq	r0, r4
    4834:	2ef00305 	cdpcs	3, 15, cr0, cr0, cr5, {0}
    4838:	16000000 	strne	r0, [r0], -r0
    483c:	00000ff3 	strdeq	r0, [r0], -r3
    4840:	01140f01 	tsteq	r4, r1, lsl #30
    4844:	00002b30 	andeq	r2, r0, r0, lsr fp
    4848:	00002b68 	andeq	r2, r0, r8, ror #22
    484c:	000026b4 			; <UNDEFINED> instruction: 0x000026b4
    4850:	00000509 	andeq	r0, r0, r9, lsl #10
    4854:	000b4515 	andeq	r4, fp, r5, lsl r5
    4858:	0e110100 	mufeqs	f0, f1, f0
    485c:	00000509 	andeq	r0, r0, r9, lsl #10
    4860:	00749102 	rsbseq	r9, r4, r2, lsl #2
    4864:	00830407 	addeq	r0, r3, r7, lsl #8
    4868:	b4000000 	strlt	r0, [r0], #-0
    486c:	02000000 	andeq	r0, r0, #0
    4870:	000fc600 	andeq	ip, pc, r0, lsl #12
    4874:	ad010400 	cfstrsge	mvf0, [r1, #-0]
    4878:	01000000 	mrseq	r0, (UNDEF: 0)
    487c:	0000101e 	andeq	r1, r0, lr, lsl r0
    4880:	00000040 	andeq	r0, r0, r0, asr #32
    4884:	00002cb8 			; <UNDEFINED> instruction: 0x00002cb8
    4888:	00002cd0 	ldrdeq	r2, [r0], -r0
    488c:	000023e1 	andeq	r2, r0, r1, ror #7
    4890:	0f060102 	svceq	0x00060102
    4894:	02000000 	andeq	r0, r0, #0
    4898:	000d0801 	andeq	r0, sp, r1, lsl #16
    489c:	02020000 	andeq	r0, r2, #0
    48a0:	00013305 	andeq	r3, r1, r5, lsl #6
    48a4:	07020200 	streq	r0, [r2, -r0, lsl #4]
    48a8:	0000001b 	andeq	r0, r0, fp, lsl r0
    48ac:	a4050402 	strge	r0, [r5], #-1026	; 0xfffffbfe
    48b0:	02000000 	andeq	r0, r0, #0
    48b4:	008d0704 	addeq	r0, sp, r4, lsl #14
    48b8:	08020000 	stmdaeq	r2, {}	; <UNPREDICTABLE>
    48bc:	00009f05 	andeq	r9, r0, r5, lsl #30
    48c0:	07080200 	streq	r0, [r8, -r0, lsl #4]
    48c4:	00000088 	andeq	r0, r0, r8, lsl #1
    48c8:	69050403 	stmdbvs	r5, {r0, r1, sl}
    48cc:	0200746e 	andeq	r7, r0, #1845493760	; 0x6e000000
    48d0:	00920704 	addseq	r0, r2, r4, lsl #14
    48d4:	01040000 	mrseq	r0, (UNDEF: 4)
    48d8:	00001036 	andeq	r1, r0, r6, lsr r0
    48dc:	01060301 	tsteq	r6, r1, lsl #6
    48e0:	00002cb8 			; <UNDEFINED> instruction: 0x00002cb8
    48e4:	00002cd0 	ldrdeq	r2, [r0], -r0
    48e8:	00002710 	andeq	r2, r0, r0, lsl r7
    48ec:	00000096 	muleq	r0, r6, r0
    48f0:	0006fc05 	andeq	pc, r6, r5, lsl #24
    48f4:	0000a600 	andeq	sl, r0, r0, lsl #12
    48f8:	03050100 	movweq	r0, #20736	; 0x5100
    48fc:	00002f24 	andeq	r2, r0, r4, lsr #30
    4900:	00b20600 	adcseq	r0, r2, r0, lsl #12
    4904:	00a60000 	adceq	r0, r6, r0
    4908:	64070000 	strvs	r0, [r7], #-0
    490c:	08000000 	stmdaeq	r0, {}	; <UNPREDICTABLE>
    4910:	00960800 	addseq	r0, r6, r0, lsl #16
    4914:	01020000 	mrseq	r0, (UNDEF: 2)
    4918:	00001608 	andeq	r1, r0, r8, lsl #12
    491c:	00ab0800 	adceq	r0, fp, r0, lsl #16
    4920:	Address 0x0000000000004920 is out of bounds.


Disassembly of section .debug_abbrev:

00000000 <.debug_abbrev>:
       0:	25011101 	strcs	r1, [r1, #-257]	; 0xfffffeff
       4:	030b130e 	movweq	r1, #45838	; 0xb30e
       8:	110e1b0e 	tstne	lr, lr, lsl #22
       c:	10011201 	andne	r1, r1, r1, lsl #4
      10:	02000006 	andeq	r0, r0, #6
      14:	0b0b0024 	bleq	2c00ac <_etext+0x2bd17f>
      18:	0e030b3e 	vmoveq.16	d3[0], r0
      1c:	24030000 	strcs	r0, [r3], #-0
      20:	3e0b0b00 	vmlacc.f64	d0, d11, d0
      24:	0008030b 	andeq	r0, r8, fp, lsl #6
      28:	01010400 	tsteq	r1, r0, lsl #8
      2c:	13011349 	movwne	r1, #4937	; 0x1349
      30:	21050000 	mrscs	r0, (UNDEF: 5)
      34:	2f134900 	svccs	0x00134900
      38:	0600000b 	streq	r0, [r0], -fp
      3c:	0b0b000f 	bleq	2c0080 <_etext+0x2bd153>
      40:	00001349 	andeq	r1, r0, r9, asr #6
      44:	27001507 	strcs	r1, [r0, -r7, lsl #10]
      48:	0800000c 	stmdaeq	r0, {r2, r3}
      4c:	0e030034 	mcreq	0, 0, r0, cr3, cr4, {1}
      50:	0b3b0b3a 	bleq	ec2d40 <_etext+0xebfe13>
      54:	13490b39 	movtne	r0, #39737	; 0x9b39
      58:	0a020c3f 	beq	8315c <_etext+0x8022f>
      5c:	2e090000 	cdpcs	0, 0, cr0, cr9, cr0, {0}
      60:	3a0e0300 	bcc	380c68 <_etext+0x37dd3b>
      64:	390b3b0b 	stmdbcc	fp, {r0, r1, r3, r8, r9, fp, ip, sp}
      68:	110c270b 	tstne	ip, fp, lsl #14
      6c:	40011201 	andmi	r1, r1, r1, lsl #4
      70:	00000006 	andeq	r0, r0, r6
      74:	25011101 	strcs	r1, [r1, #-257]	; 0xfffffeff
      78:	030b130e 	movweq	r1, #45838	; 0xb30e
      7c:	110e1b0e 	tstne	lr, lr, lsl #22
      80:	10011201 	andne	r1, r1, r1, lsl #4
      84:	02000006 	andeq	r0, r0, #6
      88:	0b0b0024 	bleq	2c0120 <_etext+0x2bd1f3>
      8c:	0e030b3e 	vmoveq.16	d3[0], r0
      90:	16030000 	strne	r0, [r3], -r0
      94:	3a0e0300 	bcc	380c9c <_etext+0x37dd6f>
      98:	390b3b0b 	stmdbcc	fp, {r0, r1, r3, r8, r9, fp, ip, sp}
      9c:	0013490b 	andseq	r4, r3, fp, lsl #18
      a0:	00240400 	eoreq	r0, r4, r0, lsl #8
      a4:	0b3e0b0b 	bleq	f82cd8 <_etext+0xf7fdab>
      a8:	00000803 	andeq	r0, r0, r3, lsl #16
      ac:	49003505 	stmdbmi	r0, {r0, r2, r8, sl, ip, sp}
      b0:	06000013 			; <UNDEFINED> instruction: 0x06000013
      b4:	0e030113 	mcreq	1, 0, r0, cr3, cr3, {0}
      b8:	0b3a0b0b 	bleq	e82cec <_etext+0xe7fdbf>
      bc:	0b390b3b 	bleq	e42db0 <_etext+0xe3fe83>
      c0:	00001301 	andeq	r1, r0, r1, lsl #6
      c4:	03000d07 	movweq	r0, #3335	; 0xd07
      c8:	3b0b3a0e 	blcc	2ce908 <_etext+0x2cb9db>
      cc:	490b390b 	stmdbmi	fp, {r0, r1, r3, r8, fp, ip, sp}
      d0:	000a3813 	andeq	r3, sl, r3, lsl r8
      d4:	000d0800 	andeq	r0, sp, r0, lsl #16
      d8:	0b3a0803 	bleq	e820ec <_etext+0xe7f1bf>
      dc:	0b390b3b 	bleq	e42dd0 <_etext+0xe3fea3>
      e0:	0a381349 	beq	e04e0c <_etext+0xe01edf>
      e4:	2e090000 	cdpcs	0, 0, cr0, cr9, cr0, {0}
      e8:	030c3f00 	movweq	r3, #52992	; 0xcf00
      ec:	3b0b3a0e 	blcc	2ce92c <_etext+0x2cb9ff>
      f0:	270b390b 	strcs	r3, [fp, -fp, lsl #18]
      f4:	1201110c 	andne	r1, r1, #12, 2
      f8:	00064001 	andeq	r4, r6, r1
      fc:	012e0a00 			; <UNDEFINED> instruction: 0x012e0a00
     100:	0e030c3f 	mcreq	12, 0, r0, cr3, cr15, {1}
     104:	0b3b0b3a 	bleq	ec2df4 <_etext+0xebfec7>
     108:	0c270b39 			; <UNDEFINED> instruction: 0x0c270b39
     10c:	01120111 	tsteq	r2, r1, lsl r1
     110:	13010640 	movwne	r0, #5696	; 0x1640
     114:	050b0000 	streq	r0, [fp, #-0]
     118:	3a080300 	bcc	200d20 <_etext+0x1fddf3>
     11c:	390b3b0b 	stmdbcc	fp, {r0, r1, r3, r8, r9, fp, ip, sp}
     120:	0213490b 	andseq	r4, r3, #180224	; 0x2c000
     124:	0c00000a 	stceq	0, cr0, [r0], {10}
     128:	0e030034 	mcreq	0, 0, r0, cr3, cr4, {1}
     12c:	0b3b0b3a 	bleq	ec2e1c <_etext+0xebfeef>
     130:	13490b39 	movtne	r0, #39737	; 0x9b39
     134:	00000a02 	andeq	r0, r0, r2, lsl #20
     138:	0b000f0d 	bleq	3d74 <_etext+0xe47>
     13c:	0013490b 	andseq	r4, r3, fp, lsl #18
     140:	11010000 	mrsne	r0, (UNDEF: 1)
     144:	130e2501 	movwne	r2, #58625	; 0xe501
     148:	1b0e030b 	blne	380d7c <_etext+0x37de4f>
     14c:	1201110e 	andne	r1, r1, #-2147483645	; 0x80000003
     150:	00061001 	andeq	r1, r6, r1
     154:	00160200 	andseq	r0, r6, r0, lsl #4
     158:	0b3a0e03 	bleq	e8396c <_etext+0xe80a3f>
     15c:	0b390b3b 	bleq	e42e50 <_etext+0xe3ff23>
     160:	00001349 	andeq	r1, r0, r9, asr #6
     164:	03011303 	movweq	r1, #4867	; 0x1303
     168:	3a0b0b0e 	bcc	2c2da8 <_etext+0x2bfe7b>
     16c:	010b3b0b 	tsteq	fp, fp, lsl #22
     170:	04000013 	streq	r0, [r0], #-19	; 0xffffffed
     174:	0e03000d 	cdpeq	0, 0, cr0, cr3, cr13, {0}
     178:	0a381349 	beq	e04ea4 <_etext+0xe01f77>
     17c:	00000c34 	andeq	r0, r0, r4, lsr ip
     180:	0b000f05 	bleq	3d9c <_etext+0xe6f>
     184:	0600000b 	streq	r0, [r0], -fp
     188:	0b0b0024 	bleq	2c0220 <_etext+0x2bd2f3>
     18c:	0e030b3e 	vmoveq.16	d3[0], r0
     190:	24070000 	strcs	r0, [r7], #-0
     194:	3e0b0b00 	vmlacc.f64	d0, d11, d0
     198:	0008030b 	andeq	r0, r8, fp, lsl #6
     19c:	00350800 	eorseq	r0, r5, r0, lsl #16
     1a0:	00001349 	andeq	r1, r0, r9, asr #6
     1a4:	49002609 	stmdbmi	r0, {r0, r3, r9, sl, sp}
     1a8:	0a000013 	beq	1fc <g_pfnVectors+0x1fc>
     1ac:	0e030034 	mcreq	0, 0, r0, cr3, cr4, {1}
     1b0:	0b3b0b3a 	bleq	ec2ea0 <_etext+0xebff73>
     1b4:	13490b39 	movtne	r0, #39737	; 0x9b39
     1b8:	0a020c3f 	beq	832bc <_etext+0x8038f>
     1bc:	0f0b0000 	svceq	0x000b0000
     1c0:	490b0b00 	stmdbmi	fp, {r8, r9, fp}
     1c4:	0c000013 	stceq	0, cr0, [r0], {19}
     1c8:	13490101 	movtne	r0, #37121	; 0x9101
     1cc:	00001301 	andeq	r1, r0, r1, lsl #6
     1d0:	4900210d 	stmdbmi	r0, {r0, r2, r3, r8, sp}
     1d4:	000b2f13 	andeq	r2, fp, r3, lsl pc
     1d8:	012e0e00 			; <UNDEFINED> instruction: 0x012e0e00
     1dc:	0e030c3f 	mcreq	12, 0, r0, cr3, cr15, {1}
     1e0:	053b0b3a 	ldreq	r0, [fp, #-2874]!	; 0xfffff4c6
     1e4:	0c270b39 			; <UNDEFINED> instruction: 0x0c270b39
     1e8:	01111349 	tsteq	r1, r9, asr #6
     1ec:	06400112 			; <UNDEFINED> instruction: 0x06400112
     1f0:	00001301 	andeq	r1, r0, r1, lsl #6
     1f4:	0300050f 	movweq	r0, #1295	; 0x50f
     1f8:	3b0b3a08 	blcc	2cea20 <_etext+0x2cbaf3>
     1fc:	490b3905 	stmdbmi	fp, {r0, r2, r8, fp, ip, sp}
     200:	000a0213 	andeq	r0, sl, r3, lsl r2
     204:	00341000 	eorseq	r1, r4, r0
     208:	0b3a0e03 	bleq	e83a1c <_etext+0xe80aef>
     20c:	0b39053b 	bleq	e41700 <_etext+0xe3e7d3>
     210:	0a021349 	beq	84f3c <_etext+0x8200f>
     214:	34110000 	ldrcc	r0, [r1], #-0
     218:	3a080300 	bcc	200e20 <_etext+0x1fdef3>
     21c:	39053b0b 	stmdbcc	r5, {r0, r1, r3, r8, r9, fp, ip, sp}
     220:	0213490b 	andseq	r4, r3, #180224	; 0x2c000
     224:	1200000a 	andne	r0, r0, #10
     228:	0e030005 	cdpeq	0, 0, cr0, cr3, cr5, {0}
     22c:	053b0b3a 	ldreq	r0, [fp, #-2874]!	; 0xfffff4c6
     230:	13490b39 	movtne	r0, #39737	; 0x9b39
     234:	00000a02 	andeq	r0, r0, r2, lsl #20
     238:	00002613 	andeq	r2, r0, r3, lsl r6
     23c:	012e1400 			; <UNDEFINED> instruction: 0x012e1400
     240:	0e030c3f 	mcreq	12, 0, r0, cr3, cr15, {1}
     244:	0b3b0b3a 	bleq	ec2f34 <_etext+0xec0007>
     248:	0c270b39 			; <UNDEFINED> instruction: 0x0c270b39
     24c:	01111349 	tsteq	r1, r9, asr #6
     250:	06400112 			; <UNDEFINED> instruction: 0x06400112
     254:	00001301 	andeq	r1, r0, r1, lsl #6
     258:	03000515 	movweq	r0, #1301	; 0x515
     25c:	3b0b3a08 	blcc	2cea84 <_etext+0x2cbb57>
     260:	490b390b 	stmdbmi	fp, {r0, r1, r3, r8, fp, ip, sp}
     264:	000a0213 	andeq	r0, sl, r3, lsl r2
     268:	00341600 	eorseq	r1, r4, r0, lsl #12
     26c:	0b3a0803 	bleq	e82280 <_etext+0xe7f353>
     270:	0b390b3b 	bleq	e42f64 <_etext+0xe40037>
     274:	0a021349 	beq	84fa0 <_etext+0x82073>
     278:	2e170000 	cdpcs	0, 1, cr0, cr7, cr0, {0}
     27c:	030c3f01 	movweq	r3, #52993	; 0xcf01
     280:	3b0b3a0e 	blcc	2ceac0 <_etext+0x2cbb93>
     284:	270b390b 	strcs	r3, [fp, -fp, lsl #18]
     288:	1201110c 	andne	r1, r1, #12, 2
     28c:	01064001 	tsteq	r6, r1
     290:	18000013 	stmdane	r0, {r0, r1, r4}
     294:	00000018 	andeq	r0, r0, r8, lsl r0
     298:	03003419 	movweq	r3, #1049	; 0x419
     29c:	3b0b3a0e 	blcc	2ceadc <_etext+0x2cbbaf>
     2a0:	490b390b 	stmdbmi	fp, {r0, r1, r3, r8, fp, ip, sp}
     2a4:	000a0213 	andeq	r0, sl, r3, lsl r2
     2a8:	00051a00 	andeq	r1, r5, r0, lsl #20
     2ac:	0b3a0e03 	bleq	e83ac0 <_etext+0xe80b93>
     2b0:	0b390b3b 	bleq	e42fa4 <_etext+0xe40077>
     2b4:	0a021349 	beq	84fe0 <_etext+0x820b3>
     2b8:	2e1b0000 	cdpcs	0, 1, cr0, cr11, cr0, {0}
     2bc:	030c3f01 	movweq	r3, #52993	; 0xcf01
     2c0:	3b0b3a0e 	blcc	2ceb00 <_etext+0x2cbbd3>
     2c4:	270b390b 	strcs	r3, [fp, -fp, lsl #18]
     2c8:	1113490c 	tstne	r3, ip, lsl #18
     2cc:	40011201 	andmi	r1, r1, r1, lsl #4
     2d0:	00000006 	andeq	r0, r0, r6
     2d4:	10001101 	andne	r1, r0, r1, lsl #2
     2d8:	12011106 	andne	r1, r1, #-2147483647	; 0x80000001
     2dc:	1b0e0301 	blne	380ee8 <_etext+0x37dfbb>
     2e0:	130e250e 	movwne	r2, #58638	; 0xe50e
     2e4:	00000005 	andeq	r0, r0, r5
     2e8:	25011101 	strcs	r1, [r1, #-257]	; 0xfffffeff
     2ec:	030b130e 	movweq	r1, #45838	; 0xb30e
     2f0:	110e1b0e 	tstne	lr, lr, lsl #22
     2f4:	10011201 	andne	r1, r1, r1, lsl #4
     2f8:	02000006 	andeq	r0, r0, #6
     2fc:	0b0b0024 	bleq	2c0394 <_etext+0x2bd467>
     300:	0e030b3e 	vmoveq.16	d3[0], r0
     304:	16030000 	strne	r0, [r3], -r0
     308:	3a0e0300 	bcc	380f10 <_etext+0x37dfe3>
     30c:	390b3b0b 	stmdbcc	fp, {r0, r1, r3, r8, r9, fp, ip, sp}
     310:	0013490b 	andseq	r4, r3, fp, lsl #18
     314:	00240400 	eoreq	r0, r4, r0, lsl #8
     318:	0b3e0b0b 	bleq	f82f4c <_etext+0xf8001f>
     31c:	00000803 	andeq	r0, r0, r3, lsl #16
     320:	03011305 	movweq	r1, #4869	; 0x1305
     324:	3a0b0b0e 	bcc	2c2f64 <_etext+0x2c0037>
     328:	390b3b0b 	stmdbcc	fp, {r0, r1, r3, r8, r9, fp, ip, sp}
     32c:	0013010b 	andseq	r0, r3, fp, lsl #2
     330:	000d0600 	andeq	r0, sp, r0, lsl #12
     334:	0b3a0e03 	bleq	e83b48 <_etext+0xe80c1b>
     338:	0b390b3b 	bleq	e4302c <_etext+0xe400ff>
     33c:	0a381349 	beq	e05068 <_etext+0xe0213b>
     340:	0f070000 	svceq	0x00070000
     344:	490b0b00 	stmdbmi	fp, {r8, r9, fp}
     348:	08000013 	stmdaeq	r0, {r0, r1, r4}
     34c:	0c270115 	stfeqs	f0, [r7], #-84	; 0xffffffac
     350:	00001301 	andeq	r1, r0, r1, lsl #6
     354:	49000509 	stmdbmi	r0, {r0, r3, r8, sl}
     358:	0a000013 	beq	3ac <is_hex_asc+0x1a>
     35c:	0b0b000f 	bleq	2c03a0 <_etext+0x2bd473>
     360:	340b0000 	strcc	r0, [fp], #-0
     364:	3a0e0300 	bcc	380f6c <_etext+0x37e03f>
     368:	390b3b0b 	stmdbcc	fp, {r0, r1, r3, r8, r9, fp, ip, sp}
     36c:	3f13490b 	svccc	0x0013490b
     370:	000c3c0c 	andeq	r3, ip, ip, lsl #24
     374:	01010c00 	tsteq	r1, r0, lsl #24
     378:	13011349 	movwne	r1, #4937	; 0x1349
     37c:	210d0000 	mrscs	r0, (UNDEF: 13)
     380:	2f134900 	svccs	0x00134900
     384:	0e00000b 	cdpeq	0, 0, cr0, cr0, cr11, {0}
     388:	0e030104 	adfeqs	f0, f3, f4
     38c:	0b3a0b0b 	bleq	e82fc0 <_etext+0xe80093>
     390:	0b390b3b 	bleq	e43084 <_etext+0xe40157>
     394:	00001301 	andeq	r1, r0, r1, lsl #6
     398:	0300280f 	movweq	r2, #2063	; 0x80f
     39c:	000b1c0e 	andeq	r1, fp, lr, lsl #24
     3a0:	00341000 	eorseq	r1, r4, r0
     3a4:	0b3a1347 	bleq	e850c8 <_etext+0xe8219b>
     3a8:	0b390b3b 	bleq	e4309c <_etext+0xe4016f>
     3ac:	00000a02 	andeq	r0, r0, r2, lsl #20
     3b0:	03003411 	movweq	r3, #1041	; 0x411
     3b4:	3b0b3a0e 	blcc	2cebf4 <_etext+0x2cbcc7>
     3b8:	490b390b 	stmdbmi	fp, {r0, r1, r3, r8, fp, ip, sp}
     3bc:	000a0213 	andeq	r0, sl, r3, lsl r2
     3c0:	00211200 	eoreq	r1, r1, r0, lsl #4
     3c4:	052f1349 	streq	r1, [pc, #-841]!	; 83 <g_pfnVectors+0x83>
     3c8:	2e130000 	cdpcs	0, 1, cr0, cr3, cr0, {0}
     3cc:	030c3f01 	movweq	r3, #52993	; 0xcf01
     3d0:	3b0b3a0e 	blcc	2cec10 <_etext+0x2cbce3>
     3d4:	270b3905 	strcs	r3, [fp, -r5, lsl #18]
     3d8:	1201110c 	andne	r1, r1, #12, 2
     3dc:	01064001 	tsteq	r6, r1
     3e0:	14000013 	strne	r0, [r0], #-19	; 0xffffffed
     3e4:	0e030005 	cdpeq	0, 0, cr0, cr3, cr5, {0}
     3e8:	053b0b3a 	ldreq	r0, [fp, #-2874]!	; 0xfffff4c6
     3ec:	13490b39 	movtne	r0, #39737	; 0x9b39
     3f0:	00000a02 	andeq	r0, r0, r2, lsl #20
     3f4:	03003415 	movweq	r3, #1045	; 0x415
     3f8:	3b0b3a0e 	blcc	2cec38 <_etext+0x2cbd0b>
     3fc:	490b3905 	stmdbmi	fp, {r0, r2, r8, fp, ip, sp}
     400:	000a0213 	andeq	r0, sl, r3, lsl r2
     404:	012e1600 			; <UNDEFINED> instruction: 0x012e1600
     408:	0e030c3f 	mcreq	12, 0, r0, cr3, cr15, {1}
     40c:	053b0b3a 	ldreq	r0, [fp, #-2874]!	; 0xfffff4c6
     410:	0c270b39 			; <UNDEFINED> instruction: 0x0c270b39
     414:	01111349 	tsteq	r1, r9, asr #6
     418:	06400112 			; <UNDEFINED> instruction: 0x06400112
     41c:	00001301 	andeq	r1, r0, r1, lsl #6
     420:	03012e17 	movweq	r2, #7703	; 0x1e17
     424:	3b0b3a0e 	blcc	2cec64 <_etext+0x2cbd37>
     428:	270b3905 	strcs	r3, [fp, -r5, lsl #18]
     42c:	1201110c 	andne	r1, r1, #12, 2
     430:	01064001 	tsteq	r6, r1
     434:	18000013 	stmdane	r0, {r0, r1, r4}
     438:	0c3f012e 	ldfeqs	f0, [pc], #-184	; 388 <is_asc+0x28>
     43c:	0b3a0e03 	bleq	e83c50 <_etext+0xe80d23>
     440:	0b390b3b 	bleq	e43134 <_etext+0xe40207>
     444:	01110c27 	tsteq	r1, r7, lsr #24
     448:	06400112 			; <UNDEFINED> instruction: 0x06400112
     44c:	00001301 	andeq	r1, r0, r1, lsl #6
     450:	03000519 	movweq	r0, #1305	; 0x519
     454:	3b0b3a0e 	blcc	2cec94 <_etext+0x2cbd67>
     458:	490b390b 	stmdbmi	fp, {r0, r1, r3, r8, fp, ip, sp}
     45c:	000a0213 	andeq	r0, sl, r3, lsl r2
     460:	012e1a00 			; <UNDEFINED> instruction: 0x012e1a00
     464:	0e030c3f 	mcreq	12, 0, r0, cr3, cr15, {1}
     468:	0b3b0b3a 	bleq	ec3158 <_etext+0xec022b>
     46c:	0c270b39 			; <UNDEFINED> instruction: 0x0c270b39
     470:	01111349 	tsteq	r1, r9, asr #6
     474:	06400112 			; <UNDEFINED> instruction: 0x06400112
     478:	00001301 	andeq	r1, r0, r1, lsl #6
     47c:	0300341b 	movweq	r3, #1051	; 0x41b
     480:	3b0b3a08 	blcc	2ceca8 <_etext+0x2cbd7b>
     484:	490b390b 	stmdbmi	fp, {r0, r1, r3, r8, fp, ip, sp}
     488:	000a0213 	andeq	r0, sl, r3, lsl r2
     48c:	00341c00 	eorseq	r1, r4, r0, lsl #24
     490:	13490e03 	movtne	r0, #40451	; 0x9e03
     494:	0a020c34 	beq	8356c <_etext+0x8063f>
     498:	261d0000 	ldrcs	r0, [sp], -r0
     49c:	00134900 	andseq	r4, r3, r0, lsl #18
     4a0:	002e1e00 	eoreq	r1, lr, r0, lsl #28
     4a4:	0e030c3f 	mcreq	12, 0, r0, cr3, cr15, {1}
     4a8:	0b3b0b3a 	bleq	ec3198 <_etext+0xec026b>
     4ac:	0c270b39 			; <UNDEFINED> instruction: 0x0c270b39
     4b0:	01120111 	tsteq	r2, r1, lsl r1
     4b4:	00000640 	andeq	r0, r0, r0, asr #12
     4b8:	03000a1f 	movweq	r0, #2591	; 0xa1f
     4bc:	3b0b3a0e 	blcc	2cecfc <_etext+0x2cbdcf>
     4c0:	110b390b 	tstne	fp, fp, lsl #18
     4c4:	20000001 	andcs	r0, r0, r1
     4c8:	0e03012e 	adfeqsp	f0, f3, #0.5
     4cc:	0b3b0b3a 	bleq	ec31bc <_etext+0xec028f>
     4d0:	0c270b39 			; <UNDEFINED> instruction: 0x0c270b39
     4d4:	01120111 	tsteq	r2, r1, lsl r1
     4d8:	00000640 	andeq	r0, r0, r0, asr #12
     4dc:	01110100 	tsteq	r1, r0, lsl #2
     4e0:	0b130e25 	bleq	4c3d7c <_etext+0x4c0e4f>
     4e4:	0e1b0e03 	cdpeq	14, 1, cr0, cr11, cr3, {0}
     4e8:	01120111 	tsteq	r2, r1, lsl r1
     4ec:	00000610 	andeq	r0, r0, r0, lsl r6
     4f0:	0b002402 	bleq	9500 <_etext+0x65d3>
     4f4:	030b3e0b 	movweq	r3, #48651	; 0xbe0b
     4f8:	0300000e 	movweq	r0, #14
     4fc:	0e030016 	mcreq	0, 0, r0, cr3, cr6, {0}
     500:	0b3b0b3a 	bleq	ec31f0 <_etext+0xec02c3>
     504:	13490b39 	movtne	r0, #39737	; 0x9b39
     508:	24040000 	strcs	r0, [r4], #-0
     50c:	3e0b0b00 	vmlacc.f64	d0, d11, d0
     510:	0008030b 	andeq	r0, r8, fp, lsl #6
     514:	00260500 	eoreq	r0, r6, r0, lsl #10
     518:	00001349 	andeq	r1, r0, r9, asr #6
     51c:	03011306 	movweq	r1, #4870	; 0x1306
     520:	3a0b0b0e 	bcc	2c3160 <_etext+0x2c0233>
     524:	390b3b0b 	stmdbcc	fp, {r0, r1, r3, r8, r9, fp, ip, sp}
     528:	0013010b 	andseq	r0, r3, fp, lsl #2
     52c:	000d0700 	andeq	r0, sp, r0, lsl #14
     530:	0b3a0e03 	bleq	e83d44 <_etext+0xe80e17>
     534:	0b390b3b 	bleq	e43228 <_etext+0xe402fb>
     538:	0a381349 	beq	e05264 <_etext+0xe02337>
     53c:	0f080000 	svceq	0x00080000
     540:	490b0b00 	stmdbmi	fp, {r8, r9, fp}
     544:	09000013 	stmdbeq	r0, {r0, r1, r4}
     548:	0c3f012e 	ldfeqs	f0, [pc], #-184	; 498 <printf_hex+0x5c>
     54c:	0b3a0e03 	bleq	e83d60 <_etext+0xe80e33>
     550:	0b390b3b 	bleq	e43244 <_etext+0xe40317>
     554:	01110c27 	tsteq	r1, r7, lsr #24
     558:	06400112 			; <UNDEFINED> instruction: 0x06400112
     55c:	00001301 	andeq	r1, r0, r1, lsl #6
     560:	0300050a 	movweq	r0, #1290	; 0x50a
     564:	3b0b3a0e 	blcc	2ceda4 <_etext+0x2cbe77>
     568:	490b390b 	stmdbmi	fp, {r0, r1, r3, r8, fp, ip, sp}
     56c:	000a0213 	andeq	r0, sl, r3, lsl r2
     570:	00340b00 	eorseq	r0, r4, r0, lsl #22
     574:	0b3a0e03 	bleq	e83d88 <_etext+0xe80e5b>
     578:	0b390b3b 	bleq	e4326c <_etext+0xe4033f>
     57c:	0a021349 	beq	852a8 <_etext+0x8237b>
     580:	0a0c0000 	beq	300588 <_etext+0x2fd65b>
     584:	3a0e0300 	bcc	38118c <_etext+0x37e25f>
     588:	390b3b0b 	stmdbcc	fp, {r0, r1, r3, r8, r9, fp, ip, sp}
     58c:	0001110b 	andeq	r1, r1, fp, lsl #2
     590:	012e0d00 			; <UNDEFINED> instruction: 0x012e0d00
     594:	0e030c3f 	mcreq	12, 0, r0, cr3, cr15, {1}
     598:	0b3b0b3a 	bleq	ec3288 <_etext+0xec035b>
     59c:	0c270b39 			; <UNDEFINED> instruction: 0x0c270b39
     5a0:	01111349 	tsteq	r1, r9, asr #6
     5a4:	06400112 			; <UNDEFINED> instruction: 0x06400112
     5a8:	00001301 	andeq	r1, r0, r1, lsl #6
     5ac:	0300340e 	movweq	r3, #1038	; 0x40e
     5b0:	3b0b3a08 	blcc	2cedd8 <_etext+0x2cbeab>
     5b4:	490b390b 	stmdbmi	fp, {r0, r1, r3, r8, fp, ip, sp}
     5b8:	000a0213 	andeq	r0, sl, r3, lsl r2
     5bc:	01010f00 	tsteq	r1, r0, lsl #30
     5c0:	13011349 	movwne	r1, #4937	; 0x1349
     5c4:	21100000 	tstcs	r0, r0
     5c8:	2f134900 	svccs	0x00134900
     5cc:	1100000b 	tstne	r0, fp
     5d0:	08030005 	stmdaeq	r3, {r0, r2}
     5d4:	0b3b0b3a 	bleq	ec32c4 <_etext+0xec0397>
     5d8:	13490b39 	movtne	r0, #39737	; 0x9b39
     5dc:	00000a02 	andeq	r0, r0, r2, lsl #20
     5e0:	3f002e12 	svccc	0x00002e12
     5e4:	3a0e030c 	bcc	38121c <_etext+0x37e2ef>
     5e8:	390b3b0b 	stmdbcc	fp, {r0, r1, r3, r8, r9, fp, ip, sp}
     5ec:	490c270b 	stmdbmi	ip, {r0, r1, r3, r8, r9, sl, sp}
     5f0:	12011113 	andne	r1, r1, #-1073741820	; 0xc0000004
     5f4:	00064001 	andeq	r4, r6, r1
     5f8:	012e1300 			; <UNDEFINED> instruction: 0x012e1300
     5fc:	0e030c3f 	mcreq	12, 0, r0, cr3, cr15, {1}
     600:	0b3b0b3a 	bleq	ec32f0 <_etext+0xec03c3>
     604:	0c270b39 			; <UNDEFINED> instruction: 0x0c270b39
     608:	01120111 	tsteq	r2, r1, lsl r1
     60c:	00000640 	andeq	r0, r0, r0, asr #12
     610:	01110100 	tsteq	r1, r0, lsl #2
     614:	0b130e25 	bleq	4c3eb0 <_etext+0x4c0f83>
     618:	0e1b0e03 	cdpeq	14, 1, cr0, cr11, cr3, {0}
     61c:	01120111 	tsteq	r2, r1, lsl r1
     620:	00000610 	andeq	r0, r0, r0, lsl r6
     624:	0b002402 	bleq	9634 <_etext+0x6707>
     628:	030b3e0b 	movweq	r3, #48651	; 0xbe0b
     62c:	0300000e 	movweq	r0, #14
     630:	0e030016 	mcreq	0, 0, r0, cr3, cr6, {0}
     634:	0b3b0b3a 	bleq	ec3324 <_etext+0xec03f7>
     638:	13490b39 	movtne	r0, #39737	; 0x9b39
     63c:	24040000 	strcs	r0, [r4], #-0
     640:	3e0b0b00 	vmlacc.f64	d0, d11, d0
     644:	0008030b 	andeq	r0, r8, fp, lsl #6
     648:	01130500 	tsteq	r3, r0, lsl #10
     64c:	0b0b0e03 	bleq	2c3e60 <_etext+0x2c0f33>
     650:	0b3b0b3a 	bleq	ec3340 <_etext+0xec0413>
     654:	13010b39 	movwne	r0, #6969	; 0x1b39
     658:	0d060000 	stceq	0, cr0, [r6, #-0]
     65c:	3a0e0300 	bcc	381264 <_etext+0x37e337>
     660:	390b3b0b 	stmdbcc	fp, {r0, r1, r3, r8, r9, fp, ip, sp}
     664:	3813490b 	ldmdacc	r3, {r0, r1, r3, r8, fp, lr}
     668:	0700000a 	streq	r0, [r0, -sl]
     66c:	0b0b000f 	bleq	2c06b0 <_etext+0x2bd783>
     670:	00001349 	andeq	r1, r0, r9, asr #6
     674:	27011508 	strcs	r1, [r1, -r8, lsl #10]
     678:	0013010c 	andseq	r0, r3, ip, lsl #2
     67c:	00050900 	andeq	r0, r5, r0, lsl #18
     680:	00001349 	andeq	r1, r0, r9, asr #6
     684:	0b000f0a 	bleq	42b4 <_etext+0x1387>
     688:	0b00000b 	bleq	6bc <printf_dec+0x198>
     68c:	0e030104 	adfeqs	f0, f3, f4
     690:	0b3a0b0b 	bleq	e832c4 <_etext+0xe80397>
     694:	0b390b3b 	bleq	e43388 <_etext+0xe4045b>
     698:	00001301 	andeq	r1, r0, r1, lsl #6
     69c:	0300280c 	movweq	r2, #2060	; 0x80c
     6a0:	000b1c0e 	andeq	r1, fp, lr, lsl #24
     6a4:	012e0d00 			; <UNDEFINED> instruction: 0x012e0d00
     6a8:	0e030c3f 	mcreq	12, 0, r0, cr3, cr15, {1}
     6ac:	0b3b0b3a 	bleq	ec339c <_etext+0xec046f>
     6b0:	0c270b39 			; <UNDEFINED> instruction: 0x0c270b39
     6b4:	01111349 	tsteq	r1, r9, asr #6
     6b8:	06400112 			; <UNDEFINED> instruction: 0x06400112
     6bc:	00001301 	andeq	r1, r0, r1, lsl #6
     6c0:	0300050e 	movweq	r0, #1294	; 0x50e
     6c4:	3b0b3a0e 	blcc	2cef04 <_etext+0x2cbfd7>
     6c8:	490b390b 	stmdbmi	fp, {r0, r1, r3, r8, fp, ip, sp}
     6cc:	000a0213 	andeq	r0, sl, r3, lsl r2
     6d0:	00340f00 	eorseq	r0, r4, r0, lsl #30
     6d4:	0b3a0e03 	bleq	e83ee8 <_etext+0xe80fbb>
     6d8:	0b390b3b 	bleq	e433cc <_etext+0xe4049f>
     6dc:	0a021349 	beq	85408 <_etext+0x824db>
     6e0:	05100000 	ldreq	r0, [r0, #-0]
     6e4:	3a080300 	bcc	2012ec <_etext+0x1fe3bf>
     6e8:	390b3b0b 	stmdbcc	fp, {r0, r1, r3, r8, r9, fp, ip, sp}
     6ec:	0213490b 	andseq	r4, r3, #180224	; 0x2c000
     6f0:	1100000a 	tstne	r0, sl
     6f4:	0e030034 	mcreq	0, 0, r0, cr3, cr4, {1}
     6f8:	0c341349 	ldceq	3, cr1, [r4], #-292	; 0xfffffedc
     6fc:	00000a02 	andeq	r0, r0, r2, lsl #20
     700:	11010b12 	tstne	r1, r2, lsl fp
     704:	00011201 	andeq	r1, r1, r1, lsl #4
     708:	01011300 	mrseq	r1, SP_irq
     70c:	13011349 	movwne	r1, #4937	; 0x1349
     710:	21140000 	tstcs	r4, r0
     714:	2f134900 	svccs	0x00134900
     718:	1500000b 	strne	r0, [r0, #-11]
     71c:	13490026 	movtne	r0, #36902	; 0x9026
     720:	2e160000 	cdpcs	0, 1, cr0, cr6, cr0, {0}
     724:	030c3f01 	movweq	r3, #52993	; 0xcf01
     728:	3b0b3a0e 	blcc	2cef68 <_etext+0x2cc03b>
     72c:	270b390b 	strcs	r3, [fp, -fp, lsl #18]
     730:	1201110c 	andne	r1, r1, #12, 2
     734:	01064001 	tsteq	r6, r1
     738:	17000013 	smladne	r0, r3, r0, r0
     73c:	0c3f012e 	ldfeqs	f0, [pc], #-184	; 68c <printf_dec+0x168>
     740:	0b3a0e03 	bleq	e83f54 <_etext+0xe81027>
     744:	0b390b3b 	bleq	e43438 <_etext+0xe4050b>
     748:	01110c27 	tsteq	r1, r7, lsr #24
     74c:	06400112 			; <UNDEFINED> instruction: 0x06400112
     750:	01000000 	mrseq	r0, (UNDEF: 0)
     754:	0e250111 	mcreq	1, 1, r0, cr5, cr1, {0}
     758:	0e030b13 	vmoveq.32	d3[0], r0
     75c:	01110e1b 	tsteq	r1, fp, lsl lr
     760:	06100112 			; <UNDEFINED> instruction: 0x06100112
     764:	24020000 	strcs	r0, [r2], #-0
     768:	3e0b0b00 	vmlacc.f64	d0, d11, d0
     76c:	000e030b 	andeq	r0, lr, fp, lsl #6
     770:	00160300 	andseq	r0, r6, r0, lsl #6
     774:	0b3a0e03 	bleq	e83f88 <_etext+0xe8105b>
     778:	0b390b3b 	bleq	e4346c <_etext+0xe4053f>
     77c:	00001349 	andeq	r1, r0, r9, asr #6
     780:	0b002404 	bleq	9798 <_etext+0x686b>
     784:	030b3e0b 	movweq	r3, #48651	; 0xbe0b
     788:	05000008 	streq	r0, [r0, #-8]
     78c:	0e030113 	mcreq	1, 0, r0, cr3, cr3, {0}
     790:	0b3a0b0b 	bleq	e833c4 <_etext+0xe80497>
     794:	0b390b3b 	bleq	e43488 <_etext+0xe4055b>
     798:	00001301 	andeq	r1, r0, r1, lsl #6
     79c:	03000d06 	movweq	r0, #3334	; 0xd06
     7a0:	3b0b3a0e 	blcc	2cefe0 <_etext+0x2cc0b3>
     7a4:	490b390b 	stmdbmi	fp, {r0, r1, r3, r8, fp, ip, sp}
     7a8:	000a3813 	andeq	r3, sl, r3, lsl r8
     7ac:	000f0700 	andeq	r0, pc, r0, lsl #14
     7b0:	13490b0b 	movtne	r0, #39691	; 0x9b0b
     7b4:	15080000 	strne	r0, [r8, #-0]
     7b8:	010c2701 	tsteq	ip, r1, lsl #14
     7bc:	09000013 	stmdbeq	r0, {r0, r1, r4}
     7c0:	13490005 	movtne	r0, #36869	; 0x9005
     7c4:	0f0a0000 	svceq	0x000a0000
     7c8:	000b0b00 	andeq	r0, fp, r0, lsl #22
     7cc:	00340b00 	eorseq	r0, r4, r0, lsl #22
     7d0:	0b3a0e03 	bleq	e83fe4 <_etext+0xe810b7>
     7d4:	0b390b3b 	bleq	e434c8 <_etext+0xe4059b>
     7d8:	0c3f1349 	ldceq	3, cr1, [pc], #-292	; 6bc <printf_dec+0x198>
     7dc:	00000c3c 	andeq	r0, r0, ip, lsr ip
     7e0:	0301040c 	movweq	r0, #5132	; 0x140c
     7e4:	3a0b0b0e 	bcc	2c3424 <_etext+0x2c04f7>
     7e8:	390b3b0b 	stmdbcc	fp, {r0, r1, r3, r8, r9, fp, ip, sp}
     7ec:	0013010b 	andseq	r0, r3, fp, lsl #2
     7f0:	00280d00 	eoreq	r0, r8, r0, lsl #26
     7f4:	0b1c0e03 	bleq	704008 <_etext+0x7010db>
     7f8:	2e0e0000 	cdpcs	0, 0, cr0, cr14, cr0, {0}
     7fc:	030c3f01 	movweq	r3, #52993	; 0xcf01
     800:	3b0b3a0e 	blcc	2cf040 <_etext+0x2cc113>
     804:	270b390b 	strcs	r3, [fp, -fp, lsl #18]
     808:	1113490c 	tstne	r3, ip, lsl #18
     80c:	40011201 	andmi	r1, r1, r1, lsl #4
     810:	00130106 	andseq	r0, r3, r6, lsl #2
     814:	00050f00 	andeq	r0, r5, r0, lsl #30
     818:	0b3a0803 	bleq	e8282c <_etext+0xe7f8ff>
     81c:	0b390b3b 	bleq	e43510 <_etext+0xe405e3>
     820:	0a021349 	beq	8554c <_etext+0x8261f>
     824:	34100000 	ldrcc	r0, [r0], #-0
     828:	3a0e0300 	bcc	381430 <_etext+0x37e503>
     82c:	390b3b0b 	stmdbcc	fp, {r0, r1, r3, r8, r9, fp, ip, sp}
     830:	0213490b 	andseq	r4, r3, #180224	; 0x2c000
     834:	1100000a 	tstne	r0, sl
     838:	0c3f012e 	ldfeqs	f0, [pc], #-184	; 788 <printf_dec+0x264>
     83c:	0b3a0e03 	bleq	e84050 <_etext+0xe81123>
     840:	0b390b3b 	bleq	e43534 <_etext+0xe40607>
     844:	01110c27 	tsteq	r1, r7, lsr #24
     848:	06400112 			; <UNDEFINED> instruction: 0x06400112
     84c:	00001301 	andeq	r1, r0, r1, lsl #6
     850:	03000512 	movweq	r0, #1298	; 0x512
     854:	3b0b3a0e 	blcc	2cf094 <_etext+0x2cc167>
     858:	490b390b 	stmdbmi	fp, {r0, r1, r3, r8, fp, ip, sp}
     85c:	000a0213 	andeq	r0, sl, r3, lsl r2
     860:	010b1300 	mrseq	r1, (UNDEF: 59)
     864:	01120111 	tsteq	r2, r1, lsl r1
     868:	2e140000 	cdpcs	0, 1, cr0, cr4, cr0, {0}
     86c:	030c3f01 	movweq	r3, #52993	; 0xcf01
     870:	3b0b3a0e 	blcc	2cf0b0 <_etext+0x2cc183>
     874:	270b390b 	strcs	r3, [fp, -fp, lsl #18]
     878:	1201110c 	andne	r1, r1, #12, 2
     87c:	00064001 	andeq	r4, r6, r1
     880:	11010000 	mrsne	r0, (UNDEF: 1)
     884:	130e2501 	movwne	r2, #58625	; 0xe501
     888:	1b0e030b 	blne	3814bc <_etext+0x37e58f>
     88c:	1201110e 	andne	r1, r1, #-2147483645	; 0x80000003
     890:	00061001 	andeq	r1, r6, r1
     894:	00240200 	eoreq	r0, r4, r0, lsl #4
     898:	0b3e0b0b 	bleq	f834cc <_etext+0xf8059f>
     89c:	00000e03 	andeq	r0, r0, r3, lsl #28
     8a0:	03001603 	movweq	r1, #1539	; 0x603
     8a4:	3b0b3a0e 	blcc	2cf0e4 <_etext+0x2cc1b7>
     8a8:	490b390b 	stmdbmi	fp, {r0, r1, r3, r8, fp, ip, sp}
     8ac:	04000013 	streq	r0, [r0], #-19	; 0xffffffed
     8b0:	0b0b0024 	bleq	2c0948 <_etext+0x2bda1b>
     8b4:	08030b3e 	stmdaeq	r3, {r1, r2, r3, r4, r5, r8, r9, fp}
     8b8:	13050000 	movwne	r0, #20480	; 0x5000
     8bc:	0b0e0301 	bleq	3814c8 <_etext+0x37e59b>
     8c0:	3b0b3a0b 	blcc	2cf0f4 <_etext+0x2cc1c7>
     8c4:	010b390b 	tsteq	fp, fp, lsl #18
     8c8:	06000013 			; <UNDEFINED> instruction: 0x06000013
     8cc:	0e03000d 	cdpeq	0, 0, cr0, cr3, cr13, {0}
     8d0:	0b3b0b3a 	bleq	ec35c0 <_etext+0xec0693>
     8d4:	13490b39 	movtne	r0, #39737	; 0x9b39
     8d8:	00000a38 	andeq	r0, r0, r8, lsr sl
     8dc:	0b000f07 	bleq	4500 <_etext+0x15d3>
     8e0:	0013490b 	andseq	r4, r3, fp, lsl #18
     8e4:	01150800 	tsteq	r5, r0, lsl #16
     8e8:	13010c27 	movwne	r0, #7207	; 0x1c27
     8ec:	05090000 	streq	r0, [r9, #-0]
     8f0:	00134900 	andseq	r4, r3, r0, lsl #18
     8f4:	000f0a00 	andeq	r0, pc, r0, lsl #20
     8f8:	00000b0b 	andeq	r0, r0, fp, lsl #22
     8fc:	0300340b 	movweq	r3, #1035	; 0x40b
     900:	3b0b3a0e 	blcc	2cf140 <_etext+0x2cc213>
     904:	490b390b 	stmdbmi	fp, {r0, r1, r3, r8, fp, ip, sp}
     908:	3c0c3f13 	stccc	15, cr3, [ip], {19}
     90c:	0c00000c 	stceq	0, cr0, [r0], {12}
     910:	0e030104 	adfeqs	f0, f3, f4
     914:	0b3a0b0b 	bleq	e83548 <_etext+0xe8061b>
     918:	0b390b3b 	bleq	e4360c <_etext+0xe406df>
     91c:	00001301 	andeq	r1, r0, r1, lsl #6
     920:	0300280d 	movweq	r2, #2061	; 0x80d
     924:	000b1c0e 	andeq	r1, fp, lr, lsl #24
     928:	012e0e00 			; <UNDEFINED> instruction: 0x012e0e00
     92c:	0e030c3f 	mcreq	12, 0, r0, cr3, cr15, {1}
     930:	0b3b0b3a 	bleq	ec3620 <_etext+0xec06f3>
     934:	0c270b39 			; <UNDEFINED> instruction: 0x0c270b39
     938:	01120111 	tsteq	r2, r1, lsl r1
     93c:	13010640 	movwne	r0, #5696	; 0x1640
     940:	050f0000 	streq	r0, [pc, #-0]	; 948 <memset+0x20>
     944:	3a0e0300 	bcc	38154c <_etext+0x37e61f>
     948:	390b3b0b 	stmdbcc	fp, {r0, r1, r3, r8, r9, fp, ip, sp}
     94c:	0213490b 	andseq	r4, r3, #180224	; 0x2c000
     950:	1000000a 	andne	r0, r0, sl
     954:	0e030034 	mcreq	0, 0, r0, cr3, cr4, {1}
     958:	0b3b0b3a 	bleq	ec3648 <_etext+0xec071b>
     95c:	13490b39 	movtne	r0, #39737	; 0x9b39
     960:	00000a02 	andeq	r0, r0, r2, lsl #20
     964:	3f012e11 	svccc	0x00012e11
     968:	3a0e030c 	bcc	3815a0 <_etext+0x37e673>
     96c:	390b3b0b 	stmdbcc	fp, {r0, r1, r3, r8, r9, fp, ip, sp}
     970:	490c270b 	stmdbmi	ip, {r0, r1, r3, r8, r9, sl, sp}
     974:	12011113 	andne	r1, r1, #-1073741820	; 0xc0000004
     978:	01064001 	tsteq	r6, r1
     97c:	12000013 	andne	r0, r0, #19
     980:	08030005 	stmdaeq	r3, {r0, r2}
     984:	0b3b0b3a 	bleq	ec3674 <_etext+0xec0747>
     988:	13490b39 	movtne	r0, #39737	; 0x9b39
     98c:	00000a02 	andeq	r0, r0, r2, lsl #20
     990:	3f012e13 	svccc	0x00012e13
     994:	3a0e030c 	bcc	3815cc <_etext+0x37e69f>
     998:	390b3b0b 	stmdbcc	fp, {r0, r1, r3, r8, r9, fp, ip, sp}
     99c:	110c270b 	tstne	ip, fp, lsl #14
     9a0:	40011201 	andmi	r1, r1, r1, lsl #4
     9a4:	00000006 	andeq	r0, r0, r6
     9a8:	25011101 	strcs	r1, [r1, #-257]	; 0xfffffeff
     9ac:	030b130e 	movweq	r1, #45838	; 0xb30e
     9b0:	110e1b0e 	tstne	lr, lr, lsl #22
     9b4:	10011201 	andne	r1, r1, r1, lsl #4
     9b8:	02000006 	andeq	r0, r0, #6
     9bc:	0b0b0024 	bleq	2c0a54 <_etext+0x2bdb27>
     9c0:	0e030b3e 	vmoveq.16	d3[0], r0
     9c4:	16030000 	strne	r0, [r3], -r0
     9c8:	3a0e0300 	bcc	3815d0 <_etext+0x37e6a3>
     9cc:	390b3b0b 	stmdbcc	fp, {r0, r1, r3, r8, r9, fp, ip, sp}
     9d0:	0013490b 	andseq	r4, r3, fp, lsl #18
     9d4:	00240400 	eoreq	r0, r4, r0, lsl #8
     9d8:	0b3e0b0b 	bleq	f8360c <_etext+0xf806df>
     9dc:	00000803 	andeq	r0, r0, r3, lsl #16
     9e0:	03011305 	movweq	r1, #4869	; 0x1305
     9e4:	3a0b0b0e 	bcc	2c3624 <_etext+0x2c06f7>
     9e8:	390b3b0b 	stmdbcc	fp, {r0, r1, r3, r8, r9, fp, ip, sp}
     9ec:	0013010b 	andseq	r0, r3, fp, lsl #2
     9f0:	000d0600 	andeq	r0, sp, r0, lsl #12
     9f4:	0b3a0e03 	bleq	e84208 <_etext+0xe812db>
     9f8:	0b390b3b 	bleq	e436ec <_etext+0xe407bf>
     9fc:	0a381349 	beq	e05728 <_etext+0xe027fb>
     a00:	0f070000 	svceq	0x00070000
     a04:	490b0b00 	stmdbmi	fp, {r8, r9, fp}
     a08:	08000013 	stmdaeq	r0, {r0, r1, r4}
     a0c:	0c270115 	stfeqs	f0, [r7], #-84	; 0xffffffac
     a10:	00001301 	andeq	r1, r0, r1, lsl #6
     a14:	49000509 	stmdbmi	r0, {r0, r3, r8, sl}
     a18:	0a000013 	beq	a6c <strncmp+0xa>
     a1c:	0b0b000f 	bleq	2c0a60 <_etext+0x2bdb33>
     a20:	340b0000 	strcc	r0, [fp], #-0
     a24:	3a0e0300 	bcc	38162c <_etext+0x37e6ff>
     a28:	390b3b0b 	stmdbcc	fp, {r0, r1, r3, r8, r9, fp, ip, sp}
     a2c:	3f13490b 	svccc	0x0013490b
     a30:	000c3c0c 	andeq	r3, ip, ip, lsl #24
     a34:	01040c00 	tsteq	r4, r0, lsl #24
     a38:	0b0b0e03 	bleq	2c424c <_etext+0x2c131f>
     a3c:	0b3b0b3a 	bleq	ec372c <_etext+0xec07ff>
     a40:	13010b39 	movwne	r0, #6969	; 0x1b39
     a44:	280d0000 	stmdacs	sp, {}	; <UNPREDICTABLE>
     a48:	1c0e0300 	stcne	3, cr0, [lr], {-0}
     a4c:	0e00000b 	cdpeq	0, 0, cr0, cr0, cr11, {0}
     a50:	0c3f012e 	ldfeqs	f0, [pc], #-184	; 9a0 <memcpy+0x38>
     a54:	0b3a0e03 	bleq	e84268 <_etext+0xe8133b>
     a58:	0b390b3b 	bleq	e4374c <_etext+0xe4081f>
     a5c:	13490c27 	movtne	r0, #39975	; 0x9c27
     a60:	01120111 	tsteq	r2, r1, lsl r1
     a64:	13010640 	movwne	r0, #5696	; 0x1640
     a68:	050f0000 	streq	r0, [pc, #-0]	; a70 <strncmp+0xe>
     a6c:	3a0e0300 	bcc	381674 <_etext+0x37e747>
     a70:	390b3b0b 	stmdbcc	fp, {r0, r1, r3, r8, r9, fp, ip, sp}
     a74:	0213490b 	andseq	r4, r3, #180224	; 0x2c000
     a78:	1000000a 	andne	r0, r0, sl
     a7c:	0e030034 	mcreq	0, 0, r0, cr3, cr4, {1}
     a80:	0b3b0b3a 	bleq	ec3770 <_etext+0xec0843>
     a84:	13490b39 	movtne	r0, #39737	; 0x9b39
     a88:	00000a02 	andeq	r0, r0, r2, lsl #20
     a8c:	3f012e11 	svccc	0x00012e11
     a90:	3a0e030c 	bcc	3816c8 <_etext+0x37e79b>
     a94:	390b3b0b 	stmdbcc	fp, {r0, r1, r3, r8, r9, fp, ip, sp}
     a98:	110c270b 	tstne	ip, fp, lsl #14
     a9c:	40011201 	andmi	r1, r1, r1, lsl #4
     aa0:	00130106 	andseq	r0, r3, r6, lsl #2
     aa4:	00051200 	andeq	r1, r5, r0, lsl #4
     aa8:	0b3a0803 	bleq	e82abc <_etext+0xe7fb8f>
     aac:	0b390b3b 	bleq	e437a0 <_etext+0xe40873>
     ab0:	0a021349 	beq	857dc <_etext+0x828af>
     ab4:	0b130000 	bleq	4c0abc <_etext+0x4bdb8f>
     ab8:	12011101 	andne	r1, r1, #1073741824	; 0x40000000
     abc:	14000001 	strne	r0, [r0], #-1
     ac0:	0c3f012e 	ldfeqs	f0, [pc], #-184	; a10 <strcmp>
     ac4:	0b3a0e03 	bleq	e842d8 <_etext+0xe813ab>
     ac8:	0b390b3b 	bleq	e437bc <_etext+0xe4088f>
     acc:	01110c27 	tsteq	r1, r7, lsr #24
     ad0:	06400112 			; <UNDEFINED> instruction: 0x06400112
     ad4:	0a150000 	beq	540adc <_etext+0x53dbaf>
     ad8:	3a0e0300 	bcc	3816e0 <_etext+0x37e7b3>
     adc:	390b3b0b 	stmdbcc	fp, {r0, r1, r3, r8, r9, fp, ip, sp}
     ae0:	0001110b 	andeq	r1, r1, fp, lsl #2
     ae4:	11010000 	mrsne	r0, (UNDEF: 1)
     ae8:	130e2501 	movwne	r2, #58625	; 0xe501
     aec:	1b0e030b 	blne	381720 <_etext+0x37e7f3>
     af0:	1201110e 	andne	r1, r1, #-2147483645	; 0x80000003
     af4:	00061001 	andeq	r1, r6, r1
     af8:	00240200 	eoreq	r0, r4, r0, lsl #4
     afc:	0b3e0b0b 	bleq	f83730 <_etext+0xf80803>
     b00:	00000e03 	andeq	r0, r0, r3, lsl #28
     b04:	03001603 	movweq	r1, #1539	; 0x603
     b08:	3b0b3a0e 	blcc	2cf348 <_etext+0x2cc41b>
     b0c:	490b390b 	stmdbmi	fp, {r0, r1, r3, r8, fp, ip, sp}
     b10:	04000013 	streq	r0, [r0], #-19	; 0xffffffed
     b14:	0b0b0024 	bleq	2c0bac <_etext+0x2bdc7f>
     b18:	08030b3e 	stmdaeq	r3, {r1, r2, r3, r4, r5, r8, r9, fp}
     b1c:	13050000 	movwne	r0, #20480	; 0x5000
     b20:	0b0e0301 	bleq	38172c <_etext+0x37e7ff>
     b24:	3b0b3a0b 	blcc	2cf358 <_etext+0x2cc42b>
     b28:	010b390b 	tsteq	fp, fp, lsl #18
     b2c:	06000013 			; <UNDEFINED> instruction: 0x06000013
     b30:	0e03000d 	cdpeq	0, 0, cr0, cr3, cr13, {0}
     b34:	0b3b0b3a 	bleq	ec3824 <_etext+0xec08f7>
     b38:	13490b39 	movtne	r0, #39737	; 0x9b39
     b3c:	00000a38 	andeq	r0, r0, r8, lsr sl
     b40:	0b000f07 	bleq	4764 <_etext+0x1837>
     b44:	0013490b 	andseq	r4, r3, fp, lsl #18
     b48:	01150800 	tsteq	r5, r0, lsl #16
     b4c:	13010c27 	movwne	r0, #7207	; 0x1c27
     b50:	05090000 	streq	r0, [r9, #-0]
     b54:	00134900 	andseq	r4, r3, r0, lsl #18
     b58:	000f0a00 	andeq	r0, pc, r0, lsl #20
     b5c:	00000b0b 	andeq	r0, r0, fp, lsl #22
     b60:	0301040b 	movweq	r0, #5131	; 0x140b
     b64:	3a0b0b0e 	bcc	2c37a4 <_etext+0x2c0877>
     b68:	390b3b0b 	stmdbcc	fp, {r0, r1, r3, r8, r9, fp, ip, sp}
     b6c:	0013010b 	andseq	r0, r3, fp, lsl #2
     b70:	00280c00 	eoreq	r0, r8, r0, lsl #24
     b74:	0b1c0e03 	bleq	704388 <_etext+0x70145b>
     b78:	0d0d0000 	stceq	0, cr0, [sp, #-0]
     b7c:	3a080300 	bcc	201784 <_etext+0x1fe857>
     b80:	390b3b0b 	stmdbcc	fp, {r0, r1, r3, r8, r9, fp, ip, sp}
     b84:	3813490b 	ldmdacc	r3, {r0, r1, r3, r8, fp, lr}
     b88:	0e00000a 	cdpeq	0, 0, cr0, cr0, cr10, {0}
     b8c:	0e030034 	mcreq	0, 0, r0, cr3, cr4, {1}
     b90:	0b3b0b3a 	bleq	ec3880 <_etext+0xec0953>
     b94:	13490b39 	movtne	r0, #39737	; 0x9b39
     b98:	00000a02 	andeq	r0, r0, r2, lsl #20
     b9c:	4901010f 	stmdbmi	r1, {r0, r1, r2, r3, r8}
     ba0:	00130113 	andseq	r0, r3, r3, lsl r1
     ba4:	00211000 	eoreq	r1, r1, r0
     ba8:	052f1349 	streq	r1, [pc, #-841]!	; 867 <printk+0xc3>
     bac:	2e110000 	cdpcs	0, 1, cr0, cr1, cr0, {0}
     bb0:	030c3f00 	movweq	r3, #52992	; 0xcf00
     bb4:	3b0b3a0e 	blcc	2cf3f4 <_etext+0x2cc4c7>
     bb8:	270b390b 	strcs	r3, [fp, -fp, lsl #18]
     bbc:	1201110c 	andne	r1, r1, #12, 2
     bc0:	00064001 	andeq	r4, r6, r1
     bc4:	012e1200 			; <UNDEFINED> instruction: 0x012e1200
     bc8:	0e030c3f 	mcreq	12, 0, r0, cr3, cr15, {1}
     bcc:	0b3b0b3a 	bleq	ec38bc <_etext+0xec098f>
     bd0:	0c270b39 			; <UNDEFINED> instruction: 0x0c270b39
     bd4:	01120111 	tsteq	r2, r1, lsl r1
     bd8:	13010640 	movwne	r0, #5696	; 0x1640
     bdc:	2e130000 	cdpcs	0, 1, cr0, cr3, cr0, {0}
     be0:	3a0e0301 	bcc	3817ec <_etext+0x37e8bf>
     be4:	390b3b0b 	stmdbcc	fp, {r0, r1, r3, r8, r9, fp, ip, sp}
     be8:	110c270b 	tstne	ip, fp, lsl #14
     bec:	40011201 	andmi	r1, r1, r1, lsl #4
     bf0:	00130106 	andseq	r0, r3, r6, lsl #2
     bf4:	00051400 	andeq	r1, r5, r0, lsl #8
     bf8:	0b3a0e03 	bleq	e8440c <_etext+0xe814df>
     bfc:	0b390b3b 	bleq	e438f0 <_etext+0xe409c3>
     c00:	0a021349 	beq	8592c <_etext+0x829ff>
     c04:	0b150000 	bleq	540c0c <_etext+0x53dcdf>
     c08:	12011101 	andne	r1, r1, #1073741824	; 0x40000000
     c0c:	16000001 	strne	r0, [r0], -r1
     c10:	0c3f012e 	ldfeqs	f0, [pc], #-184	; b60 <strtoul+0x9c>
     c14:	0b3a0e03 	bleq	e84428 <_etext+0xe814fb>
     c18:	0b390b3b 	bleq	e4390c <_etext+0xe409df>
     c1c:	01110c27 	tsteq	r1, r7, lsr #24
     c20:	06400112 			; <UNDEFINED> instruction: 0x06400112
     c24:	05170000 	ldreq	r0, [r7, #-0]
     c28:	3a080300 	bcc	201830 <_etext+0x1fe903>
     c2c:	390b3b0b 	stmdbcc	fp, {r0, r1, r3, r8, r9, fp, ip, sp}
     c30:	0213490b 	andseq	r4, r3, #180224	; 0x2c000
     c34:	0000000a 	andeq	r0, r0, sl
     c38:	25011101 	strcs	r1, [r1, #-257]	; 0xfffffeff
     c3c:	030b130e 	movweq	r1, #45838	; 0xb30e
     c40:	110e1b0e 	tstne	lr, lr, lsl #22
     c44:	10011201 	andne	r1, r1, r1, lsl #4
     c48:	02000006 	andeq	r0, r0, #6
     c4c:	0b0b0024 	bleq	2c0ce4 <_etext+0x2bddb7>
     c50:	0e030b3e 	vmoveq.16	d3[0], r0
     c54:	16030000 	strne	r0, [r3], -r0
     c58:	3a0e0300 	bcc	381860 <_etext+0x37e933>
     c5c:	390b3b0b 	stmdbcc	fp, {r0, r1, r3, r8, r9, fp, ip, sp}
     c60:	0013490b 	andseq	r4, r3, fp, lsl #18
     c64:	00240400 	eoreq	r0, r4, r0, lsl #8
     c68:	0b3e0b0b 	bleq	f8389c <_etext+0xf8096f>
     c6c:	00000803 	andeq	r0, r0, r3, lsl #16
     c70:	03011305 	movweq	r1, #4869	; 0x1305
     c74:	3a0b0b0e 	bcc	2c38b4 <_etext+0x2c0987>
     c78:	390b3b0b 	stmdbcc	fp, {r0, r1, r3, r8, r9, fp, ip, sp}
     c7c:	0013010b 	andseq	r0, r3, fp, lsl #2
     c80:	000d0600 	andeq	r0, sp, r0, lsl #12
     c84:	0b3a0e03 	bleq	e84498 <_etext+0xe8156b>
     c88:	0b390b3b 	bleq	e4397c <_etext+0xe40a4f>
     c8c:	0a381349 	beq	e059b8 <_etext+0xe02a8b>
     c90:	0f070000 	svceq	0x00070000
     c94:	490b0b00 	stmdbmi	fp, {r8, r9, fp}
     c98:	08000013 	stmdaeq	r0, {r0, r1, r4}
     c9c:	0c270115 	stfeqs	f0, [r7], #-84	; 0xffffffac
     ca0:	00001301 	andeq	r1, r0, r1, lsl #6
     ca4:	49000509 	stmdbmi	r0, {r0, r3, r8, sl}
     ca8:	0a000013 	beq	cfc <task_init+0x12>
     cac:	0b0b000f 	bleq	2c0cf0 <_etext+0x2bddc3>
     cb0:	340b0000 	strcc	r0, [fp], #-0
     cb4:	3a0e0300 	bcc	3818bc <_etext+0x37e98f>
     cb8:	390b3b0b 	stmdbcc	fp, {r0, r1, r3, r8, r9, fp, ip, sp}
     cbc:	3f13490b 	svccc	0x0013490b
     cc0:	000c3c0c 	andeq	r3, ip, ip, lsl #24
     cc4:	01040c00 	tsteq	r4, r0, lsl #24
     cc8:	0b0b0e03 	bleq	2c44dc <_etext+0x2c15af>
     ccc:	0b3b0b3a 	bleq	ec39bc <_etext+0xec0a8f>
     cd0:	13010b39 	movwne	r0, #6969	; 0x1b39
     cd4:	280d0000 	stmdacs	sp, {}	; <UNPREDICTABLE>
     cd8:	1c0e0300 	stcne	3, cr0, [lr], {-0}
     cdc:	0e00000b 	cdpeq	0, 0, cr0, cr0, cr11, {0}
     ce0:	0c3f012e 	ldfeqs	f0, [pc], #-184	; c30 <strcpy+0x16>
     ce4:	0b3a0e03 	bleq	e844f8 <_etext+0xe815cb>
     ce8:	0b390b3b 	bleq	e439dc <_etext+0xe40aaf>
     cec:	01110c27 	tsteq	r1, r7, lsr #24
     cf0:	06400112 			; <UNDEFINED> instruction: 0x06400112
     cf4:	00001301 	andeq	r1, r0, r1, lsl #6
     cf8:	0300050f 	movweq	r0, #1295	; 0x50f
     cfc:	3b0b3a0e 	blcc	2cf53c <_etext+0x2cc60f>
     d00:	490b390b 	stmdbmi	fp, {r0, r1, r3, r8, fp, ip, sp}
     d04:	000a0213 	andeq	r0, sl, r3, lsl r2
     d08:	00341000 	eorseq	r1, r4, r0
     d0c:	0b3a0e03 	bleq	e84520 <_etext+0xe815f3>
     d10:	0b390b3b 	bleq	e43a04 <_etext+0xe40ad7>
     d14:	0a021349 	beq	85a40 <_etext+0x82b13>
     d18:	2e110000 	cdpcs	0, 1, cr0, cr1, cr0, {0}
     d1c:	030c3f01 	movweq	r3, #52993	; 0xcf01
     d20:	3b0b3a0e 	blcc	2cf560 <_etext+0x2cc633>
     d24:	270b390b 	strcs	r3, [fp, -fp, lsl #18]
     d28:	1113490c 	tstne	r3, ip, lsl #18
     d2c:	40011201 	andmi	r1, r1, r1, lsl #4
     d30:	00130106 	andseq	r0, r3, r6, lsl #2
     d34:	010b1200 	mrseq	r1, R11_fiq
     d38:	01120111 	tsteq	r2, r1, lsl r1
     d3c:	2e130000 	cdpcs	0, 1, cr0, cr3, cr0, {0}
     d40:	030c3f01 	movweq	r3, #52993	; 0xcf01
     d44:	3b0b3a0e 	blcc	2cf584 <_etext+0x2cc657>
     d48:	270b390b 	strcs	r3, [fp, -fp, lsl #18]
     d4c:	1201110c 	andne	r1, r1, #12, 2
     d50:	00064001 	andeq	r4, r6, r1
     d54:	11010000 	mrsne	r0, (UNDEF: 1)
     d58:	130e2501 	movwne	r2, #58625	; 0xe501
     d5c:	1b0e030b 	blne	381990 <_etext+0x37ea63>
     d60:	1201110e 	andne	r1, r1, #-2147483645	; 0x80000003
     d64:	00061001 	andeq	r1, r6, r1
     d68:	00240200 	eoreq	r0, r4, r0, lsl #4
     d6c:	0b3e0b0b 	bleq	f839a0 <_etext+0xf80a73>
     d70:	00000e03 	andeq	r0, r0, r3, lsl #28
     d74:	03001603 	movweq	r1, #1539	; 0x603
     d78:	3b0b3a0e 	blcc	2cf5b8 <_etext+0x2cc68b>
     d7c:	490b390b 	stmdbmi	fp, {r0, r1, r3, r8, fp, ip, sp}
     d80:	04000013 	streq	r0, [r0], #-19	; 0xffffffed
     d84:	0b0b0024 	bleq	2c0e1c <_etext+0x2bdeef>
     d88:	08030b3e 	stmdaeq	r3, {r1, r2, r3, r4, r5, r8, r9, fp}
     d8c:	13050000 	movwne	r0, #20480	; 0x5000
     d90:	0b0e0301 	bleq	38199c <_etext+0x37ea6f>
     d94:	3b0b3a0b 	blcc	2cf5c8 <_etext+0x2cc69b>
     d98:	010b390b 	tsteq	fp, fp, lsl #18
     d9c:	06000013 			; <UNDEFINED> instruction: 0x06000013
     da0:	0e03000d 	cdpeq	0, 0, cr0, cr3, cr13, {0}
     da4:	0b3b0b3a 	bleq	ec3a94 <_etext+0xec0b67>
     da8:	13490b39 	movtne	r0, #39737	; 0x9b39
     dac:	00000a38 	andeq	r0, r0, r8, lsr sl
     db0:	0b000f07 	bleq	49d4 <_etext+0x1aa7>
     db4:	0013490b 	andseq	r4, r3, fp, lsl #18
     db8:	01150800 	tsteq	r5, r0, lsl #16
     dbc:	13010c27 	movwne	r0, #7207	; 0x1c27
     dc0:	05090000 	streq	r0, [r9, #-0]
     dc4:	00134900 	andseq	r4, r3, r0, lsl #18
     dc8:	000f0a00 	andeq	r0, pc, r0, lsl #20
     dcc:	00000b0b 	andeq	r0, r0, fp, lsl #22
     dd0:	0300340b 	movweq	r3, #1035	; 0x40b
     dd4:	3b0b3a0e 	blcc	2cf614 <_etext+0x2cc6e7>
     dd8:	490b390b 	stmdbmi	fp, {r0, r1, r3, r8, fp, ip, sp}
     ddc:	3c0c3f13 	stccc	15, cr3, [ip], {19}
     de0:	0c00000c 	stceq	0, cr0, [r0], {12}
     de4:	0e030104 	adfeqs	f0, f3, f4
     de8:	0b3a0b0b 	bleq	e83a1c <_etext+0xe80aef>
     dec:	0b390b3b 	bleq	e43ae0 <_etext+0xe40bb3>
     df0:	00001301 	andeq	r1, r0, r1, lsl #6
     df4:	0300280d 	movweq	r2, #2061	; 0x80d
     df8:	000b1c0e 	andeq	r1, fp, lr, lsl #24
     dfc:	012e0e00 			; <UNDEFINED> instruction: 0x012e0e00
     e00:	0e030c3f 	mcreq	12, 0, r0, cr3, cr15, {1}
     e04:	0b3b0b3a 	bleq	ec3af4 <_etext+0xec0bc7>
     e08:	0c270b39 			; <UNDEFINED> instruction: 0x0c270b39
     e0c:	01111349 	tsteq	r1, r9, asr #6
     e10:	06400112 			; <UNDEFINED> instruction: 0x06400112
     e14:	00001301 	andeq	r1, r0, r1, lsl #6
     e18:	0300050f 	movweq	r0, #1295	; 0x50f
     e1c:	3b0b3a0e 	blcc	2cf65c <_etext+0x2cc72f>
     e20:	490b390b 	stmdbmi	fp, {r0, r1, r3, r8, fp, ip, sp}
     e24:	000a0213 	andeq	r0, sl, r3, lsl r2
     e28:	00341000 	eorseq	r1, r4, r0
     e2c:	0b3a0e03 	bleq	e84640 <_etext+0xe81713>
     e30:	0b390b3b 	bleq	e43b24 <_etext+0xe40bf7>
     e34:	0a021349 	beq	85b60 <_etext+0x82c33>
     e38:	2e110000 	cdpcs	0, 1, cr0, cr1, cr0, {0}
     e3c:	030c3f01 	movweq	r3, #52993	; 0xcf01
     e40:	3b0b3a0e 	blcc	2cf680 <_etext+0x2cc753>
     e44:	270b390b 	strcs	r3, [fp, -fp, lsl #18]
     e48:	1201110c 	andne	r1, r1, #12, 2
     e4c:	01064001 	tsteq	r6, r1
     e50:	12000013 	andne	r0, r0, #19
     e54:	0111010b 	tsteq	r1, fp, lsl #2
     e58:	00000112 	andeq	r0, r0, r2, lsl r1
     e5c:	03012e13 	movweq	r2, #7699	; 0x1e13
     e60:	3b0b3a0e 	blcc	2cf6a0 <_etext+0x2cc773>
     e64:	270b390b 	strcs	r3, [fp, -fp, lsl #18]
     e68:	1113490c 	tstne	r3, ip, lsl #18
     e6c:	40011201 	andmi	r1, r1, r1, lsl #4
     e70:	00130106 	andseq	r0, r3, r6, lsl #2
     e74:	012e1400 			; <UNDEFINED> instruction: 0x012e1400
     e78:	0e030c3f 	mcreq	12, 0, r0, cr3, cr15, {1}
     e7c:	0b3b0b3a 	bleq	ec3b6c <_etext+0xec0c3f>
     e80:	0c270b39 			; <UNDEFINED> instruction: 0x0c270b39
     e84:	01120111 	tsteq	r2, r1, lsl r1
     e88:	00000640 	andeq	r0, r0, r0, asr #12
     e8c:	01110100 	tsteq	r1, r0, lsl #2
     e90:	0b130e25 	bleq	4c472c <_etext+0x4c17ff>
     e94:	0e1b0e03 	cdpeq	14, 1, cr0, cr11, cr3, {0}
     e98:	01120111 	tsteq	r2, r1, lsl r1
     e9c:	00000610 	andeq	r0, r0, r0, lsl r6
     ea0:	0b002402 	bleq	9eb0 <_etext+0x6f83>
     ea4:	030b3e0b 	movweq	r3, #48651	; 0xbe0b
     ea8:	0300000e 	movweq	r0, #14
     eac:	0e030016 	mcreq	0, 0, r0, cr3, cr6, {0}
     eb0:	0b3b0b3a 	bleq	ec3ba0 <_etext+0xec0c73>
     eb4:	13490b39 	movtne	r0, #39737	; 0x9b39
     eb8:	24040000 	strcs	r0, [r4], #-0
     ebc:	3e0b0b00 	vmlacc.f64	d0, d11, d0
     ec0:	0008030b 	andeq	r0, r8, fp, lsl #6
     ec4:	01130500 	tsteq	r3, r0, lsl #10
     ec8:	0b0b0e03 	bleq	2c46dc <_etext+0x2c17af>
     ecc:	0b3b0b3a 	bleq	ec3bbc <_etext+0xec0c8f>
     ed0:	13010b39 	movwne	r0, #6969	; 0x1b39
     ed4:	0d060000 	stceq	0, cr0, [r6, #-0]
     ed8:	3a0e0300 	bcc	381ae0 <_etext+0x37ebb3>
     edc:	390b3b0b 	stmdbcc	fp, {r0, r1, r3, r8, r9, fp, ip, sp}
     ee0:	3813490b 	ldmdacc	r3, {r0, r1, r3, r8, fp, lr}
     ee4:	0700000a 	streq	r0, [r0, -sl]
     ee8:	0b0b000f 	bleq	2c0f2c <_etext+0x2bdfff>
     eec:	00001349 	andeq	r1, r0, r9, asr #6
     ef0:	27011508 	strcs	r1, [r1, -r8, lsl #10]
     ef4:	0013010c 	andseq	r0, r3, ip, lsl #2
     ef8:	00050900 	andeq	r0, r5, r0, lsl #18
     efc:	00001349 	andeq	r1, r0, r9, asr #6
     f00:	0b000f0a 	bleq	4b30 <_etext+0x1c03>
     f04:	0b00000b 	bleq	f38 <task_delay_s+0x8>
     f08:	0e030034 	mcreq	0, 0, r0, cr3, cr4, {1}
     f0c:	0b3b0b3a 	bleq	ec3bfc <_etext+0xec0ccf>
     f10:	13490b39 	movtne	r0, #39737	; 0x9b39
     f14:	0c3c0c3f 	ldceq	12, cr0, [ip], #-252	; 0xffffff04
     f18:	340c0000 	strcc	r0, [ip], #-0
     f1c:	3a0e0300 	bcc	381b24 <_etext+0x37ebf7>
     f20:	390b3b0b 	stmdbcc	fp, {r0, r1, r3, r8, r9, fp, ip, sp}
     f24:	3f13490b 	svccc	0x0013490b
     f28:	000a020c 	andeq	r0, sl, ip, lsl #4
     f2c:	01010d00 	tsteq	r1, r0, lsl #26
     f30:	13011349 	movwne	r1, #4937	; 0x1349
     f34:	210e0000 	mrscs	r0, (UNDEF: 14)
     f38:	2f134900 	svccs	0x00134900
     f3c:	0f000005 	svceq	0x00000005
     f40:	0c3f002e 	ldceq	0, cr0, [pc], #-184	; e90 <task_sched+0x34>
     f44:	0b3a0e03 	bleq	e84758 <_etext+0xe8182b>
     f48:	0b390b3b 	bleq	e43c3c <_etext+0xe40d0f>
     f4c:	01111349 	tsteq	r1, r9, asr #6
     f50:	06400112 			; <UNDEFINED> instruction: 0x06400112
     f54:	2e100000 	cdpcs	0, 1, cr0, cr0, cr0, {0}
     f58:	030c3f01 	movweq	r3, #52993	; 0xcf01
     f5c:	3b0b3a0e 	blcc	2cf79c <_etext+0x2cc86f>
     f60:	270b390b 	strcs	r3, [fp, -fp, lsl #18]
     f64:	1201110c 	andne	r1, r1, #12, 2
     f68:	01064001 	tsteq	r6, r1
     f6c:	11000013 	tstne	r0, r3, lsl r0
     f70:	0e030005 	cdpeq	0, 0, cr0, cr3, cr5, {0}
     f74:	0b3b0b3a 	bleq	ec3c64 <_etext+0xec0d37>
     f78:	13490b39 	movtne	r0, #39737	; 0x9b39
     f7c:	00000a02 	andeq	r0, r0, r2, lsl #20
     f80:	03003412 	movweq	r3, #1042	; 0x412
     f84:	3413490e 	ldrcc	r4, [r3], #-2318	; 0xfffff6f2
     f88:	000a020c 	andeq	r0, sl, ip, lsl #4
     f8c:	00211300 	eoreq	r1, r1, r0, lsl #6
     f90:	0b2f1349 	bleq	bc5cbc <_etext+0xbc2d8f>
     f94:	26140000 	ldrcs	r0, [r4], -r0
     f98:	00134900 	andseq	r4, r3, r0, lsl #18
     f9c:	00341500 	eorseq	r1, r4, r0, lsl #10
     fa0:	0b3a0e03 	bleq	e847b4 <_etext+0xe81887>
     fa4:	0b390b3b 	bleq	e43c98 <_etext+0xe40d6b>
     fa8:	0a021349 	beq	85cd4 <_etext+0x82da7>
     fac:	2e160000 	cdpcs	0, 1, cr0, cr6, cr0, {0}
     fb0:	3a0e0301 	bcc	381bbc <_etext+0x37ec8f>
     fb4:	390b3b0b 	stmdbcc	fp, {r0, r1, r3, r8, r9, fp, ip, sp}
     fb8:	110c270b 	tstne	ip, fp, lsl #14
     fbc:	40011201 	andmi	r1, r1, r1, lsl #4
     fc0:	00130106 	andseq	r0, r3, r6, lsl #2
     fc4:	11010000 	mrsne	r0, (UNDEF: 1)
     fc8:	130e2501 	movwne	r2, #58625	; 0xe501
     fcc:	1b0e030b 	blne	381c00 <_etext+0x37ecd3>
     fd0:	1201110e 	andne	r1, r1, #-2147483645	; 0x80000003
     fd4:	00061001 	andeq	r1, r6, r1
     fd8:	00240200 	eoreq	r0, r4, r0, lsl #4
     fdc:	0b3e0b0b 	bleq	f83c10 <_etext+0xf80ce3>
     fe0:	00000e03 	andeq	r0, r0, r3, lsl #28
     fe4:	0b002403 	bleq	9ff8 <_etext+0x70cb>
     fe8:	030b3e0b 	movweq	r3, #48651	; 0xbe0b
     fec:	04000008 	streq	r0, [r0], #-8
     ff0:	0c3f012e 	ldfeqs	f0, [pc], #-184	; f40 <task_delay_s+0x10>
     ff4:	0b3a0e03 	bleq	e84808 <_etext+0xe818db>
     ff8:	0b390b3b 	bleq	e43cec <_etext+0xe40dbf>
     ffc:	01110c27 	tsteq	r1, r7, lsr #24
    1000:	06400112 			; <UNDEFINED> instruction: 0x06400112
    1004:	00001301 	andeq	r1, r0, r1, lsl #6
    1008:	03003405 	movweq	r3, #1029	; 0x405
    100c:	3413490e 	ldrcc	r4, [r3], #-2318	; 0xfffff6f2
    1010:	000a020c 	andeq	r0, sl, ip, lsl #4
    1014:	01010600 	tsteq	r1, r0, lsl #12
    1018:	13011349 	movwne	r1, #4937	; 0x1349
    101c:	21070000 	mrscs	r0, (UNDEF: 7)
    1020:	2f134900 	svccs	0x00134900
    1024:	0800000b 	stmdaeq	r0, {r0, r1, r3}
    1028:	13490026 	movtne	r0, #36902	; 0x9026
    102c:	Address 0x000000000000102c is out of bounds.


Disassembly of section .debug_loc:

00000000 <.debug_loc>:
       0:	0000000c 	andeq	r0, r0, ip
       4:	0000000e 	andeq	r0, r0, lr
       8:	007d0002 	rsbseq	r0, sp, r2
       c:	0000000e 	andeq	r0, r0, lr
      10:	00000010 	andeq	r0, r0, r0, lsl r0
      14:	087d0002 	ldmdaeq	sp!, {r1}^
      18:	00000010 	andeq	r0, r0, r0, lsl r0
      1c:	0000001c 	andeq	r0, r0, ip, lsl r0
      20:	08770002 	ldmdaeq	r7!, {r1}^
	...
      2c:	00000006 	andeq	r0, r0, r6
      30:	00000008 	andeq	r0, r0, r8
      34:	007d0002 	rsbseq	r0, sp, r2
      38:	00000008 	andeq	r0, r0, r8
      3c:	0000000a 	andeq	r0, r0, sl
      40:	047d0002 	ldrbteq	r0, [sp], #-2
      44:	0000000a 	andeq	r0, r0, sl
      48:	0000000c 	andeq	r0, r0, ip
      4c:	04770002 	ldrbteq	r0, [r7], #-2
	...
      5c:	00000002 	andeq	r0, r0, r2
      60:	007d0002 	rsbseq	r0, sp, r2
      64:	00000002 	andeq	r0, r0, r2
      68:	00000004 	andeq	r0, r0, r4
      6c:	047d0002 	ldrbteq	r0, [sp], #-2
      70:	00000004 	andeq	r0, r0, r4
      74:	00000006 	andeq	r0, r0, r6
      78:	04770002 	ldrbteq	r0, [r7], #-2
	...
      84:	00000050 	andeq	r0, r0, r0, asr r0
      88:	00000052 	andeq	r0, r0, r2, asr r0
      8c:	007d0002 	rsbseq	r0, sp, r2
      90:	00000052 	andeq	r0, r0, r2, asr r0
      94:	00000054 	andeq	r0, r0, r4, asr r0
      98:	047d0002 	ldrbteq	r0, [sp], #-2
      9c:	00000054 	andeq	r0, r0, r4, asr r0
      a0:	00000066 	andeq	r0, r0, r6, rrx
      a4:	04770002 	ldrbteq	r0, [r7], #-2
      a8:	00000066 	andeq	r0, r0, r6, rrx
      ac:	00000068 	andeq	r0, r0, r8, rrx
      b0:	047d0002 	ldrbteq	r0, [sp], #-2
      b4:	00000068 	andeq	r0, r0, r8, rrx
      b8:	00000074 	andeq	r0, r0, r4, ror r0
      bc:	007d0002 	rsbseq	r0, sp, r2
	...
      c8:	00000044 	andeq	r0, r0, r4, asr #32
      cc:	00000046 	andeq	r0, r0, r6, asr #32
      d0:	007d0002 	rsbseq	r0, sp, r2
      d4:	00000046 	andeq	r0, r0, r6, asr #32
      d8:	00000048 	andeq	r0, r0, r8, asr #32
      dc:	087d0002 	ldmdaeq	sp!, {r1}^
      e0:	00000048 	andeq	r0, r0, r8, asr #32
      e4:	00000050 	andeq	r0, r0, r0, asr r0
      e8:	08770002 	ldmdaeq	r7!, {r1}^
	...
      f8:	00000002 	andeq	r0, r0, r2
      fc:	007d0002 	rsbseq	r0, sp, r2
     100:	00000002 	andeq	r0, r0, r2
     104:	00000004 	andeq	r0, r0, r4
     108:	047d0002 	ldrbteq	r0, [sp], #-2
     10c:	00000004 	andeq	r0, r0, r4
     110:	00000006 	andeq	r0, r0, r6
     114:	187d0002 	ldmdane	sp!, {r1}^
     118:	00000006 	andeq	r0, r0, r6
     11c:	00000036 	andeq	r0, r0, r6, lsr r0
     120:	18770002 	ldmdane	r7!, {r1}^
     124:	00000036 	andeq	r0, r0, r6, lsr r0
     128:	00000038 	andeq	r0, r0, r8, lsr r0
     12c:	04770002 	ldrbteq	r0, [r7], #-2
     130:	00000038 	andeq	r0, r0, r8, lsr r0
     134:	0000003a 	andeq	r0, r0, sl, lsr r0
     138:	047d0002 	ldrbteq	r0, [sp], #-2
     13c:	0000003a 	andeq	r0, r0, sl, lsr r0
     140:	00000044 	andeq	r0, r0, r4, asr #32
     144:	007d0002 	rsbseq	r0, sp, r2
	...
     150:	0000091e 	andeq	r0, r0, lr, lsl r9
     154:	00000920 	andeq	r0, r0, r0, lsr #18
     158:	007d0002 	rsbseq	r0, sp, r2
     15c:	00000920 	andeq	r0, r0, r0, lsr #18
     160:	00000922 	andeq	r0, r0, r2, lsr #18
     164:	047d0002 	ldrbteq	r0, [sp], #-2
     168:	00000922 	andeq	r0, r0, r2, lsr #18
     16c:	00000924 	andeq	r0, r0, r4, lsr #18
     170:	187d0002 	ldmdane	sp!, {r1}^
     174:	00000924 	andeq	r0, r0, r4, lsr #18
     178:	0000095a 	andeq	r0, r0, sl, asr r9
     17c:	18770002 	ldmdane	r7!, {r1}^
     180:	0000095a 	andeq	r0, r0, sl, asr r9
     184:	0000095c 	andeq	r0, r0, ip, asr r9
     188:	04770002 	ldrbteq	r0, [r7], #-2
     18c:	0000095c 	andeq	r0, r0, ip, asr r9
     190:	0000095e 	andeq	r0, r0, lr, asr r9
     194:	047d0002 	ldrbteq	r0, [sp], #-2
     198:	0000095e 	andeq	r0, r0, lr, asr r9
     19c:	00000960 	andeq	r0, r0, r0, ror #18
     1a0:	007d0002 	rsbseq	r0, sp, r2
	...
     1ac:	000008f4 	strdeq	r0, [r0], -r4
     1b0:	000008f6 	strdeq	r0, [r0], -r6
     1b4:	007d0002 	rsbseq	r0, sp, r2
     1b8:	000008f6 	strdeq	r0, [r0], -r6
     1bc:	000008f8 	strdeq	r0, [r0], -r8
     1c0:	047d0002 	ldrbteq	r0, [sp], #-2
     1c4:	000008f8 	strdeq	r0, [r0], -r8
     1c8:	000008fa 	strdeq	r0, [r0], -sl
     1cc:	187d0002 	ldmdane	sp!, {r1}^
     1d0:	000008fa 	strdeq	r0, [r0], -sl
     1d4:	00000918 	andeq	r0, r0, r8, lsl r9
     1d8:	18770002 	ldmdane	r7!, {r1}^
     1dc:	00000918 	andeq	r0, r0, r8, lsl r9
     1e0:	0000091a 	andeq	r0, r0, sl, lsl r9
     1e4:	04770002 	ldrbteq	r0, [r7], #-2
     1e8:	0000091a 	andeq	r0, r0, sl, lsl r9
     1ec:	0000091c 	andeq	r0, r0, ip, lsl r9
     1f0:	047d0002 	ldrbteq	r0, [sp], #-2
     1f4:	0000091c 	andeq	r0, r0, ip, lsl r9
     1f8:	0000091e 	andeq	r0, r0, lr, lsl r9
     1fc:	007d0002 	rsbseq	r0, sp, r2
	...
     208:	000008ae 	andeq	r0, r0, lr, lsr #17
     20c:	000008b0 			; <UNDEFINED> instruction: 0x000008b0
     210:	007d0002 	rsbseq	r0, sp, r2
     214:	000008b0 			; <UNDEFINED> instruction: 0x000008b0
     218:	000008b2 			; <UNDEFINED> instruction: 0x000008b2
     21c:	087d0002 	ldmdaeq	sp!, {r1}^
     220:	000008b2 			; <UNDEFINED> instruction: 0x000008b2
     224:	000008b4 			; <UNDEFINED> instruction: 0x000008b4
     228:	187d0002 	ldmdane	sp!, {r1}^
     22c:	000008b4 			; <UNDEFINED> instruction: 0x000008b4
     230:	000008f0 	strdeq	r0, [r0], -r0	; <UNPREDICTABLE>
     234:	18770002 	ldmdane	r7!, {r1}^
     238:	000008f0 	strdeq	r0, [r0], -r0	; <UNPREDICTABLE>
     23c:	000008f2 	strdeq	r0, [r0], -r2
     240:	08770002 	ldmdaeq	r7!, {r1}^
     244:	000008f2 	strdeq	r0, [r0], -r2
     248:	000008f4 	strdeq	r0, [r0], -r4
     24c:	087d0002 	ldmdaeq	sp!, {r1}^
	...
     258:	000007c8 	andeq	r0, r0, r8, asr #15
     25c:	000007ca 	andeq	r0, r0, sl, asr #15
     260:	007d0002 	rsbseq	r0, sp, r2
     264:	000007ca 	andeq	r0, r0, sl, asr #15
     268:	000007cc 	andeq	r0, r0, ip, asr #15
     26c:	087d0002 	ldmdaeq	sp!, {r1}^
     270:	000007cc 	andeq	r0, r0, ip, asr #15
     274:	000007ce 	andeq	r0, r0, lr, asr #15
     278:	207d0002 	rsbscs	r0, sp, r2
     27c:	000007ce 	andeq	r0, r0, lr, asr #15
     280:	000008aa 	andeq	r0, r0, sl, lsr #17
     284:	20770002 	rsbscs	r0, r7, r2
     288:	000008aa 	andeq	r0, r0, sl, lsr #17
     28c:	000008ac 	andeq	r0, r0, ip, lsr #17
     290:	08770002 	ldmdaeq	r7!, {r1}^
     294:	000008ac 	andeq	r0, r0, ip, lsr #17
     298:	000008ae 	andeq	r0, r0, lr, lsr #17
     29c:	087d0002 	ldmdaeq	sp!, {r1}^
	...
     2a8:	00000766 	andeq	r0, r0, r6, ror #14
     2ac:	00000768 	andeq	r0, r0, r8, ror #14
     2b0:	007d0002 	rsbseq	r0, sp, r2
     2b4:	00000768 	andeq	r0, r0, r8, ror #14
     2b8:	0000076a 	andeq	r0, r0, sl, ror #14
     2bc:	047d0002 	ldrbteq	r0, [sp], #-2
     2c0:	0000076a 	andeq	r0, r0, sl, ror #14
     2c4:	0000076c 	andeq	r0, r0, ip, ror #14
     2c8:	287d0002 	ldmdacs	sp!, {r1}^
     2cc:	0000076c 	andeq	r0, r0, ip, ror #14
     2d0:	000007c2 	andeq	r0, r0, r2, asr #15
     2d4:	28770002 	ldmdacs	r7!, {r1}^
     2d8:	000007c2 	andeq	r0, r0, r2, asr #15
     2dc:	000007c4 	andeq	r0, r0, r4, asr #15
     2e0:	04770002 	ldrbteq	r0, [r7], #-2
     2e4:	000007c4 	andeq	r0, r0, r4, asr #15
     2e8:	000007c6 	andeq	r0, r0, r6, asr #15
     2ec:	047d0002 	ldrbteq	r0, [sp], #-2
     2f0:	000007c6 	andeq	r0, r0, r6, asr #15
     2f4:	000007c8 	andeq	r0, r0, r8, asr #15
     2f8:	007d0002 	rsbseq	r0, sp, r2
	...
     304:	00000714 	andeq	r0, r0, r4, lsl r7
     308:	00000716 	andeq	r0, r0, r6, lsl r7
     30c:	007d0002 	rsbseq	r0, sp, r2
     310:	00000716 	andeq	r0, r0, r6, lsl r7
     314:	00000718 	andeq	r0, r0, r8, lsl r7
     318:	047d0002 	ldrbteq	r0, [sp], #-2
     31c:	00000718 	andeq	r0, r0, r8, lsl r7
     320:	0000071a 	andeq	r0, r0, sl, lsl r7
     324:	187d0002 	ldmdane	sp!, {r1}^
     328:	0000071a 	andeq	r0, r0, sl, lsl r7
     32c:	00000760 	andeq	r0, r0, r0, ror #14
     330:	18770002 	ldmdane	r7!, {r1}^
     334:	00000760 	andeq	r0, r0, r0, ror #14
     338:	00000762 	andeq	r0, r0, r2, ror #14
     33c:	04770002 	ldrbteq	r0, [r7], #-2
     340:	00000762 	andeq	r0, r0, r2, ror #14
     344:	00000764 	andeq	r0, r0, r4, ror #14
     348:	047d0002 	ldrbteq	r0, [sp], #-2
     34c:	00000764 	andeq	r0, r0, r4, ror #14
     350:	00000766 	andeq	r0, r0, r6, ror #14
     354:	007d0002 	rsbseq	r0, sp, r2
	...
     360:	000006b4 			; <UNDEFINED> instruction: 0x000006b4
     364:	000006b6 			; <UNDEFINED> instruction: 0x000006b6
     368:	007d0002 	rsbseq	r0, sp, r2
     36c:	000006b6 			; <UNDEFINED> instruction: 0x000006b6
     370:	000006b8 			; <UNDEFINED> instruction: 0x000006b8
     374:	047d0002 	ldrbteq	r0, [sp], #-2
     378:	000006b8 			; <UNDEFINED> instruction: 0x000006b8
     37c:	000006ba 			; <UNDEFINED> instruction: 0x000006ba
     380:	287d0002 	ldmdacs	sp!, {r1}^
     384:	000006ba 			; <UNDEFINED> instruction: 0x000006ba
     388:	0000070e 	andeq	r0, r0, lr, lsl #14
     38c:	28770002 	ldmdacs	r7!, {r1}^
     390:	0000070e 	andeq	r0, r0, lr, lsl #14
     394:	00000710 	andeq	r0, r0, r0, lsl r7
     398:	04770002 	ldrbteq	r0, [r7], #-2
     39c:	00000710 	andeq	r0, r0, r0, lsl r7
     3a0:	00000712 	andeq	r0, r0, r2, lsl r7
     3a4:	047d0002 	ldrbteq	r0, [sp], #-2
     3a8:	00000712 	andeq	r0, r0, r2, lsl r7
     3ac:	00000714 	andeq	r0, r0, r4, lsl r7
     3b0:	007d0002 	rsbseq	r0, sp, r2
	...
     3bc:	0000066c 	andeq	r0, r0, ip, ror #12
     3c0:	0000066e 	andeq	r0, r0, lr, ror #12
     3c4:	007d0002 	rsbseq	r0, sp, r2
     3c8:	0000066e 	andeq	r0, r0, lr, ror #12
     3cc:	00000670 	andeq	r0, r0, r0, ror r6
     3d0:	047d0002 	ldrbteq	r0, [sp], #-2
     3d4:	00000670 	andeq	r0, r0, r0, ror r6
     3d8:	00000672 	andeq	r0, r0, r2, ror r6
     3dc:	287d0002 	ldmdacs	sp!, {r1}^
     3e0:	00000672 	andeq	r0, r0, r2, ror r6
     3e4:	000006ae 	andeq	r0, r0, lr, lsr #13
     3e8:	28770002 	ldmdacs	r7!, {r1}^
     3ec:	000006ae 	andeq	r0, r0, lr, lsr #13
     3f0:	000006b0 			; <UNDEFINED> instruction: 0x000006b0
     3f4:	04770002 	ldrbteq	r0, [r7], #-2
     3f8:	000006b0 			; <UNDEFINED> instruction: 0x000006b0
     3fc:	000006b2 			; <UNDEFINED> instruction: 0x000006b2
     400:	047d0002 	ldrbteq	r0, [sp], #-2
     404:	000006b2 			; <UNDEFINED> instruction: 0x000006b2
     408:	000006b4 			; <UNDEFINED> instruction: 0x000006b4
     40c:	007d0002 	rsbseq	r0, sp, r2
	...
     418:	0000062c 	andeq	r0, r0, ip, lsr #12
     41c:	0000062e 	andeq	r0, r0, lr, lsr #12
     420:	007d0002 	rsbseq	r0, sp, r2
     424:	0000062e 	andeq	r0, r0, lr, lsr #12
     428:	00000630 	andeq	r0, r0, r0, lsr r6
     42c:	047d0002 	ldrbteq	r0, [sp], #-2
     430:	00000630 	andeq	r0, r0, r0, lsr r6
     434:	00000632 	andeq	r0, r0, r2, lsr r6
     438:	207d0002 	rsbscs	r0, sp, r2
     43c:	00000632 	andeq	r0, r0, r2, lsr r6
     440:	00000666 	andeq	r0, r0, r6, ror #12
     444:	20770002 	rsbscs	r0, r7, r2
     448:	00000666 	andeq	r0, r0, r6, ror #12
     44c:	00000668 	andeq	r0, r0, r8, ror #12
     450:	04770002 	ldrbteq	r0, [r7], #-2
     454:	00000668 	andeq	r0, r0, r8, ror #12
     458:	0000066a 	andeq	r0, r0, sl, ror #12
     45c:	047d0002 	ldrbteq	r0, [sp], #-2
     460:	0000066a 	andeq	r0, r0, sl, ror #12
     464:	0000066c 	andeq	r0, r0, ip, ror #12
     468:	007d0002 	rsbseq	r0, sp, r2
	...
     474:	000004a8 	andeq	r0, r0, r8, lsr #9
     478:	000004aa 	andeq	r0, r0, sl, lsr #9
     47c:	007d0002 	rsbseq	r0, sp, r2
     480:	000004aa 	andeq	r0, r0, sl, lsr #9
     484:	000004ac 	andeq	r0, r0, ip, lsr #9
     488:	107d0002 	rsbsne	r0, sp, r2
     48c:	000004ac 	andeq	r0, r0, ip, lsr #9
     490:	000004ae 	andeq	r0, r0, lr, lsr #9
     494:	187d0002 	ldmdane	sp!, {r1}^
     498:	000004ae 	andeq	r0, r0, lr, lsr #9
     49c:	000004b0 			; <UNDEFINED> instruction: 0x000004b0
     4a0:	287d0002 	ldmdacs	sp!, {r1}^
     4a4:	000004b0 			; <UNDEFINED> instruction: 0x000004b0
     4a8:	00000622 	andeq	r0, r0, r2, lsr #12
     4ac:	28770002 	ldmdacs	r7!, {r1}^
     4b0:	00000622 	andeq	r0, r0, r2, lsr #12
     4b4:	00000624 	andeq	r0, r0, r4, lsr #12
     4b8:	18770002 	ldmdane	r7!, {r1}^
     4bc:	00000624 	andeq	r0, r0, r4, lsr #12
     4c0:	00000628 	andeq	r0, r0, r8, lsr #12
     4c4:	187d0002 	ldmdane	sp!, {r1}^
     4c8:	00000628 	andeq	r0, r0, r8, lsr #12
     4cc:	0000062a 	andeq	r0, r0, sl, lsr #12
     4d0:	107d0002 	rsbsne	r0, sp, r2
     4d4:	0000062a 	andeq	r0, r0, sl, lsr #12
     4d8:	0000062c 	andeq	r0, r0, ip, lsr #12
     4dc:	007d0002 	rsbseq	r0, sp, r2
	...
     4e8:	00000498 	muleq	r0, r8, r4
     4ec:	0000049a 	muleq	r0, sl, r4
     4f0:	007d0002 	rsbseq	r0, sp, r2
     4f4:	0000049a 	muleq	r0, sl, r4
     4f8:	0000049c 	muleq	r0, ip, r4
     4fc:	107d0002 	rsbsne	r0, sp, r2
     500:	0000049c 	muleq	r0, ip, r4
     504:	0000049e 	muleq	r0, lr, r4
     508:	147d0002 	ldrbtne	r0, [sp], #-2
     50c:	0000049e 	muleq	r0, lr, r4
     510:	000004a2 	andeq	r0, r0, r2, lsr #9
     514:	14770002 	ldrbtne	r0, [r7], #-2
     518:	000004a2 	andeq	r0, r0, r2, lsr #9
     51c:	000004a4 	andeq	r0, r0, r4, lsr #9
     520:	147d0002 	ldrbtne	r0, [sp], #-2
     524:	000004a4 	andeq	r0, r0, r4, lsr #9
     528:	000004a6 	andeq	r0, r0, r6, lsr #9
     52c:	107d0002 	rsbsne	r0, sp, r2
     530:	000004a6 	andeq	r0, r0, r6, lsr #9
     534:	000004a8 	andeq	r0, r0, r8, lsr #9
     538:	007d0002 	rsbseq	r0, sp, r2
	...
     544:	00000228 	andeq	r0, r0, r8, lsr #4
     548:	0000022a 	andeq	r0, r0, sl, lsr #4
     54c:	007d0002 	rsbseq	r0, sp, r2
     550:	0000022a 	andeq	r0, r0, sl, lsr #4
     554:	0000022c 	andeq	r0, r0, ip, lsr #4
     558:	087d0002 	ldmdaeq	sp!, {r1}^
     55c:	0000022c 	andeq	r0, r0, ip, lsr #4
     560:	0000022e 	andeq	r0, r0, lr, lsr #4
     564:	207d0002 	rsbscs	r0, sp, r2
     568:	0000022e 	andeq	r0, r0, lr, lsr #4
     56c:	0000048c 	andeq	r0, r0, ip, lsl #9
     570:	20770002 	rsbscs	r0, r7, r2
     574:	0000048c 	andeq	r0, r0, ip, lsl #9
     578:	0000048e 	andeq	r0, r0, lr, lsl #9
     57c:	08770002 	ldmdaeq	r7!, {r1}^
     580:	0000048e 	andeq	r0, r0, lr, lsl #9
     584:	00000498 	muleq	r0, r8, r4
     588:	087d0002 	ldmdaeq	sp!, {r1}^
	...
     594:	000001b4 			; <UNDEFINED> instruction: 0x000001b4
     598:	000001b6 			; <UNDEFINED> instruction: 0x000001b6
     59c:	007d0002 	rsbseq	r0, sp, r2
     5a0:	000001b6 			; <UNDEFINED> instruction: 0x000001b6
     5a4:	000001b8 			; <UNDEFINED> instruction: 0x000001b8
     5a8:	087d0002 	ldmdaeq	sp!, {r1}^
     5ac:	000001b8 			; <UNDEFINED> instruction: 0x000001b8
     5b0:	000001ba 			; <UNDEFINED> instruction: 0x000001ba
     5b4:	187d0002 	ldmdane	sp!, {r1}^
     5b8:	000001ba 			; <UNDEFINED> instruction: 0x000001ba
     5bc:	0000021e 	andeq	r0, r0, lr, lsl r2
     5c0:	18770002 	ldmdane	r7!, {r1}^
     5c4:	0000021e 	andeq	r0, r0, lr, lsl r2
     5c8:	00000220 	andeq	r0, r0, r0, lsr #4
     5cc:	08770002 	ldmdaeq	r7!, {r1}^
     5d0:	00000220 	andeq	r0, r0, r0, lsr #4
     5d4:	00000228 	andeq	r0, r0, r8, lsr #4
     5d8:	087d0002 	ldmdaeq	sp!, {r1}^
	...
     5e4:	00000140 	andeq	r0, r0, r0, asr #2
     5e8:	00000142 	andeq	r0, r0, r2, asr #2
     5ec:	007d0002 	rsbseq	r0, sp, r2
     5f0:	00000142 	andeq	r0, r0, r2, asr #2
     5f4:	00000144 	andeq	r0, r0, r4, asr #2
     5f8:	087d0002 	ldmdaeq	sp!, {r1}^
     5fc:	00000144 	andeq	r0, r0, r4, asr #2
     600:	00000146 	andeq	r0, r0, r6, asr #2
     604:	187d0002 	ldmdane	sp!, {r1}^
     608:	00000146 	andeq	r0, r0, r6, asr #2
     60c:	000001aa 	andeq	r0, r0, sl, lsr #3
     610:	18770002 	ldmdane	r7!, {r1}^
     614:	000001aa 	andeq	r0, r0, sl, lsr #3
     618:	000001ac 	andeq	r0, r0, ip, lsr #3
     61c:	08770002 	ldmdaeq	r7!, {r1}^
     620:	000001ac 	andeq	r0, r0, ip, lsr #3
     624:	000001b4 			; <UNDEFINED> instruction: 0x000001b4
     628:	087d0002 	ldmdaeq	sp!, {r1}^
	...
     634:	0000010e 	andeq	r0, r0, lr, lsl #2
     638:	00000110 	andeq	r0, r0, r0, lsl r1
     63c:	007d0002 	rsbseq	r0, sp, r2
     640:	00000110 	andeq	r0, r0, r0, lsl r1
     644:	00000112 	andeq	r0, r0, r2, lsl r1
     648:	087d0002 	ldmdaeq	sp!, {r1}^
     64c:	00000112 	andeq	r0, r0, r2, lsl r1
     650:	00000114 	andeq	r0, r0, r4, lsl r1
     654:	107d0002 	rsbsne	r0, sp, r2
     658:	00000114 	andeq	r0, r0, r4, lsl r1
     65c:	0000013c 	andeq	r0, r0, ip, lsr r1
     660:	10770002 	rsbsne	r0, r7, r2
     664:	0000013c 	andeq	r0, r0, ip, lsr r1
     668:	0000013e 	andeq	r0, r0, lr, lsr r1
     66c:	08770002 	ldmdaeq	r7!, {r1}^
     670:	0000013e 	andeq	r0, r0, lr, lsr r1
     674:	00000140 	andeq	r0, r0, r0, asr #2
     678:	087d0002 	ldmdaeq	sp!, {r1}^
	...
     684:	000000d4 	ldrdeq	r0, [r0], -r4
     688:	000000d6 	ldrdeq	r0, [r0], -r6
     68c:	007d0002 	rsbseq	r0, sp, r2
     690:	000000d6 	ldrdeq	r0, [r0], -r6
     694:	000000d8 	ldrdeq	r0, [r0], -r8
     698:	087d0002 	ldmdaeq	sp!, {r1}^
     69c:	000000d8 	ldrdeq	r0, [r0], -r8
     6a0:	000000da 	ldrdeq	r0, [r0], -sl
     6a4:	187d0002 	ldmdane	sp!, {r1}^
     6a8:	000000da 	ldrdeq	r0, [r0], -sl
     6ac:	0000010a 	andeq	r0, r0, sl, lsl #2
     6b0:	18770002 	ldmdane	r7!, {r1}^
     6b4:	0000010a 	andeq	r0, r0, sl, lsl #2
     6b8:	0000010c 	andeq	r0, r0, ip, lsl #2
     6bc:	08770002 	ldmdaeq	r7!, {r1}^
     6c0:	0000010c 	andeq	r0, r0, ip, lsl #2
     6c4:	0000010e 	andeq	r0, r0, lr, lsl #2
     6c8:	087d0002 	ldmdaeq	sp!, {r1}^
	...
     6d4:	00000096 	muleq	r0, r6, r0
     6d8:	00000098 	muleq	r0, r8, r0
     6dc:	007d0002 	rsbseq	r0, sp, r2
     6e0:	00000098 	muleq	r0, r8, r0
     6e4:	0000009a 	muleq	r0, sl, r0
     6e8:	047d0002 	ldrbteq	r0, [sp], #-2
     6ec:	0000009a 	muleq	r0, sl, r0
     6f0:	0000009c 	muleq	r0, ip, r0
     6f4:	107d0002 	rsbsne	r0, sp, r2
     6f8:	0000009c 	muleq	r0, ip, r0
     6fc:	000000ce 	andeq	r0, r0, lr, asr #1
     700:	10770002 	rsbsne	r0, r7, r2
     704:	000000ce 	andeq	r0, r0, lr, asr #1
     708:	000000d0 	ldrdeq	r0, [r0], -r0	; <UNPREDICTABLE>
     70c:	04770002 	ldrbteq	r0, [r7], #-2
     710:	000000d0 	ldrdeq	r0, [r0], -r0	; <UNPREDICTABLE>
     714:	000000d2 	ldrdeq	r0, [r0], -r2
     718:	047d0002 	ldrbteq	r0, [sp], #-2
     71c:	000000d2 	ldrdeq	r0, [r0], -r2
     720:	000000d4 	ldrdeq	r0, [r0], -r4
     724:	007d0002 	rsbseq	r0, sp, r2
	...
     730:	00000064 	andeq	r0, r0, r4, rrx
     734:	00000066 	andeq	r0, r0, r6, rrx
     738:	007d0002 	rsbseq	r0, sp, r2
     73c:	00000066 	andeq	r0, r0, r6, rrx
     740:	00000068 	andeq	r0, r0, r8, rrx
     744:	047d0002 	ldrbteq	r0, [sp], #-2
     748:	00000068 	andeq	r0, r0, r8, rrx
     74c:	0000006a 	andeq	r0, r0, sl, rrx
     750:	107d0002 	rsbsne	r0, sp, r2
     754:	0000006a 	andeq	r0, r0, sl, rrx
     758:	00000090 	muleq	r0, r0, r0
     75c:	10770002 	rsbsne	r0, r7, r2
     760:	00000090 	muleq	r0, r0, r0
     764:	00000092 	muleq	r0, r2, r0
     768:	04770002 	ldrbteq	r0, [r7], #-2
     76c:	00000092 	muleq	r0, r2, r0
     770:	00000094 	muleq	r0, r4, r0
     774:	047d0002 	ldrbteq	r0, [sp], #-2
     778:	00000094 	muleq	r0, r4, r0
     77c:	00000096 	muleq	r0, r6, r0
     780:	007d0002 	rsbseq	r0, sp, r2
	...
     78c:	00000024 	andeq	r0, r0, r4, lsr #32
     790:	00000026 	andeq	r0, r0, r6, lsr #32
     794:	007d0002 	rsbseq	r0, sp, r2
     798:	00000026 	andeq	r0, r0, r6, lsr #32
     79c:	00000028 	andeq	r0, r0, r8, lsr #32
     7a0:	047d0002 	ldrbteq	r0, [sp], #-2
     7a4:	00000028 	andeq	r0, r0, r8, lsr #32
     7a8:	0000002a 	andeq	r0, r0, sl, lsr #32
     7ac:	187d0002 	ldmdane	sp!, {r1}^
     7b0:	0000002a 	andeq	r0, r0, sl, lsr #32
     7b4:	00000058 	andeq	r0, r0, r8, asr r0
     7b8:	18770002 	ldmdane	r7!, {r1}^
     7bc:	00000058 	andeq	r0, r0, r8, asr r0
     7c0:	0000005a 	andeq	r0, r0, sl, asr r0
     7c4:	04770002 	ldrbteq	r0, [r7], #-2
     7c8:	0000005a 	andeq	r0, r0, sl, asr r0
     7cc:	0000005c 	andeq	r0, r0, ip, asr r0
     7d0:	047d0002 	ldrbteq	r0, [sp], #-2
     7d4:	0000005c 	andeq	r0, r0, ip, asr r0
     7d8:	00000064 	andeq	r0, r0, r4, rrx
     7dc:	007d0002 	rsbseq	r0, sp, r2
	...
     7ec:	00000002 	andeq	r0, r0, r2
     7f0:	007d0002 	rsbseq	r0, sp, r2
     7f4:	00000002 	andeq	r0, r0, r2
     7f8:	00000004 	andeq	r0, r0, r4
     7fc:	047d0002 	ldrbteq	r0, [sp], #-2
     800:	00000004 	andeq	r0, r0, r4
     804:	00000006 	andeq	r0, r0, r6
     808:	107d0002 	rsbsne	r0, sp, r2
     80c:	00000006 	andeq	r0, r0, r6
     810:	00000018 	andeq	r0, r0, r8, lsl r0
     814:	10770002 	rsbsne	r0, r7, r2
     818:	00000018 	andeq	r0, r0, r8, lsl r0
     81c:	0000001a 	andeq	r0, r0, sl, lsl r0
     820:	04770002 	ldrbteq	r0, [r7], #-2
     824:	0000001a 	andeq	r0, r0, sl, lsl r0
     828:	0000001c 	andeq	r0, r0, ip, lsl r0
     82c:	047d0002 	ldrbteq	r0, [sp], #-2
     830:	0000001c 	andeq	r0, r0, ip, lsl r0
     834:	00000024 	andeq	r0, r0, r4, lsr #32
     838:	007d0002 	rsbseq	r0, sp, r2
	...
     844:	0000085a 	andeq	r0, r0, sl, asr r8
     848:	0000085c 	andeq	r0, r0, ip, asr r8
     84c:	007d0002 	rsbseq	r0, sp, r2
     850:	0000085c 	andeq	r0, r0, ip, asr r8
     854:	0000085e 	andeq	r0, r0, lr, asr r8
     858:	087d0002 	ldmdaeq	sp!, {r1}^
     85c:	0000085e 	andeq	r0, r0, lr, asr r8
     860:	00000860 	andeq	r0, r0, r0, ror #16
     864:	107d0002 	rsbsne	r0, sp, r2
     868:	00000860 	andeq	r0, r0, r0, ror #16
     86c:	0000089c 	muleq	r0, ip, r8
     870:	10770002 	rsbsne	r0, r7, r2
     874:	0000089c 	muleq	r0, ip, r8
     878:	0000089e 	muleq	r0, lr, r8
     87c:	08770002 	ldmdaeq	r7!, {r1}^
     880:	0000089e 	muleq	r0, lr, r8
     884:	000008b4 			; <UNDEFINED> instruction: 0x000008b4
     888:	087d0002 	ldmdaeq	sp!, {r1}^
	...
     894:	00000814 	andeq	r0, r0, r4, lsl r8
     898:	00000816 	andeq	r0, r0, r6, lsl r8
     89c:	007d0002 	rsbseq	r0, sp, r2
     8a0:	00000816 	andeq	r0, r0, r6, lsl r8
     8a4:	00000818 	andeq	r0, r0, r8, lsl r8
     8a8:	087d0002 	ldmdaeq	sp!, {r1}^
     8ac:	00000818 	andeq	r0, r0, r8, lsl r8
     8b0:	0000081a 	andeq	r0, r0, sl, lsl r8
     8b4:	187d0002 	ldmdane	sp!, {r1}^
     8b8:	0000081a 	andeq	r0, r0, sl, lsl r8
     8bc:	00000856 	andeq	r0, r0, r6, asr r8
     8c0:	18770002 	ldmdane	r7!, {r1}^
     8c4:	00000856 	andeq	r0, r0, r6, asr r8
     8c8:	00000858 	andeq	r0, r0, r8, asr r8
     8cc:	08770002 	ldmdaeq	r7!, {r1}^
     8d0:	00000858 	andeq	r0, r0, r8, asr r8
     8d4:	0000085a 	andeq	r0, r0, sl, asr r8
     8d8:	087d0002 	ldmdaeq	sp!, {r1}^
	...
     8e4:	000007c8 	andeq	r0, r0, r8, asr #15
     8e8:	000007ca 	andeq	r0, r0, sl, asr #15
     8ec:	007d0002 	rsbseq	r0, sp, r2
     8f0:	000007ca 	andeq	r0, r0, sl, asr #15
     8f4:	000007cc 	andeq	r0, r0, ip, asr #15
     8f8:	087d0002 	ldmdaeq	sp!, {r1}^
     8fc:	000007cc 	andeq	r0, r0, ip, asr #15
     900:	000007ce 	andeq	r0, r0, lr, asr #15
     904:	107d0002 	rsbsne	r0, sp, r2
     908:	000007ce 	andeq	r0, r0, lr, asr #15
     90c:	0000080a 	andeq	r0, r0, sl, lsl #16
     910:	10770002 	rsbsne	r0, r7, r2
     914:	0000080a 	andeq	r0, r0, sl, lsl #16
     918:	0000080c 	andeq	r0, r0, ip, lsl #16
     91c:	08770002 	ldmdaeq	r7!, {r1}^
     920:	0000080c 	andeq	r0, r0, ip, lsl #16
     924:	00000814 	andeq	r0, r0, r4, lsl r8
     928:	087d0002 	ldmdaeq	sp!, {r1}^
	...
     934:	0000079c 	muleq	r0, ip, r7
     938:	0000079e 	muleq	r0, lr, r7
     93c:	007d0002 	rsbseq	r0, sp, r2
     940:	0000079e 	muleq	r0, lr, r7
     944:	000007a0 	andeq	r0, r0, r0, lsr #15
     948:	087d0002 	ldmdaeq	sp!, {r1}^
     94c:	000007a0 	andeq	r0, r0, r0, lsr #15
     950:	000007a2 	andeq	r0, r0, r2, lsr #15
     954:	107d0002 	rsbsne	r0, sp, r2
     958:	000007a2 	andeq	r0, r0, r2, lsr #15
     95c:	000007be 			; <UNDEFINED> instruction: 0x000007be
     960:	10770002 	rsbsne	r0, r7, r2
     964:	000007be 			; <UNDEFINED> instruction: 0x000007be
     968:	000007c0 	andeq	r0, r0, r0, asr #15
     96c:	08770002 	ldmdaeq	r7!, {r1}^
     970:	000007c0 	andeq	r0, r0, r0, asr #15
     974:	000007c8 	andeq	r0, r0, r8, asr #15
     978:	087d0002 	ldmdaeq	sp!, {r1}^
	...
     984:	00000778 	andeq	r0, r0, r8, ror r7
     988:	0000077a 	andeq	r0, r0, sl, ror r7
     98c:	007d0002 	rsbseq	r0, sp, r2
     990:	0000077a 	andeq	r0, r0, sl, ror r7
     994:	0000077c 	andeq	r0, r0, ip, ror r7
     998:	087d0002 	ldmdaeq	sp!, {r1}^
     99c:	0000077c 	andeq	r0, r0, ip, ror r7
     9a0:	0000077e 	andeq	r0, r0, lr, ror r7
     9a4:	187d0002 	ldmdane	sp!, {r1}^
     9a8:	0000077e 	andeq	r0, r0, lr, ror r7
     9ac:	00000798 	muleq	r0, r8, r7
     9b0:	18770002 	ldmdane	r7!, {r1}^
     9b4:	00000798 	muleq	r0, r8, r7
     9b8:	0000079a 	muleq	r0, sl, r7
     9bc:	08770002 	ldmdaeq	r7!, {r1}^
     9c0:	0000079a 	muleq	r0, sl, r7
     9c4:	0000079c 	muleq	r0, ip, r7
     9c8:	087d0002 	ldmdaeq	sp!, {r1}^
	...
     9d4:	0000070e 	andeq	r0, r0, lr, lsl #14
     9d8:	00000710 	andeq	r0, r0, r0, lsl r7
     9dc:	007d0002 	rsbseq	r0, sp, r2
     9e0:	00000710 	andeq	r0, r0, r0, lsl r7
     9e4:	00000712 	andeq	r0, r0, r2, lsl r7
     9e8:	087d0002 	ldmdaeq	sp!, {r1}^
     9ec:	00000712 	andeq	r0, r0, r2, lsl r7
     9f0:	00000714 	andeq	r0, r0, r4, lsl r7
     9f4:	187d0002 	ldmdane	sp!, {r1}^
     9f8:	00000714 	andeq	r0, r0, r4, lsl r7
     9fc:	0000076e 	andeq	r0, r0, lr, ror #14
     a00:	18770002 	ldmdane	r7!, {r1}^
     a04:	0000076e 	andeq	r0, r0, lr, ror #14
     a08:	00000770 	andeq	r0, r0, r0, ror r7
     a0c:	08770002 	ldmdaeq	r7!, {r1}^
     a10:	00000770 	andeq	r0, r0, r0, ror r7
     a14:	00000778 	andeq	r0, r0, r8, ror r7
     a18:	087d0002 	ldmdaeq	sp!, {r1}^
	...
     a24:	000006ec 	andeq	r0, r0, ip, ror #13
     a28:	000006ee 	andeq	r0, r0, lr, ror #13
     a2c:	007d0002 	rsbseq	r0, sp, r2
     a30:	000006ee 	andeq	r0, r0, lr, ror #13
     a34:	000006f0 	strdeq	r0, [r0], -r0	; <UNPREDICTABLE>
     a38:	047d0002 	ldrbteq	r0, [sp], #-2
     a3c:	000006f0 	strdeq	r0, [r0], -r0	; <UNPREDICTABLE>
     a40:	000006f2 	strdeq	r0, [r0], -r2
     a44:	187d0002 	ldmdane	sp!, {r1}^
     a48:	000006f2 	strdeq	r0, [r0], -r2
     a4c:	00000708 	andeq	r0, r0, r8, lsl #14
     a50:	18770002 	ldmdane	r7!, {r1}^
     a54:	00000708 	andeq	r0, r0, r8, lsl #14
     a58:	0000070a 	andeq	r0, r0, sl, lsl #14
     a5c:	04770002 	ldrbteq	r0, [r7], #-2
     a60:	0000070a 	andeq	r0, r0, sl, lsl #14
     a64:	0000070c 	andeq	r0, r0, ip, lsl #14
     a68:	047d0002 	ldrbteq	r0, [sp], #-2
     a6c:	0000070c 	andeq	r0, r0, ip, lsl #14
     a70:	0000070e 	andeq	r0, r0, lr, lsl #14
     a74:	007d0002 	rsbseq	r0, sp, r2
	...
     a80:	000006cc 	andeq	r0, r0, ip, asr #13
     a84:	000006ce 	andeq	r0, r0, lr, asr #13
     a88:	007d0002 	rsbseq	r0, sp, r2
     a8c:	000006ce 	andeq	r0, r0, lr, asr #13
     a90:	000006d0 	ldrdeq	r0, [r0], -r0	; <UNPREDICTABLE>
     a94:	087d0002 	ldmdaeq	sp!, {r1}^
     a98:	000006d0 	ldrdeq	r0, [r0], -r0	; <UNPREDICTABLE>
     a9c:	000006d2 	ldrdeq	r0, [r0], -r2
     aa0:	107d0002 	rsbsne	r0, sp, r2
     aa4:	000006d2 	ldrdeq	r0, [r0], -r2
     aa8:	000006e4 	andeq	r0, r0, r4, ror #13
     aac:	10770002 	rsbsne	r0, r7, r2
     ab0:	000006e4 	andeq	r0, r0, r4, ror #13
     ab4:	000006e6 	andeq	r0, r0, r6, ror #13
     ab8:	08770002 	ldmdaeq	r7!, {r1}^
     abc:	000006e6 	andeq	r0, r0, r6, ror #13
     ac0:	000006ec 	andeq	r0, r0, ip, ror #13
     ac4:	087d0002 	ldmdaeq	sp!, {r1}^
	...
     ad0:	00000670 	andeq	r0, r0, r0, ror r6
     ad4:	00000672 	andeq	r0, r0, r2, ror r6
     ad8:	007d0002 	rsbseq	r0, sp, r2
     adc:	00000672 	andeq	r0, r0, r2, ror r6
     ae0:	00000674 	andeq	r0, r0, r4, ror r6
     ae4:	087d0002 	ldmdaeq	sp!, {r1}^
     ae8:	00000674 	andeq	r0, r0, r4, ror r6
     aec:	00000676 	andeq	r0, r0, r6, ror r6
     af0:	107d0002 	rsbsne	r0, sp, r2
     af4:	00000676 	andeq	r0, r0, r6, ror r6
     af8:	000006c0 	andeq	r0, r0, r0, asr #13
     afc:	10770002 	rsbsne	r0, r7, r2
     b00:	000006c0 	andeq	r0, r0, r0, asr #13
     b04:	000006c2 	andeq	r0, r0, r2, asr #13
     b08:	08770002 	ldmdaeq	r7!, {r1}^
     b0c:	000006c2 	andeq	r0, r0, r2, asr #13
     b10:	000006cc 	andeq	r0, r0, ip, asr #13
     b14:	087d0002 	ldmdaeq	sp!, {r1}^
	...
     b20:	00000620 	andeq	r0, r0, r0, lsr #12
     b24:	00000622 	andeq	r0, r0, r2, lsr #12
     b28:	007d0002 	rsbseq	r0, sp, r2
     b2c:	00000622 	andeq	r0, r0, r2, lsr #12
     b30:	00000624 	andeq	r0, r0, r4, lsr #12
     b34:	087d0002 	ldmdaeq	sp!, {r1}^
     b38:	00000624 	andeq	r0, r0, r4, lsr #12
     b3c:	00000626 	andeq	r0, r0, r6, lsr #12
     b40:	187d0002 	ldmdane	sp!, {r1}^
     b44:	00000626 	andeq	r0, r0, r6, lsr #12
     b48:	0000066c 	andeq	r0, r0, ip, ror #12
     b4c:	18770002 	ldmdane	r7!, {r1}^
     b50:	0000066c 	andeq	r0, r0, ip, ror #12
     b54:	0000066e 	andeq	r0, r0, lr, ror #12
     b58:	08770002 	ldmdaeq	r7!, {r1}^
     b5c:	0000066e 	andeq	r0, r0, lr, ror #12
     b60:	00000670 	andeq	r0, r0, r0, ror r6
     b64:	087d0002 	ldmdaeq	sp!, {r1}^
	...
     b70:	000005c4 	andeq	r0, r0, r4, asr #11
     b74:	000005c6 	andeq	r0, r0, r6, asr #11
     b78:	007d0002 	rsbseq	r0, sp, r2
     b7c:	000005c6 	andeq	r0, r0, r6, asr #11
     b80:	000005c8 	andeq	r0, r0, r8, asr #11
     b84:	087d0002 	ldmdaeq	sp!, {r1}^
     b88:	000005c8 	andeq	r0, r0, r8, asr #11
     b8c:	000005ca 	andeq	r0, r0, sl, asr #11
     b90:	187d0002 	ldmdane	sp!, {r1}^
     b94:	000005ca 	andeq	r0, r0, sl, asr #11
     b98:	00000616 	andeq	r0, r0, r6, lsl r6
     b9c:	18770002 	ldmdane	r7!, {r1}^
     ba0:	00000616 	andeq	r0, r0, r6, lsl r6
     ba4:	00000618 	andeq	r0, r0, r8, lsl r6
     ba8:	08770002 	ldmdaeq	r7!, {r1}^
     bac:	00000618 	andeq	r0, r0, r8, lsl r6
     bb0:	00000620 	andeq	r0, r0, r0, lsr #12
     bb4:	087d0002 	ldmdaeq	sp!, {r1}^
	...
     bc0:	00000598 	muleq	r0, r8, r5
     bc4:	0000059a 	muleq	r0, sl, r5
     bc8:	007d0002 	rsbseq	r0, sp, r2
     bcc:	0000059a 	muleq	r0, sl, r5
     bd0:	0000059c 	muleq	r0, ip, r5
     bd4:	087d0002 	ldmdaeq	sp!, {r1}^
     bd8:	0000059c 	muleq	r0, ip, r5
     bdc:	0000059e 	muleq	r0, lr, r5
     be0:	107d0002 	rsbsne	r0, sp, r2
     be4:	0000059e 	muleq	r0, lr, r5
     be8:	000005bc 			; <UNDEFINED> instruction: 0x000005bc
     bec:	10770002 	rsbsne	r0, r7, r2
     bf0:	000005bc 			; <UNDEFINED> instruction: 0x000005bc
     bf4:	000005be 			; <UNDEFINED> instruction: 0x000005be
     bf8:	08770002 	ldmdaeq	r7!, {r1}^
     bfc:	000005be 			; <UNDEFINED> instruction: 0x000005be
     c00:	000005c4 	andeq	r0, r0, r4, asr #11
     c04:	087d0002 	ldmdaeq	sp!, {r1}^
	...
     c10:	00000564 	andeq	r0, r0, r4, ror #10
     c14:	00000566 	andeq	r0, r0, r6, ror #10
     c18:	007d0002 	rsbseq	r0, sp, r2
     c1c:	00000566 	andeq	r0, r0, r6, ror #10
     c20:	00000568 	andeq	r0, r0, r8, ror #10
     c24:	087d0002 	ldmdaeq	sp!, {r1}^
     c28:	00000568 	andeq	r0, r0, r8, ror #10
     c2c:	0000056a 	andeq	r0, r0, sl, ror #10
     c30:	107d0002 	rsbsne	r0, sp, r2
     c34:	0000056a 	andeq	r0, r0, sl, ror #10
     c38:	00000590 	muleq	r0, r0, r5
     c3c:	10770002 	rsbsne	r0, r7, r2
     c40:	00000590 	muleq	r0, r0, r5
     c44:	00000592 	muleq	r0, r2, r5
     c48:	08770002 	ldmdaeq	r7!, {r1}^
     c4c:	00000592 	muleq	r0, r2, r5
     c50:	00000598 	muleq	r0, r8, r5
     c54:	087d0002 	ldmdaeq	sp!, {r1}^
	...
     c60:	00000508 	andeq	r0, r0, r8, lsl #10
     c64:	0000050a 	andeq	r0, r0, sl, lsl #10
     c68:	007d0002 	rsbseq	r0, sp, r2
     c6c:	0000050a 	andeq	r0, r0, sl, lsl #10
     c70:	0000050c 	andeq	r0, r0, ip, lsl #10
     c74:	087d0002 	ldmdaeq	sp!, {r1}^
     c78:	0000050c 	andeq	r0, r0, ip, lsl #10
     c7c:	0000050e 	andeq	r0, r0, lr, lsl #10
     c80:	107d0002 	rsbsne	r0, sp, r2
     c84:	0000050e 	andeq	r0, r0, lr, lsl #10
     c88:	00000558 	andeq	r0, r0, r8, asr r5
     c8c:	10770002 	rsbsne	r0, r7, r2
     c90:	00000558 	andeq	r0, r0, r8, asr r5
     c94:	0000055a 	andeq	r0, r0, sl, asr r5
     c98:	08770002 	ldmdaeq	r7!, {r1}^
     c9c:	0000055a 	andeq	r0, r0, sl, asr r5
     ca0:	00000564 	andeq	r0, r0, r4, ror #10
     ca4:	087d0002 	ldmdaeq	sp!, {r1}^
	...
     cb0:	000004c8 	andeq	r0, r0, r8, asr #9
     cb4:	000004ca 	andeq	r0, r0, sl, asr #9
     cb8:	007d0002 	rsbseq	r0, sp, r2
     cbc:	000004ca 	andeq	r0, r0, sl, asr #9
     cc0:	000004cc 	andeq	r0, r0, ip, asr #9
     cc4:	087d0002 	ldmdaeq	sp!, {r1}^
     cc8:	000004cc 	andeq	r0, r0, ip, asr #9
     ccc:	000004ce 	andeq	r0, r0, lr, asr #9
     cd0:	107d0002 	rsbsne	r0, sp, r2
     cd4:	000004ce 	andeq	r0, r0, lr, asr #9
     cd8:	000004fc 	strdeq	r0, [r0], -ip
     cdc:	10770002 	rsbsne	r0, r7, r2
     ce0:	000004fc 	strdeq	r0, [r0], -ip
     ce4:	000004fe 	strdeq	r0, [r0], -lr
     ce8:	08770002 	ldmdaeq	r7!, {r1}^
     cec:	000004fe 	strdeq	r0, [r0], -lr
     cf0:	00000508 	andeq	r0, r0, r8, lsl #10
     cf4:	087d0002 	ldmdaeq	sp!, {r1}^
	...
     d00:	00000490 	muleq	r0, r0, r4
     d04:	00000492 	muleq	r0, r2, r4
     d08:	007d0002 	rsbseq	r0, sp, r2
     d0c:	00000492 	muleq	r0, r2, r4
     d10:	00000494 	muleq	r0, r4, r4
     d14:	087d0002 	ldmdaeq	sp!, {r1}^
     d18:	00000494 	muleq	r0, r4, r4
     d1c:	00000496 	muleq	r0, r6, r4
     d20:	107d0002 	rsbsne	r0, sp, r2
     d24:	00000496 	muleq	r0, r6, r4
     d28:	000004bc 			; <UNDEFINED> instruction: 0x000004bc
     d2c:	10770002 	rsbsne	r0, r7, r2
     d30:	000004bc 			; <UNDEFINED> instruction: 0x000004bc
     d34:	000004be 			; <UNDEFINED> instruction: 0x000004be
     d38:	08770002 	ldmdaeq	r7!, {r1}^
     d3c:	000004be 			; <UNDEFINED> instruction: 0x000004be
     d40:	000004c8 	andeq	r0, r0, r8, asr #9
     d44:	087d0002 	ldmdaeq	sp!, {r1}^
	...
     d50:	00000450 	andeq	r0, r0, r0, asr r4
     d54:	00000452 	andeq	r0, r0, r2, asr r4
     d58:	007d0002 	rsbseq	r0, sp, r2
     d5c:	00000452 	andeq	r0, r0, r2, asr r4
     d60:	00000454 	andeq	r0, r0, r4, asr r4
     d64:	087d0002 	ldmdaeq	sp!, {r1}^
     d68:	00000454 	andeq	r0, r0, r4, asr r4
     d6c:	00000456 	andeq	r0, r0, r6, asr r4
     d70:	107d0002 	rsbsne	r0, sp, r2
     d74:	00000456 	andeq	r0, r0, r6, asr r4
     d78:	00000486 	andeq	r0, r0, r6, lsl #9
     d7c:	10770002 	rsbsne	r0, r7, r2
     d80:	00000486 	andeq	r0, r0, r6, lsl #9
     d84:	00000488 	andeq	r0, r0, r8, lsl #9
     d88:	08770002 	ldmdaeq	r7!, {r1}^
     d8c:	00000488 	andeq	r0, r0, r8, lsl #9
     d90:	00000490 	muleq	r0, r0, r4
     d94:	087d0002 	ldmdaeq	sp!, {r1}^
	...
     da0:	0000041c 	andeq	r0, r0, ip, lsl r4
     da4:	0000041e 	andeq	r0, r0, lr, lsl r4
     da8:	007d0002 	rsbseq	r0, sp, r2
     dac:	0000041e 	andeq	r0, r0, lr, lsl r4
     db0:	00000420 	andeq	r0, r0, r0, lsr #8
     db4:	087d0002 	ldmdaeq	sp!, {r1}^
     db8:	00000420 	andeq	r0, r0, r0, lsr #8
     dbc:	00000422 	andeq	r0, r0, r2, lsr #8
     dc0:	107d0002 	rsbsne	r0, sp, r2
     dc4:	00000422 	andeq	r0, r0, r2, lsr #8
     dc8:	00000446 	andeq	r0, r0, r6, asr #8
     dcc:	10770002 	rsbsne	r0, r7, r2
     dd0:	00000446 	andeq	r0, r0, r6, asr #8
     dd4:	00000448 	andeq	r0, r0, r8, asr #8
     dd8:	08770002 	ldmdaeq	r7!, {r1}^
     ddc:	00000448 	andeq	r0, r0, r8, asr #8
     de0:	00000450 	andeq	r0, r0, r0, asr r4
     de4:	087d0002 	ldmdaeq	sp!, {r1}^
	...
     df0:	00000402 	andeq	r0, r0, r2, lsl #8
     df4:	00000404 	andeq	r0, r0, r4, lsl #8
     df8:	007d0002 	rsbseq	r0, sp, r2
     dfc:	00000404 	andeq	r0, r0, r4, lsl #8
     e00:	00000406 	andeq	r0, r0, r6, lsl #8
     e04:	087d0002 	ldmdaeq	sp!, {r1}^
     e08:	00000406 	andeq	r0, r0, r6, lsl #8
     e0c:	00000408 	andeq	r0, r0, r8, lsl #8
     e10:	107d0002 	rsbsne	r0, sp, r2
     e14:	00000408 	andeq	r0, r0, r8, lsl #8
     e18:	00000418 	andeq	r0, r0, r8, lsl r4
     e1c:	10770002 	rsbsne	r0, r7, r2
     e20:	00000418 	andeq	r0, r0, r8, lsl r4
     e24:	0000041a 	andeq	r0, r0, sl, lsl r4
     e28:	08770002 	ldmdaeq	r7!, {r1}^
     e2c:	0000041a 	andeq	r0, r0, sl, lsl r4
     e30:	0000041c 	andeq	r0, r0, ip, lsl r4
     e34:	087d0002 	ldmdaeq	sp!, {r1}^
	...
     e40:	000003e8 	andeq	r0, r0, r8, ror #7
     e44:	000003ea 	andeq	r0, r0, sl, ror #7
     e48:	007d0002 	rsbseq	r0, sp, r2
     e4c:	000003ea 	andeq	r0, r0, sl, ror #7
     e50:	000003ec 	andeq	r0, r0, ip, ror #7
     e54:	087d0002 	ldmdaeq	sp!, {r1}^
     e58:	000003ec 	andeq	r0, r0, ip, ror #7
     e5c:	000003ee 	andeq	r0, r0, lr, ror #7
     e60:	107d0002 	rsbsne	r0, sp, r2
     e64:	000003ee 	andeq	r0, r0, lr, ror #7
     e68:	000003fe 	strdeq	r0, [r0], -lr
     e6c:	10770002 	rsbsne	r0, r7, r2
     e70:	000003fe 	strdeq	r0, [r0], -lr
     e74:	00000400 	andeq	r0, r0, r0, lsl #8
     e78:	08770002 	ldmdaeq	r7!, {r1}^
     e7c:	00000400 	andeq	r0, r0, r0, lsl #8
     e80:	00000402 	andeq	r0, r0, r2, lsl #8
     e84:	087d0002 	ldmdaeq	sp!, {r1}^
	...
     e90:	00000368 	andeq	r0, r0, r8, ror #6
     e94:	0000036a 	andeq	r0, r0, sl, ror #6
     e98:	007d0002 	rsbseq	r0, sp, r2
     e9c:	0000036a 	andeq	r0, r0, sl, ror #6
     ea0:	0000036c 	andeq	r0, r0, ip, ror #6
     ea4:	087d0002 	ldmdaeq	sp!, {r1}^
     ea8:	0000036c 	andeq	r0, r0, ip, ror #6
     eac:	0000036e 	andeq	r0, r0, lr, ror #6
     eb0:	187d0002 	ldmdane	sp!, {r1}^
     eb4:	0000036e 	andeq	r0, r0, lr, ror #6
     eb8:	000003c4 	andeq	r0, r0, r4, asr #7
     ebc:	10770002 	rsbsne	r0, r7, r2
     ec0:	000003c4 	andeq	r0, r0, r4, asr #7
     ec4:	000003c6 	andeq	r0, r0, r6, asr #7
     ec8:	08770002 	ldmdaeq	r7!, {r1}^
     ecc:	000003c6 	andeq	r0, r0, r6, asr #7
     ed0:	000003e8 	andeq	r0, r0, r8, ror #7
     ed4:	087d0002 	ldmdaeq	sp!, {r1}^
	...
     ee0:	0000026e 	andeq	r0, r0, lr, ror #4
     ee4:	00000270 	andeq	r0, r0, r0, ror r2
     ee8:	007d0002 	rsbseq	r0, sp, r2
     eec:	00000270 	andeq	r0, r0, r0, ror r2
     ef0:	00000272 	andeq	r0, r0, r2, ror r2
     ef4:	087d0002 	ldmdaeq	sp!, {r1}^
     ef8:	00000272 	andeq	r0, r0, r2, ror r2
     efc:	00000274 	andeq	r0, r0, r4, ror r2
     f00:	187d0002 	ldmdane	sp!, {r1}^
     f04:	00000274 	andeq	r0, r0, r4, ror r2
     f08:	00000356 	andeq	r0, r0, r6, asr r3
     f0c:	18770002 	ldmdane	r7!, {r1}^
     f10:	00000356 	andeq	r0, r0, r6, asr r3
     f14:	00000358 	andeq	r0, r0, r8, asr r3
     f18:	08770002 	ldmdaeq	r7!, {r1}^
     f1c:	00000358 	andeq	r0, r0, r8, asr r3
     f20:	00000368 	andeq	r0, r0, r8, ror #6
     f24:	087d0002 	ldmdaeq	sp!, {r1}^
	...
     f30:	00000250 	andeq	r0, r0, r0, asr r2
     f34:	00000252 	andeq	r0, r0, r2, asr r2
     f38:	007d0002 	rsbseq	r0, sp, r2
     f3c:	00000252 	andeq	r0, r0, r2, asr r2
     f40:	00000254 	andeq	r0, r0, r4, asr r2
     f44:	087d0002 	ldmdaeq	sp!, {r1}^
     f48:	00000254 	andeq	r0, r0, r4, asr r2
     f4c:	00000256 	andeq	r0, r0, r6, asr r2
     f50:	107d0002 	rsbsne	r0, sp, r2
     f54:	00000256 	andeq	r0, r0, r6, asr r2
     f58:	0000026a 	andeq	r0, r0, sl, ror #4
     f5c:	10770002 	rsbsne	r0, r7, r2
     f60:	0000026a 	andeq	r0, r0, sl, ror #4
     f64:	0000026c 	andeq	r0, r0, ip, ror #4
     f68:	08770002 	ldmdaeq	r7!, {r1}^
     f6c:	0000026c 	andeq	r0, r0, ip, ror #4
     f70:	0000026e 	andeq	r0, r0, lr, ror #4
     f74:	087d0002 	ldmdaeq	sp!, {r1}^
	...
     f80:	00000214 	andeq	r0, r0, r4, lsl r2
     f84:	00000216 	andeq	r0, r0, r6, lsl r2
     f88:	007d0002 	rsbseq	r0, sp, r2
     f8c:	00000216 	andeq	r0, r0, r6, lsl r2
     f90:	00000218 	andeq	r0, r0, r8, lsl r2
     f94:	087d0002 	ldmdaeq	sp!, {r1}^
     f98:	00000218 	andeq	r0, r0, r8, lsl r2
     f9c:	0000021a 	andeq	r0, r0, sl, lsl r2
     fa0:	187d0002 	ldmdane	sp!, {r1}^
     fa4:	0000021a 	andeq	r0, r0, sl, lsl r2
     fa8:	00000246 	andeq	r0, r0, r6, asr #4
     fac:	18770002 	ldmdane	r7!, {r1}^
     fb0:	00000246 	andeq	r0, r0, r6, asr #4
     fb4:	00000248 	andeq	r0, r0, r8, asr #4
     fb8:	08770002 	ldmdaeq	r7!, {r1}^
     fbc:	00000248 	andeq	r0, r0, r8, asr #4
     fc0:	00000250 	andeq	r0, r0, r0, asr r2
     fc4:	087d0002 	ldmdaeq	sp!, {r1}^
	...
     fd0:	000001e4 	andeq	r0, r0, r4, ror #3
     fd4:	000001e6 	andeq	r0, r0, r6, ror #3
     fd8:	007d0002 	rsbseq	r0, sp, r2
     fdc:	000001e6 	andeq	r0, r0, r6, ror #3
     fe0:	000001e8 	andeq	r0, r0, r8, ror #3
     fe4:	087d0002 	ldmdaeq	sp!, {r1}^
     fe8:	000001e8 	andeq	r0, r0, r8, ror #3
     fec:	00000214 	andeq	r0, r0, r4, lsl r2
     ff0:	08770002 	ldmdaeq	r7!, {r1}^
	...
     ffc:	000001cc 	andeq	r0, r0, ip, asr #3
    1000:	000001ce 	andeq	r0, r0, lr, asr #3
    1004:	007d0002 	rsbseq	r0, sp, r2
    1008:	000001ce 	andeq	r0, r0, lr, asr #3
    100c:	000001d0 	ldrdeq	r0, [r0], -r0	; <UNPREDICTABLE>
    1010:	047d0002 	ldrbteq	r0, [sp], #-2
    1014:	000001d0 	ldrdeq	r0, [r0], -r0	; <UNPREDICTABLE>
    1018:	000001dc 	ldrdeq	r0, [r0], -ip
    101c:	04770002 	ldrbteq	r0, [r7], #-2
    1020:	000001dc 	ldrdeq	r0, [r0], -ip
    1024:	000001de 	ldrdeq	r0, [r0], -lr
    1028:	047d0002 	ldrbteq	r0, [sp], #-2
    102c:	000001de 	ldrdeq	r0, [r0], -lr
    1030:	000001e4 	andeq	r0, r0, r4, ror #3
    1034:	007d0002 	rsbseq	r0, sp, r2
	...
    1040:	0000017c 	andeq	r0, r0, ip, ror r1
    1044:	0000017e 	andeq	r0, r0, lr, ror r1
    1048:	007d0002 	rsbseq	r0, sp, r2
    104c:	0000017e 	andeq	r0, r0, lr, ror r1
    1050:	00000180 	andeq	r0, r0, r0, lsl #3
    1054:	087d0002 	ldmdaeq	sp!, {r1}^
    1058:	00000180 	andeq	r0, r0, r0, lsl #3
    105c:	00000182 	andeq	r0, r0, r2, lsl #3
    1060:	107d0002 	rsbsne	r0, sp, r2
    1064:	00000182 	andeq	r0, r0, r2, lsl #3
    1068:	000001bc 			; <UNDEFINED> instruction: 0x000001bc
    106c:	10770002 	rsbsne	r0, r7, r2
    1070:	000001bc 			; <UNDEFINED> instruction: 0x000001bc
    1074:	000001be 			; <UNDEFINED> instruction: 0x000001be
    1078:	08770002 	ldmdaeq	r7!, {r1}^
    107c:	000001be 			; <UNDEFINED> instruction: 0x000001be
    1080:	000001cc 	andeq	r0, r0, ip, asr #3
    1084:	087d0002 	ldmdaeq	sp!, {r1}^
	...
    1090:	0000000a 	andeq	r0, r0, sl
    1094:	0000000c 	andeq	r0, r0, ip
    1098:	007d0002 	rsbseq	r0, sp, r2
    109c:	0000000c 	andeq	r0, r0, ip
    10a0:	0000000e 	andeq	r0, r0, lr
    10a4:	087d0002 	ldmdaeq	sp!, {r1}^
    10a8:	0000000e 	andeq	r0, r0, lr
    10ac:	00000010 	andeq	r0, r0, r0, lsl r0
    10b0:	187d0002 	ldmdane	sp!, {r1}^
    10b4:	00000010 	andeq	r0, r0, r0, lsl r0
    10b8:	00000166 	andeq	r0, r0, r6, ror #2
    10bc:	18770002 	ldmdane	r7!, {r1}^
    10c0:	00000166 	andeq	r0, r0, r6, ror #2
    10c4:	00000168 	andeq	r0, r0, r8, ror #2
    10c8:	08770002 	ldmdaeq	r7!, {r1}^
    10cc:	00000168 	andeq	r0, r0, r8, ror #2
    10d0:	0000017c 	andeq	r0, r0, ip, ror r1
    10d4:	087d0002 	ldmdaeq	sp!, {r1}^
	...
    10e4:	00000002 	andeq	r0, r0, r2
    10e8:	007d0002 	rsbseq	r0, sp, r2
    10ec:	00000002 	andeq	r0, r0, r2
    10f0:	00000004 	andeq	r0, r0, r4
    10f4:	047d0002 	ldrbteq	r0, [sp], #-2
    10f8:	00000004 	andeq	r0, r0, r4
    10fc:	00000006 	andeq	r0, r0, r6
    1100:	107d0002 	rsbsne	r0, sp, r2
    1104:	00000006 	andeq	r0, r0, r6
    1108:	0000000a 	andeq	r0, r0, sl
    110c:	10770002 	rsbsne	r0, r7, r2
	...
    1118:	00000388 	andeq	r0, r0, r8, lsl #7
    111c:	0000038a 	andeq	r0, r0, sl, lsl #7
    1120:	007d0002 	rsbseq	r0, sp, r2
    1124:	0000038a 	andeq	r0, r0, sl, lsl #7
    1128:	0000038c 	andeq	r0, r0, ip, lsl #7
    112c:	047d0002 	ldrbteq	r0, [sp], #-2
    1130:	0000038c 	andeq	r0, r0, ip, lsl #7
    1134:	0000038e 	andeq	r0, r0, lr, lsl #7
    1138:	187d0002 	ldmdane	sp!, {r1}^
    113c:	0000038e 	andeq	r0, r0, lr, lsl #7
    1140:	000003e0 	andeq	r0, r0, r0, ror #7
    1144:	18770002 	ldmdane	r7!, {r1}^
    1148:	000003e0 	andeq	r0, r0, r0, ror #7
    114c:	000003e2 	andeq	r0, r0, r2, ror #7
    1150:	04770002 	ldrbteq	r0, [r7], #-2
    1154:	000003e2 	andeq	r0, r0, r2, ror #7
    1158:	000003e4 	andeq	r0, r0, r4, ror #7
    115c:	047d0002 	ldrbteq	r0, [sp], #-2
    1160:	000003e4 	andeq	r0, r0, r4, ror #7
    1164:	000003e6 	andeq	r0, r0, r6, ror #7
    1168:	007d0002 	rsbseq	r0, sp, r2
	...
    1174:	0000031e 	andeq	r0, r0, lr, lsl r3
    1178:	00000320 	andeq	r0, r0, r0, lsr #6
    117c:	007d0002 	rsbseq	r0, sp, r2
    1180:	00000320 	andeq	r0, r0, r0, lsr #6
    1184:	00000322 	andeq	r0, r0, r2, lsr #6
    1188:	047d0002 	ldrbteq	r0, [sp], #-2
    118c:	00000322 	andeq	r0, r0, r2, lsr #6
    1190:	00000324 	andeq	r0, r0, r4, lsr #6
    1194:	207d0002 	rsbscs	r0, sp, r2
    1198:	00000324 	andeq	r0, r0, r4, lsr #6
    119c:	00000382 	andeq	r0, r0, r2, lsl #7
    11a0:	20770002 	rsbscs	r0, r7, r2
    11a4:	00000382 	andeq	r0, r0, r2, lsl #7
    11a8:	00000384 	andeq	r0, r0, r4, lsl #7
    11ac:	04770002 	ldrbteq	r0, [r7], #-2
    11b0:	00000384 	andeq	r0, r0, r4, lsl #7
    11b4:	00000386 	andeq	r0, r0, r6, lsl #7
    11b8:	047d0002 	ldrbteq	r0, [sp], #-2
    11bc:	00000386 	andeq	r0, r0, r6, lsl #7
    11c0:	00000388 	andeq	r0, r0, r8, lsl #7
    11c4:	007d0002 	rsbseq	r0, sp, r2
	...
    11d0:	000002cc 	andeq	r0, r0, ip, asr #5
    11d4:	000002ce 	andeq	r0, r0, lr, asr #5
    11d8:	007d0002 	rsbseq	r0, sp, r2
    11dc:	000002ce 	andeq	r0, r0, lr, asr #5
    11e0:	000002d0 	ldrdeq	r0, [r0], -r0	; <UNPREDICTABLE>
    11e4:	047d0002 	ldrbteq	r0, [sp], #-2
    11e8:	000002d0 	ldrdeq	r0, [r0], -r0	; <UNPREDICTABLE>
    11ec:	000002d2 	ldrdeq	r0, [r0], -r2
    11f0:	187d0002 	ldmdane	sp!, {r1}^
    11f4:	000002d2 	ldrdeq	r0, [r0], -r2
    11f8:	00000318 	andeq	r0, r0, r8, lsl r3
    11fc:	18770002 	ldmdane	r7!, {r1}^
    1200:	00000318 	andeq	r0, r0, r8, lsl r3
    1204:	0000031a 	andeq	r0, r0, sl, lsl r3
    1208:	04770002 	ldrbteq	r0, [r7], #-2
    120c:	0000031a 	andeq	r0, r0, sl, lsl r3
    1210:	0000031c 	andeq	r0, r0, ip, lsl r3
    1214:	047d0002 	ldrbteq	r0, [sp], #-2
    1218:	0000031c 	andeq	r0, r0, ip, lsl r3
    121c:	0000031e 	andeq	r0, r0, lr, lsl r3
    1220:	007d0002 	rsbseq	r0, sp, r2
	...
    122c:	0000027a 	andeq	r0, r0, sl, ror r2
    1230:	0000027c 	andeq	r0, r0, ip, ror r2
    1234:	007d0002 	rsbseq	r0, sp, r2
    1238:	0000027c 	andeq	r0, r0, ip, ror r2
    123c:	0000027e 	andeq	r0, r0, lr, ror r2
    1240:	047d0002 	ldrbteq	r0, [sp], #-2
    1244:	0000027e 	andeq	r0, r0, lr, ror r2
    1248:	00000280 	andeq	r0, r0, r0, lsl #5
    124c:	187d0002 	ldmdane	sp!, {r1}^
    1250:	00000280 	andeq	r0, r0, r0, lsl #5
    1254:	000002c6 	andeq	r0, r0, r6, asr #5
    1258:	18770002 	ldmdane	r7!, {r1}^
    125c:	000002c6 	andeq	r0, r0, r6, asr #5
    1260:	000002c8 	andeq	r0, r0, r8, asr #5
    1264:	04770002 	ldrbteq	r0, [r7], #-2
    1268:	000002c8 	andeq	r0, r0, r8, asr #5
    126c:	000002ca 	andeq	r0, r0, sl, asr #5
    1270:	047d0002 	ldrbteq	r0, [sp], #-2
    1274:	000002ca 	andeq	r0, r0, sl, asr #5
    1278:	000002cc 	andeq	r0, r0, ip, asr #5
    127c:	007d0002 	rsbseq	r0, sp, r2
	...
    1288:	0000020c 	andeq	r0, r0, ip, lsl #4
    128c:	0000020e 	andeq	r0, r0, lr, lsl #4
    1290:	007d0002 	rsbseq	r0, sp, r2
    1294:	0000020e 	andeq	r0, r0, lr, lsl #4
    1298:	00000210 	andeq	r0, r0, r0, lsl r2
    129c:	047d0002 	ldrbteq	r0, [sp], #-2
    12a0:	00000210 	andeq	r0, r0, r0, lsl r2
    12a4:	00000212 	andeq	r0, r0, r2, lsl r2
    12a8:	207d0002 	rsbscs	r0, sp, r2
    12ac:	00000212 	andeq	r0, r0, r2, lsl r2
    12b0:	00000274 	andeq	r0, r0, r4, ror r2
    12b4:	20770002 	rsbscs	r0, r7, r2
    12b8:	00000274 	andeq	r0, r0, r4, ror r2
    12bc:	00000276 	andeq	r0, r0, r6, ror r2
    12c0:	04770002 	ldrbteq	r0, [r7], #-2
    12c4:	00000276 	andeq	r0, r0, r6, ror r2
    12c8:	00000278 	andeq	r0, r0, r8, ror r2
    12cc:	047d0002 	ldrbteq	r0, [sp], #-2
    12d0:	00000278 	andeq	r0, r0, r8, ror r2
    12d4:	0000027a 	andeq	r0, r0, sl, ror r2
    12d8:	007d0002 	rsbseq	r0, sp, r2
	...
    12e4:	000001e8 	andeq	r0, r0, r8, ror #3
    12e8:	000001ea 	andeq	r0, r0, sl, ror #3
    12ec:	007d0002 	rsbseq	r0, sp, r2
    12f0:	000001ea 	andeq	r0, r0, sl, ror #3
    12f4:	000001ec 	andeq	r0, r0, ip, ror #3
    12f8:	047d0002 	ldrbteq	r0, [sp], #-2
    12fc:	000001ec 	andeq	r0, r0, ip, ror #3
    1300:	000001ee 	andeq	r0, r0, lr, ror #3
    1304:	187d0002 	ldmdane	sp!, {r1}^
    1308:	000001ee 	andeq	r0, r0, lr, ror #3
    130c:	00000206 	andeq	r0, r0, r6, lsl #4
    1310:	18770002 	ldmdane	r7!, {r1}^
    1314:	00000206 	andeq	r0, r0, r6, lsl #4
    1318:	00000208 	andeq	r0, r0, r8, lsl #4
    131c:	04770002 	ldrbteq	r0, [r7], #-2
    1320:	00000208 	andeq	r0, r0, r8, lsl #4
    1324:	0000020a 	andeq	r0, r0, sl, lsl #4
    1328:	047d0002 	ldrbteq	r0, [sp], #-2
    132c:	0000020a 	andeq	r0, r0, sl, lsl #4
    1330:	0000020c 	andeq	r0, r0, ip, lsl #4
    1334:	007d0002 	rsbseq	r0, sp, r2
	...
    1340:	000001c4 	andeq	r0, r0, r4, asr #3
    1344:	000001c6 	andeq	r0, r0, r6, asr #3
    1348:	007d0002 	rsbseq	r0, sp, r2
    134c:	000001c6 	andeq	r0, r0, r6, asr #3
    1350:	000001c8 	andeq	r0, r0, r8, asr #3
    1354:	047d0002 	ldrbteq	r0, [sp], #-2
    1358:	000001c8 	andeq	r0, r0, r8, asr #3
    135c:	000001ca 	andeq	r0, r0, sl, asr #3
    1360:	187d0002 	ldmdane	sp!, {r1}^
    1364:	000001ca 	andeq	r0, r0, sl, asr #3
    1368:	000001e2 	andeq	r0, r0, r2, ror #3
    136c:	18770002 	ldmdane	r7!, {r1}^
    1370:	000001e2 	andeq	r0, r0, r2, ror #3
    1374:	000001e4 	andeq	r0, r0, r4, ror #3
    1378:	04770002 	ldrbteq	r0, [r7], #-2
    137c:	000001e4 	andeq	r0, r0, r4, ror #3
    1380:	000001e6 	andeq	r0, r0, r6, ror #3
    1384:	047d0002 	ldrbteq	r0, [sp], #-2
    1388:	000001e6 	andeq	r0, r0, r6, ror #3
    138c:	000001e8 	andeq	r0, r0, r8, ror #3
    1390:	007d0002 	rsbseq	r0, sp, r2
	...
    139c:	0000019a 	muleq	r0, sl, r1
    13a0:	0000019c 	muleq	r0, ip, r1
    13a4:	007d0002 	rsbseq	r0, sp, r2
    13a8:	0000019c 	muleq	r0, ip, r1
    13ac:	0000019e 	muleq	r0, lr, r1
    13b0:	047d0002 	ldrbteq	r0, [sp], #-2
    13b4:	0000019e 	muleq	r0, lr, r1
    13b8:	000001a0 	andeq	r0, r0, r0, lsr #3
    13bc:	187d0002 	ldmdane	sp!, {r1}^
    13c0:	000001a0 	andeq	r0, r0, r0, lsr #3
    13c4:	000001be 			; <UNDEFINED> instruction: 0x000001be
    13c8:	18770002 	ldmdane	r7!, {r1}^
    13cc:	000001be 			; <UNDEFINED> instruction: 0x000001be
    13d0:	000001c0 	andeq	r0, r0, r0, asr #3
    13d4:	04770002 	ldrbteq	r0, [r7], #-2
    13d8:	000001c0 	andeq	r0, r0, r0, asr #3
    13dc:	000001c2 	andeq	r0, r0, r2, asr #3
    13e0:	047d0002 	ldrbteq	r0, [sp], #-2
    13e4:	000001c2 	andeq	r0, r0, r2, asr #3
    13e8:	000001c4 	andeq	r0, r0, r4, asr #3
    13ec:	007d0002 	rsbseq	r0, sp, r2
	...
    13f8:	00000170 	andeq	r0, r0, r0, ror r1
    13fc:	00000172 	andeq	r0, r0, r2, ror r1
    1400:	007d0002 	rsbseq	r0, sp, r2
    1404:	00000172 	andeq	r0, r0, r2, ror r1
    1408:	00000174 	andeq	r0, r0, r4, ror r1
    140c:	047d0002 	ldrbteq	r0, [sp], #-2
    1410:	00000174 	andeq	r0, r0, r4, ror r1
    1414:	00000176 	andeq	r0, r0, r6, ror r1
    1418:	187d0002 	ldmdane	sp!, {r1}^
    141c:	00000176 	andeq	r0, r0, r6, ror r1
    1420:	00000194 	muleq	r0, r4, r1
    1424:	18770002 	ldmdane	r7!, {r1}^
    1428:	00000194 	muleq	r0, r4, r1
    142c:	00000196 	muleq	r0, r6, r1
    1430:	04770002 	ldrbteq	r0, [r7], #-2
    1434:	00000196 	muleq	r0, r6, r1
    1438:	00000198 	muleq	r0, r8, r1
    143c:	047d0002 	ldrbteq	r0, [sp], #-2
    1440:	00000198 	muleq	r0, r8, r1
    1444:	0000019a 	muleq	r0, sl, r1
    1448:	007d0002 	rsbseq	r0, sp, r2
	...
    1454:	0000014c 	andeq	r0, r0, ip, asr #2
    1458:	0000014e 	andeq	r0, r0, lr, asr #2
    145c:	007d0002 	rsbseq	r0, sp, r2
    1460:	0000014e 	andeq	r0, r0, lr, asr #2
    1464:	00000150 	andeq	r0, r0, r0, asr r1
    1468:	047d0002 	ldrbteq	r0, [sp], #-2
    146c:	00000150 	andeq	r0, r0, r0, asr r1
    1470:	00000152 	andeq	r0, r0, r2, asr r1
    1474:	187d0002 	ldmdane	sp!, {r1}^
    1478:	00000152 	andeq	r0, r0, r2, asr r1
    147c:	0000016a 	andeq	r0, r0, sl, ror #2
    1480:	18770002 	ldmdane	r7!, {r1}^
    1484:	0000016a 	andeq	r0, r0, sl, ror #2
    1488:	0000016c 	andeq	r0, r0, ip, ror #2
    148c:	04770002 	ldrbteq	r0, [r7], #-2
    1490:	0000016c 	andeq	r0, r0, ip, ror #2
    1494:	0000016e 	andeq	r0, r0, lr, ror #2
    1498:	047d0002 	ldrbteq	r0, [sp], #-2
    149c:	0000016e 	andeq	r0, r0, lr, ror #2
    14a0:	00000170 	andeq	r0, r0, r0, ror r1
    14a4:	007d0002 	rsbseq	r0, sp, r2
	...
    14b0:	00000128 	andeq	r0, r0, r8, lsr #2
    14b4:	0000012a 	andeq	r0, r0, sl, lsr #2
    14b8:	007d0002 	rsbseq	r0, sp, r2
    14bc:	0000012a 	andeq	r0, r0, sl, lsr #2
    14c0:	0000012c 	andeq	r0, r0, ip, lsr #2
    14c4:	087d0002 	ldmdaeq	sp!, {r1}^
    14c8:	0000012c 	andeq	r0, r0, ip, lsr #2
    14cc:	0000012e 	andeq	r0, r0, lr, lsr #2
    14d0:	107d0002 	rsbsne	r0, sp, r2
    14d4:	0000012e 	andeq	r0, r0, lr, lsr #2
    14d8:	00000148 	andeq	r0, r0, r8, asr #2
    14dc:	10770002 	rsbsne	r0, r7, r2
    14e0:	00000148 	andeq	r0, r0, r8, asr #2
    14e4:	0000014a 	andeq	r0, r0, sl, asr #2
    14e8:	08770002 	ldmdaeq	r7!, {r1}^
    14ec:	0000014a 	andeq	r0, r0, sl, asr #2
    14f0:	0000014c 	andeq	r0, r0, ip, asr #2
    14f4:	087d0002 	ldmdaeq	sp!, {r1}^
	...
    1500:	00000104 	andeq	r0, r0, r4, lsl #2
    1504:	00000106 	andeq	r0, r0, r6, lsl #2
    1508:	007d0002 	rsbseq	r0, sp, r2
    150c:	00000106 	andeq	r0, r0, r6, lsl #2
    1510:	00000108 	andeq	r0, r0, r8, lsl #2
    1514:	047d0002 	ldrbteq	r0, [sp], #-2
    1518:	00000108 	andeq	r0, r0, r8, lsl #2
    151c:	0000010a 	andeq	r0, r0, sl, lsl #2
    1520:	107d0002 	rsbsne	r0, sp, r2
    1524:	0000010a 	andeq	r0, r0, sl, lsl #2
    1528:	00000122 	andeq	r0, r0, r2, lsr #2
    152c:	10770002 	rsbsne	r0, r7, r2
    1530:	00000122 	andeq	r0, r0, r2, lsr #2
    1534:	00000124 	andeq	r0, r0, r4, lsr #2
    1538:	04770002 	ldrbteq	r0, [r7], #-2
    153c:	00000124 	andeq	r0, r0, r4, lsr #2
    1540:	00000126 	andeq	r0, r0, r6, lsr #2
    1544:	047d0002 	ldrbteq	r0, [sp], #-2
    1548:	00000126 	andeq	r0, r0, r6, lsr #2
    154c:	00000128 	andeq	r0, r0, r8, lsr #2
    1550:	007d0002 	rsbseq	r0, sp, r2
	...
    155c:	00000074 	andeq	r0, r0, r4, ror r0
    1560:	00000076 	andeq	r0, r0, r6, ror r0
    1564:	007d0002 	rsbseq	r0, sp, r2
    1568:	00000076 	andeq	r0, r0, r6, ror r0
    156c:	00000078 	andeq	r0, r0, r8, ror r0
    1570:	087d0002 	ldmdaeq	sp!, {r1}^
    1574:	00000078 	andeq	r0, r0, r8, ror r0
    1578:	0000007a 	andeq	r0, r0, sl, ror r0
    157c:	187d0002 	ldmdane	sp!, {r1}^
    1580:	0000007a 	andeq	r0, r0, sl, ror r0
    1584:	000000fc 	strdeq	r0, [r0], -ip
    1588:	18770002 	ldmdane	r7!, {r1}^
    158c:	000000fc 	strdeq	r0, [r0], -ip
    1590:	000000fe 	strdeq	r0, [r0], -lr
    1594:	08770002 	ldmdaeq	r7!, {r1}^
    1598:	000000fe 	strdeq	r0, [r0], -lr
    159c:	00000104 	andeq	r0, r0, r4, lsl #2
    15a0:	087d0002 	ldmdaeq	sp!, {r1}^
	...
    15ac:	0000004c 	andeq	r0, r0, ip, asr #32
    15b0:	0000004e 	andeq	r0, r0, lr, asr #32
    15b4:	007d0002 	rsbseq	r0, sp, r2
    15b8:	0000004e 	andeq	r0, r0, lr, asr #32
    15bc:	00000050 	andeq	r0, r0, r0, asr r0
    15c0:	047d0002 	ldrbteq	r0, [sp], #-2
    15c4:	00000050 	andeq	r0, r0, r0, asr r0
    15c8:	00000052 	andeq	r0, r0, r2, asr r0
    15cc:	107d0002 	rsbsne	r0, sp, r2
    15d0:	00000052 	andeq	r0, r0, r2, asr r0
    15d4:	0000006e 	andeq	r0, r0, lr, rrx
    15d8:	10770002 	rsbsne	r0, r7, r2
    15dc:	0000006e 	andeq	r0, r0, lr, rrx
    15e0:	00000070 	andeq	r0, r0, r0, ror r0
    15e4:	04770002 	ldrbteq	r0, [r7], #-2
    15e8:	00000070 	andeq	r0, r0, r0, ror r0
    15ec:	00000072 	andeq	r0, r0, r2, ror r0
    15f0:	047d0002 	ldrbteq	r0, [sp], #-2
    15f4:	00000072 	andeq	r0, r0, r2, ror r0
    15f8:	00000074 	andeq	r0, r0, r4, ror r0
    15fc:	007d0002 	rsbseq	r0, sp, r2
	...
    1608:	00000026 	andeq	r0, r0, r6, lsr #32
    160c:	00000028 	andeq	r0, r0, r8, lsr #32
    1610:	007d0002 	rsbseq	r0, sp, r2
    1614:	00000028 	andeq	r0, r0, r8, lsr #32
    1618:	0000002a 	andeq	r0, r0, sl, lsr #32
    161c:	047d0002 	ldrbteq	r0, [sp], #-2
    1620:	0000002a 	andeq	r0, r0, sl, lsr #32
    1624:	0000002c 	andeq	r0, r0, ip, lsr #32
    1628:	107d0002 	rsbsne	r0, sp, r2
    162c:	0000002c 	andeq	r0, r0, ip, lsr #32
    1630:	00000046 	andeq	r0, r0, r6, asr #32
    1634:	10770002 	rsbsne	r0, r7, r2
    1638:	00000046 	andeq	r0, r0, r6, asr #32
    163c:	00000048 	andeq	r0, r0, r8, asr #32
    1640:	04770002 	ldrbteq	r0, [r7], #-2
    1644:	00000048 	andeq	r0, r0, r8, asr #32
    1648:	0000004a 	andeq	r0, r0, sl, asr #32
    164c:	047d0002 	ldrbteq	r0, [sp], #-2
    1650:	0000004a 	andeq	r0, r0, sl, asr #32
    1654:	0000004c 	andeq	r0, r0, ip, asr #32
    1658:	007d0002 	rsbseq	r0, sp, r2
	...
    1664:	00000018 	andeq	r0, r0, r8, lsl r0
    1668:	0000001a 	andeq	r0, r0, sl, lsl r0
    166c:	007d0002 	rsbseq	r0, sp, r2
    1670:	0000001a 	andeq	r0, r0, sl, lsl r0
    1674:	0000001c 	andeq	r0, r0, ip, lsl r0
    1678:	047d0002 	ldrbteq	r0, [sp], #-2
    167c:	0000001c 	andeq	r0, r0, ip, lsl r0
    1680:	00000022 	andeq	r0, r0, r2, lsr #32
    1684:	04770002 	ldrbteq	r0, [r7], #-2
    1688:	00000022 	andeq	r0, r0, r2, lsr #32
    168c:	00000024 	andeq	r0, r0, r4, lsr #32
    1690:	047d0002 	ldrbteq	r0, [sp], #-2
    1694:	00000024 	andeq	r0, r0, r4, lsr #32
    1698:	00000026 	andeq	r0, r0, r6, lsr #32
    169c:	007d0002 	rsbseq	r0, sp, r2
	...
    16ac:	00000002 	andeq	r0, r0, r2
    16b0:	007d0002 	rsbseq	r0, sp, r2
    16b4:	00000002 	andeq	r0, r0, r2
    16b8:	00000004 	andeq	r0, r0, r4
    16bc:	047d0002 	ldrbteq	r0, [sp], #-2
    16c0:	00000004 	andeq	r0, r0, r4
    16c4:	00000006 	andeq	r0, r0, r6
    16c8:	107d0002 	rsbsne	r0, sp, r2
    16cc:	00000006 	andeq	r0, r0, r6
    16d0:	00000012 	andeq	r0, r0, r2, lsl r0
    16d4:	10770002 	rsbsne	r0, r7, r2
    16d8:	00000012 	andeq	r0, r0, r2, lsl r0
    16dc:	00000014 	andeq	r0, r0, r4, lsl r0
    16e0:	04770002 	ldrbteq	r0, [r7], #-2
    16e4:	00000014 	andeq	r0, r0, r4, lsl r0
    16e8:	00000016 	andeq	r0, r0, r6, lsl r0
    16ec:	047d0002 	ldrbteq	r0, [sp], #-2
    16f0:	00000016 	andeq	r0, r0, r6, lsl r0
    16f4:	00000018 	andeq	r0, r0, r8, lsl r0
    16f8:	007d0002 	rsbseq	r0, sp, r2
	...
    1704:	0000023c 	andeq	r0, r0, ip, lsr r2
    1708:	0000023e 	andeq	r0, r0, lr, lsr r2
    170c:	007d0002 	rsbseq	r0, sp, r2
    1710:	0000023e 	andeq	r0, r0, lr, lsr r2
    1714:	00000240 	andeq	r0, r0, r0, asr #4
    1718:	087d0002 	ldmdaeq	sp!, {r1}^
    171c:	00000240 	andeq	r0, r0, r0, asr #4
    1720:	00000242 	andeq	r0, r0, r2, asr #4
    1724:	187d0002 	ldmdane	sp!, {r1}^
    1728:	00000242 	andeq	r0, r0, r2, asr #4
    172c:	00000266 	andeq	r0, r0, r6, ror #4
    1730:	18770002 	ldmdane	r7!, {r1}^
    1734:	00000266 	andeq	r0, r0, r6, ror #4
    1738:	00000268 	andeq	r0, r0, r8, ror #4
    173c:	08770002 	ldmdaeq	r7!, {r1}^
    1740:	00000268 	andeq	r0, r0, r8, ror #4
    1744:	0000026a 	andeq	r0, r0, sl, ror #4
    1748:	087d0002 	ldmdaeq	sp!, {r1}^
	...
    1754:	0000019e 	muleq	r0, lr, r1
    1758:	000001a0 	andeq	r0, r0, r0, lsr #3
    175c:	007d0002 	rsbseq	r0, sp, r2
    1760:	000001a0 	andeq	r0, r0, r0, lsr #3
    1764:	000001a2 	andeq	r0, r0, r2, lsr #3
    1768:	087d0002 	ldmdaeq	sp!, {r1}^
    176c:	000001a2 	andeq	r0, r0, r2, lsr #3
    1770:	000001a4 	andeq	r0, r0, r4, lsr #3
    1774:	287d0002 	ldmdacs	sp!, {r1}^
    1778:	000001a4 	andeq	r0, r0, r4, lsr #3
    177c:	0000022a 	andeq	r0, r0, sl, lsr #4
    1780:	28770002 	ldmdacs	r7!, {r1}^
    1784:	0000022a 	andeq	r0, r0, sl, lsr #4
    1788:	0000022c 	andeq	r0, r0, ip, lsr #4
    178c:	08770002 	ldmdaeq	r7!, {r1}^
    1790:	0000022c 	andeq	r0, r0, ip, lsr #4
    1794:	0000023c 	andeq	r0, r0, ip, lsr r2
    1798:	087d0002 	ldmdaeq	sp!, {r1}^
	...
    17a4:	0000014e 	andeq	r0, r0, lr, asr #2
    17a8:	00000150 	andeq	r0, r0, r0, asr r1
    17ac:	007d0002 	rsbseq	r0, sp, r2
    17b0:	00000150 	andeq	r0, r0, r0, asr r1
    17b4:	00000152 	andeq	r0, r0, r2, asr r1
    17b8:	087d0002 	ldmdaeq	sp!, {r1}^
    17bc:	00000152 	andeq	r0, r0, r2, asr r1
    17c0:	00000154 	andeq	r0, r0, r4, asr r1
    17c4:	207d0002 	rsbscs	r0, sp, r2
    17c8:	00000154 	andeq	r0, r0, r4, asr r1
    17cc:	0000019a 	muleq	r0, sl, r1
    17d0:	20770002 	rsbscs	r0, r7, r2
    17d4:	0000019a 	muleq	r0, sl, r1
    17d8:	0000019c 	muleq	r0, ip, r1
    17dc:	08770002 	ldmdaeq	r7!, {r1}^
    17e0:	0000019c 	muleq	r0, ip, r1
    17e4:	0000019e 	muleq	r0, lr, r1
    17e8:	087d0002 	ldmdaeq	sp!, {r1}^
	...
    17f4:	000000ee 	andeq	r0, r0, lr, ror #1
    17f8:	000000f0 	strdeq	r0, [r0], -r0	; <UNPREDICTABLE>
    17fc:	007d0002 	rsbseq	r0, sp, r2
    1800:	000000f0 	strdeq	r0, [r0], -r0	; <UNPREDICTABLE>
    1804:	000000f2 	strdeq	r0, [r0], -r2
    1808:	087d0002 	ldmdaeq	sp!, {r1}^
    180c:	000000f2 	strdeq	r0, [r0], -r2
    1810:	000000f4 	strdeq	r0, [r0], -r4
    1814:	207d0002 	rsbscs	r0, sp, r2
    1818:	000000f4 	strdeq	r0, [r0], -r4
    181c:	0000014a 	andeq	r0, r0, sl, asr #2
    1820:	20770002 	rsbscs	r0, r7, r2
    1824:	0000014a 	andeq	r0, r0, sl, asr #2
    1828:	0000014c 	andeq	r0, r0, ip, asr #2
    182c:	08770002 	ldmdaeq	r7!, {r1}^
    1830:	0000014c 	andeq	r0, r0, ip, asr #2
    1834:	0000014e 	andeq	r0, r0, lr, asr #2
    1838:	087d0002 	ldmdaeq	sp!, {r1}^
	...
    1844:	00000080 	andeq	r0, r0, r0, lsl #1
    1848:	00000082 	andeq	r0, r0, r2, lsl #1
    184c:	007d0002 	rsbseq	r0, sp, r2
    1850:	00000082 	andeq	r0, r0, r2, lsl #1
    1854:	00000084 	andeq	r0, r0, r4, lsl #1
    1858:	087d0002 	ldmdaeq	sp!, {r1}^
    185c:	00000084 	andeq	r0, r0, r4, lsl #1
    1860:	00000086 	andeq	r0, r0, r6, lsl #1
    1864:	287d0002 	ldmdacs	sp!, {r1}^
    1868:	00000086 	andeq	r0, r0, r6, lsl #1
    186c:	000000ea 	andeq	r0, r0, sl, ror #1
    1870:	28770002 	ldmdacs	r7!, {r1}^
    1874:	000000ea 	andeq	r0, r0, sl, ror #1
    1878:	000000ec 	andeq	r0, r0, ip, ror #1
    187c:	08770002 	ldmdaeq	r7!, {r1}^
    1880:	000000ec 	andeq	r0, r0, ip, ror #1
    1884:	000000ee 	andeq	r0, r0, lr, ror #1
    1888:	087d0002 	ldmdaeq	sp!, {r1}^
	...
    1894:	00000022 	andeq	r0, r0, r2, lsr #32
    1898:	00000024 	andeq	r0, r0, r4, lsr #32
    189c:	007d0002 	rsbseq	r0, sp, r2
    18a0:	00000024 	andeq	r0, r0, r4, lsr #32
    18a4:	00000026 	andeq	r0, r0, r6, lsr #32
    18a8:	087d0002 	ldmdaeq	sp!, {r1}^
    18ac:	00000026 	andeq	r0, r0, r6, lsr #32
    18b0:	00000028 	andeq	r0, r0, r8, lsr #32
    18b4:	207d0002 	rsbscs	r0, sp, r2
    18b8:	00000028 	andeq	r0, r0, r8, lsr #32
    18bc:	0000007c 	andeq	r0, r0, ip, ror r0
    18c0:	20770002 	rsbscs	r0, r7, r2
    18c4:	0000007c 	andeq	r0, r0, ip, ror r0
    18c8:	0000007e 	andeq	r0, r0, lr, ror r0
    18cc:	08770002 	ldmdaeq	r7!, {r1}^
    18d0:	0000007e 	andeq	r0, r0, lr, ror r0
    18d4:	00000080 	andeq	r0, r0, r0, lsl #1
    18d8:	087d0002 	ldmdaeq	sp!, {r1}^
	...
    18e8:	00000002 	andeq	r0, r0, r2
    18ec:	007d0002 	rsbseq	r0, sp, r2
    18f0:	00000002 	andeq	r0, r0, r2
    18f4:	00000004 	andeq	r0, r0, r4
    18f8:	087d0002 	ldmdaeq	sp!, {r1}^
    18fc:	00000004 	andeq	r0, r0, r4
    1900:	00000006 	andeq	r0, r0, r6
    1904:	107d0002 	rsbsne	r0, sp, r2
    1908:	00000006 	andeq	r0, r0, r6
    190c:	0000001e 	andeq	r0, r0, lr, lsl r0
    1910:	10770002 	rsbsne	r0, r7, r2
    1914:	0000001e 	andeq	r0, r0, lr, lsl r0
    1918:	00000020 	andeq	r0, r0, r0, lsr #32
    191c:	08770002 	ldmdaeq	r7!, {r1}^
    1920:	00000020 	andeq	r0, r0, r0, lsr #32
    1924:	00000022 	andeq	r0, r0, r2, lsr #32
    1928:	087d0002 	ldmdaeq	sp!, {r1}^
	...
    1934:	00000190 	muleq	r0, r0, r1
    1938:	00000192 	muleq	r0, r2, r1
    193c:	007d0002 	rsbseq	r0, sp, r2
    1940:	00000192 	muleq	r0, r2, r1
    1944:	00000194 	muleq	r0, r4, r1
    1948:	087d0002 	ldmdaeq	sp!, {r1}^
    194c:	00000194 	muleq	r0, r4, r1
    1950:	00000196 	muleq	r0, r6, r1
    1954:	187d0002 	ldmdane	sp!, {r1}^
    1958:	00000196 	muleq	r0, r6, r1
    195c:	000001c8 	andeq	r0, r0, r8, asr #3
    1960:	18770002 	ldmdane	r7!, {r1}^
    1964:	000001c8 	andeq	r0, r0, r8, asr #3
    1968:	000001ca 	andeq	r0, r0, sl, asr #3
    196c:	08770002 	ldmdaeq	r7!, {r1}^
    1970:	000001ca 	andeq	r0, r0, sl, asr #3
    1974:	000001cc 	andeq	r0, r0, ip, asr #3
    1978:	087d0002 	ldmdaeq	sp!, {r1}^
	...
    1984:	00000154 	andeq	r0, r0, r4, asr r1
    1988:	00000156 	andeq	r0, r0, r6, asr r1
    198c:	007d0002 	rsbseq	r0, sp, r2
    1990:	00000156 	andeq	r0, r0, r6, asr r1
    1994:	00000158 	andeq	r0, r0, r8, asr r1
    1998:	087d0002 	ldmdaeq	sp!, {r1}^
    199c:	00000158 	andeq	r0, r0, r8, asr r1
    19a0:	0000015a 	andeq	r0, r0, sl, asr r1
    19a4:	187d0002 	ldmdane	sp!, {r1}^
    19a8:	0000015a 	andeq	r0, r0, sl, asr r1
    19ac:	0000018c 	andeq	r0, r0, ip, lsl #3
    19b0:	18770002 	ldmdane	r7!, {r1}^
    19b4:	0000018c 	andeq	r0, r0, ip, lsl #3
    19b8:	0000018e 	andeq	r0, r0, lr, lsl #3
    19bc:	08770002 	ldmdaeq	r7!, {r1}^
    19c0:	0000018e 	andeq	r0, r0, lr, lsl #3
    19c4:	00000190 	muleq	r0, r0, r1
    19c8:	087d0002 	ldmdaeq	sp!, {r1}^
	...
    19d4:	000000dc 	ldrdeq	r0, [r0], -ip
    19d8:	000000de 	ldrdeq	r0, [r0], -lr
    19dc:	007d0002 	rsbseq	r0, sp, r2
    19e0:	000000de 	ldrdeq	r0, [r0], -lr
    19e4:	000000e0 	andeq	r0, r0, r0, ror #1
    19e8:	087d0002 	ldmdaeq	sp!, {r1}^
    19ec:	000000e0 	andeq	r0, r0, r0, ror #1
    19f0:	000000e2 	andeq	r0, r0, r2, ror #1
    19f4:	187d0002 	ldmdane	sp!, {r1}^
    19f8:	000000e2 	andeq	r0, r0, r2, ror #1
    19fc:	0000014a 	andeq	r0, r0, sl, asr #2
    1a00:	18770002 	ldmdane	r7!, {r1}^
    1a04:	0000014a 	andeq	r0, r0, sl, asr #2
    1a08:	0000014c 	andeq	r0, r0, ip, asr #2
    1a0c:	08770002 	ldmdaeq	r7!, {r1}^
    1a10:	0000014c 	andeq	r0, r0, ip, asr #2
    1a14:	00000154 	andeq	r0, r0, r4, asr r1
    1a18:	087d0002 	ldmdaeq	sp!, {r1}^
	...
    1a24:	00000098 	muleq	r0, r8, r0
    1a28:	0000009a 	muleq	r0, sl, r0
    1a2c:	007d0002 	rsbseq	r0, sp, r2
    1a30:	0000009a 	muleq	r0, sl, r0
    1a34:	0000009c 	muleq	r0, ip, r0
    1a38:	087d0002 	ldmdaeq	sp!, {r1}^
    1a3c:	0000009c 	muleq	r0, ip, r0
    1a40:	0000009e 	muleq	r0, lr, r0
    1a44:	187d0002 	ldmdane	sp!, {r1}^
    1a48:	0000009e 	muleq	r0, lr, r0
    1a4c:	000000d2 	ldrdeq	r0, [r0], -r2
    1a50:	18770002 	ldmdane	r7!, {r1}^
    1a54:	000000d2 	ldrdeq	r0, [r0], -r2
    1a58:	000000d4 	ldrdeq	r0, [r0], -r4
    1a5c:	08770002 	ldmdaeq	r7!, {r1}^
    1a60:	000000d4 	ldrdeq	r0, [r0], -r4
    1a64:	000000dc 	ldrdeq	r0, [r0], -ip
    1a68:	087d0002 	ldmdaeq	sp!, {r1}^
	...
    1a74:	0000003c 	andeq	r0, r0, ip, lsr r0
    1a78:	0000003e 	andeq	r0, r0, lr, lsr r0
    1a7c:	007d0002 	rsbseq	r0, sp, r2
    1a80:	0000003e 	andeq	r0, r0, lr, lsr r0
    1a84:	00000040 	andeq	r0, r0, r0, asr #32
    1a88:	087d0002 	ldmdaeq	sp!, {r1}^
    1a8c:	00000040 	andeq	r0, r0, r0, asr #32
    1a90:	00000042 	andeq	r0, r0, r2, asr #32
    1a94:	207d0002 	rsbscs	r0, sp, r2
    1a98:	00000042 	andeq	r0, r0, r2, asr #32
    1a9c:	00000090 	muleq	r0, r0, r0
    1aa0:	18770002 	ldmdane	r7!, {r1}^
    1aa4:	00000090 	muleq	r0, r0, r0
    1aa8:	00000092 	muleq	r0, r2, r0
    1aac:	08770002 	ldmdaeq	r7!, {r1}^
    1ab0:	00000092 	muleq	r0, r2, r0
    1ab4:	00000098 	muleq	r0, r8, r0
    1ab8:	087d0002 	ldmdaeq	sp!, {r1}^
	...
    1ac8:	00000002 	andeq	r0, r0, r2
    1acc:	007d0002 	rsbseq	r0, sp, r2
    1ad0:	00000002 	andeq	r0, r0, r2
    1ad4:	00000004 	andeq	r0, r0, r4
    1ad8:	087d0002 	ldmdaeq	sp!, {r1}^
    1adc:	00000004 	andeq	r0, r0, r4
    1ae0:	00000006 	andeq	r0, r0, r6
    1ae4:	187d0002 	ldmdane	sp!, {r1}^
    1ae8:	00000006 	andeq	r0, r0, r6
    1aec:	00000038 	andeq	r0, r0, r8, lsr r0
    1af0:	18770002 	ldmdane	r7!, {r1}^
    1af4:	00000038 	andeq	r0, r0, r8, lsr r0
    1af8:	0000003a 	andeq	r0, r0, sl, lsr r0
    1afc:	08770002 	ldmdaeq	r7!, {r1}^
    1b00:	0000003a 	andeq	r0, r0, sl, lsr r0
    1b04:	0000003c 	andeq	r0, r0, ip, lsr r0
    1b08:	087d0002 	ldmdaeq	sp!, {r1}^
	...
    1b14:	00000292 	muleq	r0, r2, r2
    1b18:	00000294 	muleq	r0, r4, r2
    1b1c:	007d0002 	rsbseq	r0, sp, r2
    1b20:	00000294 	muleq	r0, r4, r2
    1b24:	00000296 	muleq	r0, r6, r2
    1b28:	087d0002 	ldmdaeq	sp!, {r1}^
    1b2c:	00000296 	muleq	r0, r6, r2
    1b30:	00000298 	muleq	r0, r8, r2
    1b34:	187d0002 	ldmdane	sp!, {r1}^
    1b38:	00000298 	muleq	r0, r8, r2
    1b3c:	000002ca 	andeq	r0, r0, sl, asr #5
    1b40:	18770002 	ldmdane	r7!, {r1}^
    1b44:	000002ca 	andeq	r0, r0, sl, asr #5
    1b48:	000002cc 	andeq	r0, r0, ip, asr #5
    1b4c:	08770002 	ldmdaeq	r7!, {r1}^
    1b50:	000002cc 	andeq	r0, r0, ip, asr #5
    1b54:	000002ce 	andeq	r0, r0, lr, asr #5
    1b58:	087d0002 	ldmdaeq	sp!, {r1}^
	...
    1b64:	0000025c 	andeq	r0, r0, ip, asr r2
    1b68:	0000025e 	andeq	r0, r0, lr, asr r2
    1b6c:	007d0002 	rsbseq	r0, sp, r2
    1b70:	0000025e 	andeq	r0, r0, lr, asr r2
    1b74:	00000260 	andeq	r0, r0, r0, ror #4
    1b78:	087d0002 	ldmdaeq	sp!, {r1}^
    1b7c:	00000260 	andeq	r0, r0, r0, ror #4
    1b80:	00000262 	andeq	r0, r0, r2, ror #4
    1b84:	187d0002 	ldmdane	sp!, {r1}^
    1b88:	00000262 	andeq	r0, r0, r2, ror #4
    1b8c:	0000028e 	andeq	r0, r0, lr, lsl #5
    1b90:	18770002 	ldmdane	r7!, {r1}^
    1b94:	0000028e 	andeq	r0, r0, lr, lsl #5
    1b98:	00000290 	muleq	r0, r0, r2
    1b9c:	08770002 	ldmdaeq	r7!, {r1}^
    1ba0:	00000290 	muleq	r0, r0, r2
    1ba4:	00000292 	muleq	r0, r2, r2
    1ba8:	087d0002 	ldmdaeq	sp!, {r1}^
	...
    1bb4:	00000220 	andeq	r0, r0, r0, lsr #4
    1bb8:	00000222 	andeq	r0, r0, r2, lsr #4
    1bbc:	007d0002 	rsbseq	r0, sp, r2
    1bc0:	00000222 	andeq	r0, r0, r2, lsr #4
    1bc4:	00000224 	andeq	r0, r0, r4, lsr #4
    1bc8:	087d0002 	ldmdaeq	sp!, {r1}^
    1bcc:	00000224 	andeq	r0, r0, r4, lsr #4
    1bd0:	00000226 	andeq	r0, r0, r6, lsr #4
    1bd4:	187d0002 	ldmdane	sp!, {r1}^
    1bd8:	00000226 	andeq	r0, r0, r6, lsr #4
    1bdc:	00000258 	andeq	r0, r0, r8, asr r2
    1be0:	18770002 	ldmdane	r7!, {r1}^
    1be4:	00000258 	andeq	r0, r0, r8, asr r2
    1be8:	0000025a 	andeq	r0, r0, sl, asr r2
    1bec:	08770002 	ldmdaeq	r7!, {r1}^
    1bf0:	0000025a 	andeq	r0, r0, sl, asr r2
    1bf4:	0000025c 	andeq	r0, r0, ip, asr r2
    1bf8:	087d0002 	ldmdaeq	sp!, {r1}^
	...
    1c04:	00000140 	andeq	r0, r0, r0, asr #2
    1c08:	00000142 	andeq	r0, r0, r2, asr #2
    1c0c:	007d0002 	rsbseq	r0, sp, r2
    1c10:	00000142 	andeq	r0, r0, r2, asr #2
    1c14:	00000144 	andeq	r0, r0, r4, asr #2
    1c18:	087d0002 	ldmdaeq	sp!, {r1}^
    1c1c:	00000144 	andeq	r0, r0, r4, asr #2
    1c20:	00000146 	andeq	r0, r0, r6, asr #2
    1c24:	207d0002 	rsbscs	r0, sp, r2
    1c28:	00000146 	andeq	r0, r0, r6, asr #2
    1c2c:	00000214 	andeq	r0, r0, r4, lsl r2
    1c30:	20770002 	rsbscs	r0, r7, r2
    1c34:	00000214 	andeq	r0, r0, r4, lsl r2
    1c38:	00000216 	andeq	r0, r0, r6, lsl r2
    1c3c:	08770002 	ldmdaeq	r7!, {r1}^
    1c40:	00000216 	andeq	r0, r0, r6, lsl r2
    1c44:	00000220 	andeq	r0, r0, r0, lsr #4
    1c48:	087d0002 	ldmdaeq	sp!, {r1}^
	...
    1c54:	000000d0 	ldrdeq	r0, [r0], -r0	; <UNPREDICTABLE>
    1c58:	000000d2 	ldrdeq	r0, [r0], -r2
    1c5c:	007d0002 	rsbseq	r0, sp, r2
    1c60:	000000d2 	ldrdeq	r0, [r0], -r2
    1c64:	000000d4 	ldrdeq	r0, [r0], -r4
    1c68:	087d0002 	ldmdaeq	sp!, {r1}^
    1c6c:	000000d4 	ldrdeq	r0, [r0], -r4
    1c70:	000000d6 	ldrdeq	r0, [r0], -r6
    1c74:	187d0002 	ldmdane	sp!, {r1}^
    1c78:	000000d6 	ldrdeq	r0, [r0], -r6
    1c7c:	00000136 	andeq	r0, r0, r6, lsr r1
    1c80:	18770002 	ldmdane	r7!, {r1}^
    1c84:	00000136 	andeq	r0, r0, r6, lsr r1
    1c88:	00000138 	andeq	r0, r0, r8, lsr r1
    1c8c:	08770002 	ldmdaeq	r7!, {r1}^
    1c90:	00000138 	andeq	r0, r0, r8, lsr r1
    1c94:	00000140 	andeq	r0, r0, r0, asr #2
    1c98:	087d0002 	ldmdaeq	sp!, {r1}^
	...
    1ca4:	0000003e 	andeq	r0, r0, lr, lsr r0
    1ca8:	00000040 	andeq	r0, r0, r0, asr #32
    1cac:	007d0002 	rsbseq	r0, sp, r2
    1cb0:	00000040 	andeq	r0, r0, r0, asr #32
    1cb4:	00000042 	andeq	r0, r0, r2, asr #32
    1cb8:	087d0002 	ldmdaeq	sp!, {r1}^
    1cbc:	00000042 	andeq	r0, r0, r2, asr #32
    1cc0:	00000044 	andeq	r0, r0, r4, asr #32
    1cc4:	287d0002 	ldmdacs	sp!, {r1}^
    1cc8:	00000044 	andeq	r0, r0, r4, asr #32
    1ccc:	000000c8 	andeq	r0, r0, r8, asr #1
    1cd0:	20770002 	rsbscs	r0, r7, r2
    1cd4:	000000c8 	andeq	r0, r0, r8, asr #1
    1cd8:	000000ca 	andeq	r0, r0, sl, asr #1
    1cdc:	08770002 	ldmdaeq	r7!, {r1}^
    1ce0:	000000ca 	andeq	r0, r0, sl, asr #1
    1ce4:	000000d0 	ldrdeq	r0, [r0], -r0	; <UNPREDICTABLE>
    1ce8:	087d0002 	ldmdaeq	sp!, {r1}^
	...
    1cf8:	00000002 	andeq	r0, r0, r2
    1cfc:	007d0002 	rsbseq	r0, sp, r2
    1d00:	00000002 	andeq	r0, r0, r2
    1d04:	00000004 	andeq	r0, r0, r4
    1d08:	087d0002 	ldmdaeq	sp!, {r1}^
    1d0c:	00000004 	andeq	r0, r0, r4
    1d10:	00000006 	andeq	r0, r0, r6
    1d14:	187d0002 	ldmdane	sp!, {r1}^
    1d18:	00000006 	andeq	r0, r0, r6
    1d1c:	0000003a 	andeq	r0, r0, sl, lsr r0
    1d20:	18770002 	ldmdane	r7!, {r1}^
    1d24:	0000003a 	andeq	r0, r0, sl, lsr r0
    1d28:	0000003c 	andeq	r0, r0, ip, lsr r0
    1d2c:	08770002 	ldmdaeq	r7!, {r1}^
    1d30:	0000003c 	andeq	r0, r0, ip, lsr r0
    1d34:	0000003e 	andeq	r0, r0, lr, lsr r0
    1d38:	087d0002 	ldmdaeq	sp!, {r1}^
	...
    1d44:	000001e8 	andeq	r0, r0, r8, ror #3
    1d48:	000001ea 	andeq	r0, r0, sl, ror #3
    1d4c:	007d0002 	rsbseq	r0, sp, r2
    1d50:	000001ea 	andeq	r0, r0, sl, ror #3
    1d54:	000001ec 	andeq	r0, r0, ip, ror #3
    1d58:	087d0002 	ldmdaeq	sp!, {r1}^
    1d5c:	000001ec 	andeq	r0, r0, ip, ror #3
    1d60:	000001ee 	andeq	r0, r0, lr, ror #3
    1d64:	187d0002 	ldmdane	sp!, {r1}^
    1d68:	000001ee 	andeq	r0, r0, lr, ror #3
    1d6c:	0000021a 	andeq	r0, r0, sl, lsl r2
    1d70:	18770002 	ldmdane	r7!, {r1}^
    1d74:	0000021a 	andeq	r0, r0, sl, lsl r2
    1d78:	0000021c 	andeq	r0, r0, ip, lsl r2
    1d7c:	08770002 	ldmdaeq	r7!, {r1}^
    1d80:	0000021c 	andeq	r0, r0, ip, lsl r2
    1d84:	0000021e 	andeq	r0, r0, lr, lsl r2
    1d88:	087d0002 	ldmdaeq	sp!, {r1}^
	...
    1d94:	0000019c 	muleq	r0, ip, r1
    1d98:	0000019e 	muleq	r0, lr, r1
    1d9c:	007d0002 	rsbseq	r0, sp, r2
    1da0:	0000019e 	muleq	r0, lr, r1
    1da4:	000001a0 	andeq	r0, r0, r0, lsr #3
    1da8:	087d0002 	ldmdaeq	sp!, {r1}^
    1dac:	000001a0 	andeq	r0, r0, r0, lsr #3
    1db0:	000001a2 	andeq	r0, r0, r2, lsr #3
    1db4:	187d0002 	ldmdane	sp!, {r1}^
    1db8:	000001a2 	andeq	r0, r0, r2, lsr #3
    1dbc:	000001e4 	andeq	r0, r0, r4, ror #3
    1dc0:	18770002 	ldmdane	r7!, {r1}^
    1dc4:	000001e4 	andeq	r0, r0, r4, ror #3
    1dc8:	000001e6 	andeq	r0, r0, r6, ror #3
    1dcc:	08770002 	ldmdaeq	r7!, {r1}^
    1dd0:	000001e6 	andeq	r0, r0, r6, ror #3
    1dd4:	000001e8 	andeq	r0, r0, r8, ror #3
    1dd8:	087d0002 	ldmdaeq	sp!, {r1}^
	...
    1de4:	0000013e 	andeq	r0, r0, lr, lsr r1
    1de8:	00000140 	andeq	r0, r0, r0, asr #2
    1dec:	007d0002 	rsbseq	r0, sp, r2
    1df0:	00000140 	andeq	r0, r0, r0, asr #2
    1df4:	00000142 	andeq	r0, r0, r2, asr #2
    1df8:	087d0002 	ldmdaeq	sp!, {r1}^
    1dfc:	00000142 	andeq	r0, r0, r2, asr #2
    1e00:	00000144 	andeq	r0, r0, r4, asr #2
    1e04:	187d0002 	ldmdane	sp!, {r1}^
    1e08:	00000144 	andeq	r0, r0, r4, asr #2
    1e0c:	00000194 	muleq	r0, r4, r1
    1e10:	18770002 	ldmdane	r7!, {r1}^
    1e14:	00000194 	muleq	r0, r4, r1
    1e18:	00000196 	muleq	r0, r6, r1
    1e1c:	08770002 	ldmdaeq	r7!, {r1}^
    1e20:	00000196 	muleq	r0, r6, r1
    1e24:	0000019c 	muleq	r0, ip, r1
    1e28:	087d0002 	ldmdaeq	sp!, {r1}^
	...
    1e34:	000000f4 	strdeq	r0, [r0], -r4
    1e38:	000000f6 	strdeq	r0, [r0], -r6
    1e3c:	007d0002 	rsbseq	r0, sp, r2
    1e40:	000000f6 	strdeq	r0, [r0], -r6
    1e44:	000000f8 	strdeq	r0, [r0], -r8
    1e48:	087d0002 	ldmdaeq	sp!, {r1}^
    1e4c:	000000f8 	strdeq	r0, [r0], -r8
    1e50:	000000fa 	strdeq	r0, [r0], -sl
    1e54:	187d0002 	ldmdane	sp!, {r1}^
    1e58:	000000fa 	strdeq	r0, [r0], -sl
    1e5c:	0000013a 	andeq	r0, r0, sl, lsr r1
    1e60:	18770002 	ldmdane	r7!, {r1}^
    1e64:	0000013a 	andeq	r0, r0, sl, lsr r1
    1e68:	0000013c 	andeq	r0, r0, ip, lsr r1
    1e6c:	08770002 	ldmdaeq	r7!, {r1}^
    1e70:	0000013c 	andeq	r0, r0, ip, lsr r1
    1e74:	0000013e 	andeq	r0, r0, lr, lsr r1
    1e78:	087d0002 	ldmdaeq	sp!, {r1}^
	...
    1e84:	0000007e 	andeq	r0, r0, lr, ror r0
    1e88:	00000080 	andeq	r0, r0, r0, lsl #1
    1e8c:	007d0002 	rsbseq	r0, sp, r2
    1e90:	00000080 	andeq	r0, r0, r0, lsl #1
    1e94:	00000082 	andeq	r0, r0, r2, lsl #1
    1e98:	087d0002 	ldmdaeq	sp!, {r1}^
    1e9c:	00000082 	andeq	r0, r0, r2, lsl #1
    1ea0:	00000084 	andeq	r0, r0, r4, lsl #1
    1ea4:	287d0002 	ldmdacs	sp!, {r1}^
    1ea8:	00000084 	andeq	r0, r0, r4, lsl #1
    1eac:	000000ec 	andeq	r0, r0, ip, ror #1
    1eb0:	20770002 	rsbscs	r0, r7, r2
    1eb4:	000000ec 	andeq	r0, r0, ip, ror #1
    1eb8:	000000ee 	andeq	r0, r0, lr, ror #1
    1ebc:	08770002 	ldmdaeq	r7!, {r1}^
    1ec0:	000000ee 	andeq	r0, r0, lr, ror #1
    1ec4:	000000f4 	strdeq	r0, [r0], -r4
    1ec8:	087d0002 	ldmdaeq	sp!, {r1}^
	...
    1ed8:	00000002 	andeq	r0, r0, r2
    1edc:	007d0002 	rsbseq	r0, sp, r2
    1ee0:	00000002 	andeq	r0, r0, r2
    1ee4:	00000004 	andeq	r0, r0, r4
    1ee8:	087d0002 	ldmdaeq	sp!, {r1}^
    1eec:	00000004 	andeq	r0, r0, r4
    1ef0:	00000006 	andeq	r0, r0, r6
    1ef4:	207d0002 	rsbscs	r0, sp, r2
    1ef8:	00000006 	andeq	r0, r0, r6
    1efc:	0000007a 	andeq	r0, r0, sl, ror r0
    1f00:	20770002 	rsbscs	r0, r7, r2
    1f04:	0000007a 	andeq	r0, r0, sl, ror r0
    1f08:	0000007c 	andeq	r0, r0, ip, ror r0
    1f0c:	08770002 	ldmdaeq	r7!, {r1}^
    1f10:	0000007c 	andeq	r0, r0, ip, ror r0
    1f14:	0000007e 	andeq	r0, r0, lr, ror r0
    1f18:	087d0002 	ldmdaeq	sp!, {r1}^
	...
    1f24:	00000250 	andeq	r0, r0, r0, asr r2
    1f28:	00000252 	andeq	r0, r0, r2, asr r2
    1f2c:	007d0002 	rsbseq	r0, sp, r2
    1f30:	00000252 	andeq	r0, r0, r2, asr r2
    1f34:	00000254 	andeq	r0, r0, r4, asr r2
    1f38:	087d0002 	ldmdaeq	sp!, {r1}^
    1f3c:	00000254 	andeq	r0, r0, r4, asr r2
    1f40:	00000256 	andeq	r0, r0, r6, asr r2
    1f44:	107d0002 	rsbsne	r0, sp, r2
    1f48:	00000256 	andeq	r0, r0, r6, asr r2
    1f4c:	0000028a 	andeq	r0, r0, sl, lsl #5
    1f50:	08770002 	ldmdaeq	r7!, {r1}^
    1f54:	0000028a 	andeq	r0, r0, sl, lsl #5
    1f58:	000002a8 	andeq	r0, r0, r8, lsr #5
    1f5c:	087d0002 	ldmdaeq	sp!, {r1}^
	...
    1f68:	00000220 	andeq	r0, r0, r0, lsr #4
    1f6c:	00000222 	andeq	r0, r0, r2, lsr #4
    1f70:	007d0002 	rsbseq	r0, sp, r2
    1f74:	00000222 	andeq	r0, r0, r2, lsr #4
    1f78:	00000224 	andeq	r0, r0, r4, lsr #4
    1f7c:	087d0002 	ldmdaeq	sp!, {r1}^
    1f80:	00000224 	andeq	r0, r0, r4, lsr #4
    1f84:	00000226 	andeq	r0, r0, r6, lsr #4
    1f88:	107d0002 	rsbsne	r0, sp, r2
    1f8c:	00000226 	andeq	r0, r0, r6, lsr #4
    1f90:	00000242 	andeq	r0, r0, r2, asr #4
    1f94:	10770002 	rsbsne	r0, r7, r2
    1f98:	00000242 	andeq	r0, r0, r2, asr #4
    1f9c:	00000244 	andeq	r0, r0, r4, asr #4
    1fa0:	08770002 	ldmdaeq	r7!, {r1}^
    1fa4:	00000244 	andeq	r0, r0, r4, asr #4
    1fa8:	00000250 	andeq	r0, r0, r0, asr r2
    1fac:	087d0002 	ldmdaeq	sp!, {r1}^
	...
    1fb8:	000001ec 	andeq	r0, r0, ip, ror #3
    1fbc:	000001ee 	andeq	r0, r0, lr, ror #3
    1fc0:	007d0002 	rsbseq	r0, sp, r2
    1fc4:	000001ee 	andeq	r0, r0, lr, ror #3
    1fc8:	000001f0 	strdeq	r0, [r0], -r0	; <UNPREDICTABLE>
    1fcc:	087d0002 	ldmdaeq	sp!, {r1}^
    1fd0:	000001f0 	strdeq	r0, [r0], -r0	; <UNPREDICTABLE>
    1fd4:	000001f2 	strdeq	r0, [r0], -r2
    1fd8:	107d0002 	rsbsne	r0, sp, r2
    1fdc:	000001f2 	strdeq	r0, [r0], -r2
    1fe0:	00000220 	andeq	r0, r0, r0, lsr #4
    1fe4:	10770002 	rsbsne	r0, r7, r2
	...
    1ff0:	000001ce 	andeq	r0, r0, lr, asr #3
    1ff4:	000001d0 	ldrdeq	r0, [r0], -r0	; <UNPREDICTABLE>
    1ff8:	007d0002 	rsbseq	r0, sp, r2
    1ffc:	000001d0 	ldrdeq	r0, [r0], -r0	; <UNPREDICTABLE>
    2000:	000001d2 	ldrdeq	r0, [r0], -r2
    2004:	087d0002 	ldmdaeq	sp!, {r1}^
    2008:	000001d2 	ldrdeq	r0, [r0], -r2
    200c:	000001d4 	ldrdeq	r0, [r0], -r4
    2010:	107d0002 	rsbsne	r0, sp, r2
    2014:	000001d4 	ldrdeq	r0, [r0], -r4
    2018:	000001e8 	andeq	r0, r0, r8, ror #3
    201c:	10770002 	rsbsne	r0, r7, r2
    2020:	000001e8 	andeq	r0, r0, r8, ror #3
    2024:	000001ea 	andeq	r0, r0, sl, ror #3
    2028:	08770002 	ldmdaeq	r7!, {r1}^
    202c:	000001ea 	andeq	r0, r0, sl, ror #3
    2030:	000001ec 	andeq	r0, r0, ip, ror #3
    2034:	087d0002 	ldmdaeq	sp!, {r1}^
	...
    2040:	00000154 	andeq	r0, r0, r4, asr r1
    2044:	00000156 	andeq	r0, r0, r6, asr r1
    2048:	007d0002 	rsbseq	r0, sp, r2
    204c:	00000156 	andeq	r0, r0, r6, asr r1
    2050:	00000158 	andeq	r0, r0, r8, asr r1
    2054:	087d0002 	ldmdaeq	sp!, {r1}^
    2058:	00000158 	andeq	r0, r0, r8, asr r1
    205c:	0000015a 	andeq	r0, r0, sl, asr r1
    2060:	187d0002 	ldmdane	sp!, {r1}^
    2064:	0000015a 	andeq	r0, r0, sl, asr r1
    2068:	000001ca 	andeq	r0, r0, sl, asr #3
    206c:	18770002 	ldmdane	r7!, {r1}^
    2070:	000001ca 	andeq	r0, r0, sl, asr #3
    2074:	000001cc 	andeq	r0, r0, ip, asr #3
    2078:	08770002 	ldmdaeq	r7!, {r1}^
    207c:	000001cc 	andeq	r0, r0, ip, asr #3
    2080:	000001ce 	andeq	r0, r0, lr, asr #3
    2084:	087d0002 	ldmdaeq	sp!, {r1}^
	...
    2090:	000000e4 	andeq	r0, r0, r4, ror #1
    2094:	000000e6 	andeq	r0, r0, r6, ror #1
    2098:	007d0002 	rsbseq	r0, sp, r2
    209c:	000000e6 	andeq	r0, r0, r6, ror #1
    20a0:	000000e8 	andeq	r0, r0, r8, ror #1
    20a4:	087d0002 	ldmdaeq	sp!, {r1}^
    20a8:	000000e8 	andeq	r0, r0, r8, ror #1
    20ac:	000000ea 	andeq	r0, r0, sl, ror #1
    20b0:	187d0002 	ldmdane	sp!, {r1}^
    20b4:	000000ea 	andeq	r0, r0, sl, ror #1
    20b8:	00000144 	andeq	r0, r0, r4, asr #2
    20bc:	18770002 	ldmdane	r7!, {r1}^
    20c0:	00000144 	andeq	r0, r0, r4, asr #2
    20c4:	00000146 	andeq	r0, r0, r6, asr #2
    20c8:	08770002 	ldmdaeq	r7!, {r1}^
    20cc:	00000146 	andeq	r0, r0, r6, asr #2
    20d0:	00000154 	andeq	r0, r0, r4, asr r1
    20d4:	087d0002 	ldmdaeq	sp!, {r1}^
	...
    20e0:	0000005a 	andeq	r0, r0, sl, asr r0
    20e4:	0000005c 	andeq	r0, r0, ip, asr r0
    20e8:	007d0002 	rsbseq	r0, sp, r2
    20ec:	0000005c 	andeq	r0, r0, ip, asr r0
    20f0:	0000005e 	andeq	r0, r0, lr, asr r0
    20f4:	087d0002 	ldmdaeq	sp!, {r1}^
    20f8:	0000005e 	andeq	r0, r0, lr, asr r0
    20fc:	00000060 	andeq	r0, r0, r0, rrx
    2100:	187d0002 	ldmdane	sp!, {r1}^
    2104:	00000060 	andeq	r0, r0, r0, rrx
    2108:	000000d2 	ldrdeq	r0, [r0], -r2
    210c:	18770002 	ldmdane	r7!, {r1}^
    2110:	000000d2 	ldrdeq	r0, [r0], -r2
    2114:	000000d4 	ldrdeq	r0, [r0], -r4
    2118:	08770002 	ldmdaeq	r7!, {r1}^
    211c:	000000d4 	ldrdeq	r0, [r0], -r4
    2120:	000000e4 	andeq	r0, r0, r4, ror #1
    2124:	087d0002 	ldmdaeq	sp!, {r1}^
	...
    2134:	00000002 	andeq	r0, r0, r2
    2138:	007d0002 	rsbseq	r0, sp, r2
    213c:	00000002 	andeq	r0, r0, r2
    2140:	00000004 	andeq	r0, r0, r4
    2144:	087d0002 	ldmdaeq	sp!, {r1}^
    2148:	00000004 	andeq	r0, r0, r4
    214c:	00000006 	andeq	r0, r0, r6
    2150:	187d0002 	ldmdane	sp!, {r1}^
    2154:	00000006 	andeq	r0, r0, r6
    2158:	00000056 	andeq	r0, r0, r6, asr r0
    215c:	18770002 	ldmdane	r7!, {r1}^
    2160:	00000056 	andeq	r0, r0, r6, asr r0
    2164:	00000058 	andeq	r0, r0, r8, asr r0
    2168:	08770002 	ldmdaeq	r7!, {r1}^
    216c:	00000058 	andeq	r0, r0, r8, asr r0
    2170:	0000005a 	andeq	r0, r0, sl, asr r0
    2174:	087d0002 	ldmdaeq	sp!, {r1}^
	...
    2180:	000002e0 	andeq	r0, r0, r0, ror #5
    2184:	000002e2 	andeq	r0, r0, r2, ror #5
    2188:	007d0002 	rsbseq	r0, sp, r2
    218c:	000002e2 	andeq	r0, r0, r2, ror #5
    2190:	000002e4 	andeq	r0, r0, r4, ror #5
    2194:	087d0002 	ldmdaeq	sp!, {r1}^
    2198:	000002e4 	andeq	r0, r0, r4, ror #5
    219c:	000002e6 	andeq	r0, r0, r6, ror #5
    21a0:	187d0002 	ldmdane	sp!, {r1}^
    21a4:	000002e6 	andeq	r0, r0, r6, ror #5
    21a8:	0000033a 	andeq	r0, r0, sl, lsr r3
    21ac:	18770002 	ldmdane	r7!, {r1}^
    21b0:	0000033a 	andeq	r0, r0, sl, lsr r3
    21b4:	0000033c 	andeq	r0, r0, ip, lsr r3
    21b8:	08770002 	ldmdaeq	r7!, {r1}^
    21bc:	0000033c 	andeq	r0, r0, ip, lsr r3
    21c0:	0000033e 	andeq	r0, r0, lr, lsr r3
    21c4:	087d0002 	ldmdaeq	sp!, {r1}^
	...
    21d0:	0000025c 	andeq	r0, r0, ip, asr r2
    21d4:	0000025e 	andeq	r0, r0, lr, asr r2
    21d8:	007d0002 	rsbseq	r0, sp, r2
    21dc:	0000025e 	andeq	r0, r0, lr, asr r2
    21e0:	00000260 	andeq	r0, r0, r0, ror #4
    21e4:	087d0002 	ldmdaeq	sp!, {r1}^
    21e8:	00000260 	andeq	r0, r0, r0, ror #4
    21ec:	00000262 	andeq	r0, r0, r2, ror #4
    21f0:	187d0002 	ldmdane	sp!, {r1}^
    21f4:	00000262 	andeq	r0, r0, r2, ror #4
    21f8:	000002dc 	ldrdeq	r0, [r0], -ip
    21fc:	18770002 	ldmdane	r7!, {r1}^
    2200:	000002dc 	ldrdeq	r0, [r0], -ip
    2204:	000002de 	ldrdeq	r0, [r0], -lr
    2208:	08770002 	ldmdaeq	r7!, {r1}^
    220c:	000002de 	ldrdeq	r0, [r0], -lr
    2210:	000002e0 	andeq	r0, r0, r0, ror #5
    2214:	087d0002 	ldmdaeq	sp!, {r1}^
	...
    2220:	0000016c 	andeq	r0, r0, ip, ror #2
    2224:	0000016e 	andeq	r0, r0, lr, ror #2
    2228:	007d0002 	rsbseq	r0, sp, r2
    222c:	0000016e 	andeq	r0, r0, lr, ror #2
    2230:	00000170 	andeq	r0, r0, r0, ror r1
    2234:	087d0002 	ldmdaeq	sp!, {r1}^
    2238:	00000170 	andeq	r0, r0, r0, ror r1
    223c:	00000172 	andeq	r0, r0, r2, ror r1
    2240:	187d0002 	ldmdane	sp!, {r1}^
    2244:	00000172 	andeq	r0, r0, r2, ror r1
    2248:	00000252 	andeq	r0, r0, r2, asr r2
    224c:	18770002 	ldmdane	r7!, {r1}^
    2250:	00000252 	andeq	r0, r0, r2, asr r2
    2254:	00000254 	andeq	r0, r0, r4, asr r2
    2258:	08770002 	ldmdaeq	r7!, {r1}^
    225c:	00000254 	andeq	r0, r0, r4, asr r2
    2260:	0000025c 	andeq	r0, r0, ip, asr r2
    2264:	087d0002 	ldmdaeq	sp!, {r1}^
	...
    2270:	000000fc 	strdeq	r0, [r0], -ip
    2274:	000000fe 	strdeq	r0, [r0], -lr
    2278:	007d0002 	rsbseq	r0, sp, r2
    227c:	000000fe 	strdeq	r0, [r0], -lr
    2280:	00000100 	andeq	r0, r0, r0, lsl #2
    2284:	087d0002 	ldmdaeq	sp!, {r1}^
    2288:	00000100 	andeq	r0, r0, r0, lsl #2
    228c:	00000102 	andeq	r0, r0, r2, lsl #2
    2290:	187d0002 	ldmdane	sp!, {r1}^
    2294:	00000102 	andeq	r0, r0, r2, lsl #2
    2298:	00000164 	andeq	r0, r0, r4, ror #2
    229c:	18770002 	ldmdane	r7!, {r1}^
    22a0:	00000164 	andeq	r0, r0, r4, ror #2
    22a4:	00000166 	andeq	r0, r0, r6, ror #2
    22a8:	08770002 	ldmdaeq	r7!, {r1}^
    22ac:	00000166 	andeq	r0, r0, r6, ror #2
    22b0:	0000016c 	andeq	r0, r0, ip, ror #2
    22b4:	087d0002 	ldmdaeq	sp!, {r1}^
	...
    22c0:	0000002e 	andeq	r0, r0, lr, lsr #32
    22c4:	00000030 	andeq	r0, r0, r0, lsr r0
    22c8:	007d0002 	rsbseq	r0, sp, r2
    22cc:	00000030 	andeq	r0, r0, r0, lsr r0
    22d0:	00000032 	andeq	r0, r0, r2, lsr r0
    22d4:	087d0002 	ldmdaeq	sp!, {r1}^
    22d8:	00000032 	andeq	r0, r0, r2, lsr r0
    22dc:	00000034 	andeq	r0, r0, r4, lsr r0
    22e0:	207d0002 	rsbscs	r0, sp, r2
    22e4:	00000034 	andeq	r0, r0, r4, lsr r0
    22e8:	000000f4 	strdeq	r0, [r0], -r4
    22ec:	18770002 	ldmdane	r7!, {r1}^
    22f0:	000000f4 	strdeq	r0, [r0], -r4
    22f4:	000000f6 	strdeq	r0, [r0], -r6
    22f8:	08770002 	ldmdaeq	r7!, {r1}^
    22fc:	000000f6 	strdeq	r0, [r0], -r6
    2300:	000000fc 	strdeq	r0, [r0], -ip
    2304:	087d0002 	ldmdaeq	sp!, {r1}^
	...
    2314:	00000002 	andeq	r0, r0, r2
    2318:	007d0002 	rsbseq	r0, sp, r2
    231c:	00000002 	andeq	r0, r0, r2
    2320:	00000004 	andeq	r0, r0, r4
    2324:	087d0002 	ldmdaeq	sp!, {r1}^
    2328:	00000004 	andeq	r0, r0, r4
    232c:	00000006 	andeq	r0, r0, r6
    2330:	107d0002 	rsbsne	r0, sp, r2
    2334:	00000006 	andeq	r0, r0, r6
    2338:	0000002a 	andeq	r0, r0, sl, lsr #32
    233c:	10770002 	rsbsne	r0, r7, r2
    2340:	0000002a 	andeq	r0, r0, sl, lsr #32
    2344:	0000002c 	andeq	r0, r0, ip, lsr #32
    2348:	08770002 	ldmdaeq	r7!, {r1}^
    234c:	0000002c 	andeq	r0, r0, ip, lsr #32
    2350:	0000002e 	andeq	r0, r0, lr, lsr #32
    2354:	087d0002 	ldmdaeq	sp!, {r1}^
	...
    2360:	0000026e 	andeq	r0, r0, lr, ror #4
    2364:	00000270 	andeq	r0, r0, r0, ror r2
    2368:	007d0002 	rsbseq	r0, sp, r2
    236c:	00000270 	andeq	r0, r0, r0, ror r2
    2370:	00000272 	andeq	r0, r0, r2, ror r2
    2374:	087d0002 	ldmdaeq	sp!, {r1}^
    2378:	00000272 	andeq	r0, r0, r2, ror r2
    237c:	00000274 	andeq	r0, r0, r4, ror r2
    2380:	187d0002 	ldmdane	sp!, {r1}^
    2384:	00000274 	andeq	r0, r0, r4, ror r2
    2388:	000002a0 	andeq	r0, r0, r0, lsr #5
    238c:	18770002 	ldmdane	r7!, {r1}^
    2390:	000002a0 	andeq	r0, r0, r0, lsr #5
    2394:	000002a2 	andeq	r0, r0, r2, lsr #5
    2398:	08770002 	ldmdaeq	r7!, {r1}^
    239c:	000002a2 	andeq	r0, r0, r2, lsr #5
    23a0:	000002a4 	andeq	r0, r0, r4, lsr #5
    23a4:	087d0002 	ldmdaeq	sp!, {r1}^
	...
    23b0:	0000023a 	andeq	r0, r0, sl, lsr r2
    23b4:	0000023c 	andeq	r0, r0, ip, lsr r2
    23b8:	007d0002 	rsbseq	r0, sp, r2
    23bc:	0000023c 	andeq	r0, r0, ip, lsr r2
    23c0:	0000023e 	andeq	r0, r0, lr, lsr r2
    23c4:	087d0002 	ldmdaeq	sp!, {r1}^
    23c8:	0000023e 	andeq	r0, r0, lr, lsr r2
    23cc:	00000240 	andeq	r0, r0, r0, asr #4
    23d0:	187d0002 	ldmdane	sp!, {r1}^
    23d4:	00000240 	andeq	r0, r0, r0, asr #4
    23d8:	0000026a 	andeq	r0, r0, sl, ror #4
    23dc:	18770002 	ldmdane	r7!, {r1}^
    23e0:	0000026a 	andeq	r0, r0, sl, ror #4
    23e4:	0000026c 	andeq	r0, r0, ip, ror #4
    23e8:	08770002 	ldmdaeq	r7!, {r1}^
    23ec:	0000026c 	andeq	r0, r0, ip, ror #4
    23f0:	0000026e 	andeq	r0, r0, lr, ror #4
    23f4:	087d0002 	ldmdaeq	sp!, {r1}^
	...
    2400:	00000188 	andeq	r0, r0, r8, lsl #3
    2404:	0000018a 	andeq	r0, r0, sl, lsl #3
    2408:	007d0002 	rsbseq	r0, sp, r2
    240c:	0000018a 	andeq	r0, r0, sl, lsl #3
    2410:	0000018c 	andeq	r0, r0, ip, lsl #3
    2414:	087d0002 	ldmdaeq	sp!, {r1}^
    2418:	0000018c 	andeq	r0, r0, ip, lsl #3
    241c:	0000018e 	andeq	r0, r0, lr, lsl #3
    2420:	387d0002 	ldmdacc	sp!, {r1}^
    2424:	0000018e 	andeq	r0, r0, lr, lsl #3
    2428:	00000236 	andeq	r0, r0, r6, lsr r2
    242c:	38770002 	ldmdacc	r7!, {r1}^
    2430:	00000236 	andeq	r0, r0, r6, lsr r2
    2434:	00000238 	andeq	r0, r0, r8, lsr r2
    2438:	08770002 	ldmdaeq	r7!, {r1}^
    243c:	00000238 	andeq	r0, r0, r8, lsr r2
    2440:	0000023a 	andeq	r0, r0, sl, lsr r2
    2444:	087d0002 	ldmdaeq	sp!, {r1}^
	...
    2450:	0000014c 	andeq	r0, r0, ip, asr #2
    2454:	0000014e 	andeq	r0, r0, lr, asr #2
    2458:	007d0002 	rsbseq	r0, sp, r2
    245c:	0000014e 	andeq	r0, r0, lr, asr #2
    2460:	00000150 	andeq	r0, r0, r0, asr r1
    2464:	087d0002 	ldmdaeq	sp!, {r1}^
    2468:	00000150 	andeq	r0, r0, r0, asr r1
    246c:	00000152 	andeq	r0, r0, r2, asr r1
    2470:	287d0002 	ldmdacs	sp!, {r1}^
    2474:	00000152 	andeq	r0, r0, r2, asr r1
    2478:	00000184 	andeq	r0, r0, r4, lsl #3
    247c:	28770002 	ldmdacs	r7!, {r1}^
    2480:	00000184 	andeq	r0, r0, r4, lsl #3
    2484:	00000186 	andeq	r0, r0, r6, lsl #3
    2488:	08770002 	ldmdaeq	r7!, {r1}^
    248c:	00000186 	andeq	r0, r0, r6, lsl #3
    2490:	00000188 	andeq	r0, r0, r8, lsl #3
    2494:	087d0002 	ldmdaeq	sp!, {r1}^
	...
    24a0:	000000c8 	andeq	r0, r0, r8, asr #1
    24a4:	000000ca 	andeq	r0, r0, sl, asr #1
    24a8:	007d0002 	rsbseq	r0, sp, r2
    24ac:	000000ca 	andeq	r0, r0, sl, asr #1
    24b0:	000000cc 	andeq	r0, r0, ip, asr #1
    24b4:	087d0002 	ldmdaeq	sp!, {r1}^
    24b8:	000000cc 	andeq	r0, r0, ip, asr #1
    24bc:	000000ce 	andeq	r0, r0, lr, asr #1
    24c0:	307d0002 	rsbscc	r0, sp, r2
    24c4:	000000ce 	andeq	r0, r0, lr, asr #1
    24c8:	00000142 	andeq	r0, r0, r2, asr #2
    24cc:	28770002 	ldmdacs	r7!, {r1}^
    24d0:	00000142 	andeq	r0, r0, r2, asr #2
    24d4:	00000144 	andeq	r0, r0, r4, asr #2
    24d8:	08770002 	ldmdaeq	r7!, {r1}^
    24dc:	00000144 	andeq	r0, r0, r4, asr #2
    24e0:	0000014c 	andeq	r0, r0, ip, asr #2
    24e4:	087d0002 	ldmdaeq	sp!, {r1}^
	...
    24f0:	00000024 	andeq	r0, r0, r4, lsr #32
    24f4:	00000026 	andeq	r0, r0, r6, lsr #32
    24f8:	007d0002 	rsbseq	r0, sp, r2
    24fc:	00000026 	andeq	r0, r0, r6, lsr #32
    2500:	00000028 	andeq	r0, r0, r8, lsr #32
    2504:	047d0002 	ldrbteq	r0, [sp], #-2
    2508:	00000028 	andeq	r0, r0, r8, lsr #32
    250c:	0000002a 	andeq	r0, r0, sl, lsr #32
    2510:	307d0002 	rsbscc	r0, sp, r2
    2514:	0000002a 	andeq	r0, r0, sl, lsr #32
    2518:	000000c2 	andeq	r0, r0, r2, asr #1
    251c:	30770002 	rsbscc	r0, r7, r2
    2520:	000000c2 	andeq	r0, r0, r2, asr #1
    2524:	000000c4 	andeq	r0, r0, r4, asr #1
    2528:	04770002 	ldrbteq	r0, [r7], #-2
    252c:	000000c4 	andeq	r0, r0, r4, asr #1
    2530:	000000c6 	andeq	r0, r0, r6, asr #1
    2534:	047d0002 	ldrbteq	r0, [sp], #-2
    2538:	000000c6 	andeq	r0, r0, r6, asr #1
    253c:	000000c8 	andeq	r0, r0, r8, asr #1
    2540:	007d0002 	rsbseq	r0, sp, r2
	...
    2550:	00000002 	andeq	r0, r0, r2
    2554:	007d0002 	rsbseq	r0, sp, r2
    2558:	00000002 	andeq	r0, r0, r2
    255c:	00000004 	andeq	r0, r0, r4
    2560:	087d0002 	ldmdaeq	sp!, {r1}^
    2564:	00000004 	andeq	r0, r0, r4
    2568:	00000006 	andeq	r0, r0, r6
    256c:	107d0002 	rsbsne	r0, sp, r2
    2570:	00000006 	andeq	r0, r0, r6
    2574:	00000020 	andeq	r0, r0, r0, lsr #32
    2578:	10770002 	rsbsne	r0, r7, r2
    257c:	00000020 	andeq	r0, r0, r0, lsr #32
    2580:	00000022 	andeq	r0, r0, r2, lsr #32
    2584:	08770002 	ldmdaeq	r7!, {r1}^
    2588:	00000022 	andeq	r0, r0, r2, lsr #32
    258c:	00000024 	andeq	r0, r0, r4, lsr #32
    2590:	087d0002 	ldmdaeq	sp!, {r1}^
	...
    259c:	000000f8 	strdeq	r0, [r0], -r8
    25a0:	000000fa 	strdeq	r0, [r0], -sl
    25a4:	007d0002 	rsbseq	r0, sp, r2
    25a8:	000000fa 	strdeq	r0, [r0], -sl
    25ac:	000000fc 	strdeq	r0, [r0], -ip
    25b0:	087d0002 	ldmdaeq	sp!, {r1}^
    25b4:	000000fc 	strdeq	r0, [r0], -ip
    25b8:	000000fe 	strdeq	r0, [r0], -lr
    25bc:	107d0002 	rsbsne	r0, sp, r2
    25c0:	000000fe 	strdeq	r0, [r0], -lr
    25c4:	00000188 	andeq	r0, r0, r8, lsl #3
    25c8:	08770002 	ldmdaeq	r7!, {r1}^
	...
    25d4:	000000cc 	andeq	r0, r0, ip, asr #1
    25d8:	000000ce 	andeq	r0, r0, lr, asr #1
    25dc:	007d0002 	rsbseq	r0, sp, r2
    25e0:	000000ce 	andeq	r0, r0, lr, asr #1
    25e4:	000000d0 	ldrdeq	r0, [r0], -r0	; <UNPREDICTABLE>
    25e8:	087d0002 	ldmdaeq	sp!, {r1}^
    25ec:	000000d0 	ldrdeq	r0, [r0], -r0	; <UNPREDICTABLE>
    25f0:	000000d2 	ldrdeq	r0, [r0], -r2
    25f4:	107d0002 	rsbsne	r0, sp, r2
    25f8:	000000d2 	ldrdeq	r0, [r0], -r2
    25fc:	000000f8 	strdeq	r0, [r0], -r8
    2600:	10770002 	rsbsne	r0, r7, r2
	...
    260c:	000000ac 	andeq	r0, r0, ip, lsr #1
    2610:	000000ae 	andeq	r0, r0, lr, lsr #1
    2614:	007d0002 	rsbseq	r0, sp, r2
    2618:	000000ae 	andeq	r0, r0, lr, lsr #1
    261c:	000000b0 	strheq	r0, [r0], -r0	; <UNPREDICTABLE>
    2620:	087d0002 	ldmdaeq	sp!, {r1}^
    2624:	000000b0 	strheq	r0, [r0], -r0	; <UNPREDICTABLE>
    2628:	000000b2 	strheq	r0, [r0], -r2
    262c:	107d0002 	rsbsne	r0, sp, r2
    2630:	000000b2 	strheq	r0, [r0], -r2
    2634:	000000cc 	andeq	r0, r0, ip, asr #1
    2638:	10770002 	rsbsne	r0, r7, r2
	...
    2644:	00000074 	andeq	r0, r0, r4, ror r0
    2648:	00000076 	andeq	r0, r0, r6, ror r0
    264c:	007d0002 	rsbseq	r0, sp, r2
    2650:	00000076 	andeq	r0, r0, r6, ror r0
    2654:	00000078 	andeq	r0, r0, r8, ror r0
    2658:	087d0002 	ldmdaeq	sp!, {r1}^
    265c:	00000078 	andeq	r0, r0, r8, ror r0
    2660:	0000007a 	andeq	r0, r0, sl, ror r0
    2664:	207d0002 	rsbscs	r0, sp, r2
    2668:	0000007a 	andeq	r0, r0, sl, ror r0
    266c:	000000ac 	andeq	r0, r0, ip, lsr #1
    2670:	18770002 	ldmdane	r7!, {r1}^
	...
    267c:	00000038 	andeq	r0, r0, r8, lsr r0
    2680:	0000003a 	andeq	r0, r0, sl, lsr r0
    2684:	007d0002 	rsbseq	r0, sp, r2
    2688:	0000003a 	andeq	r0, r0, sl, lsr r0
    268c:	0000003c 	andeq	r0, r0, ip, lsr r0
    2690:	087d0002 	ldmdaeq	sp!, {r1}^
    2694:	0000003c 	andeq	r0, r0, ip, lsr r0
    2698:	0000003e 	andeq	r0, r0, lr, lsr r0
    269c:	107d0002 	rsbsne	r0, sp, r2
    26a0:	0000003e 	andeq	r0, r0, lr, lsr r0
    26a4:	00000074 	andeq	r0, r0, r4, ror r0
    26a8:	10770002 	rsbsne	r0, r7, r2
	...
    26b8:	00000002 	andeq	r0, r0, r2
    26bc:	007d0002 	rsbseq	r0, sp, r2
    26c0:	00000002 	andeq	r0, r0, r2
    26c4:	00000004 	andeq	r0, r0, r4
    26c8:	047d0002 	ldrbteq	r0, [sp], #-2
    26cc:	00000004 	andeq	r0, r0, r4
    26d0:	00000006 	andeq	r0, r0, r6
    26d4:	107d0002 	rsbsne	r0, sp, r2
    26d8:	00000006 	andeq	r0, r0, r6
    26dc:	0000002a 	andeq	r0, r0, sl, lsr #32
    26e0:	10770002 	rsbsne	r0, r7, r2
    26e4:	0000002a 	andeq	r0, r0, sl, lsr #32
    26e8:	0000002c 	andeq	r0, r0, ip, lsr #32
    26ec:	04770002 	ldrbteq	r0, [r7], #-2
    26f0:	0000002c 	andeq	r0, r0, ip, lsr #32
    26f4:	0000002e 	andeq	r0, r0, lr, lsr #32
    26f8:	047d0002 	ldrbteq	r0, [sp], #-2
    26fc:	0000002e 	andeq	r0, r0, lr, lsr #32
    2700:	00000038 	andeq	r0, r0, r8, lsr r0
    2704:	007d0002 	rsbseq	r0, sp, r2
	...
    2714:	00000002 	andeq	r0, r0, r2
    2718:	007d0002 	rsbseq	r0, sp, r2
    271c:	00000002 	andeq	r0, r0, r2
    2720:	00000004 	andeq	r0, r0, r4
    2724:	087d0002 	ldmdaeq	sp!, {r1}^
    2728:	00000004 	andeq	r0, r0, r4
    272c:	00000018 	andeq	r0, r0, r8, lsl r0
    2730:	08770002 	ldmdaeq	r7!, {r1}^
	...

Disassembly of section .debug_aranges:

00000000 <.debug_aranges>:
   0:	0000001c 	andeq	r0, r0, ip, lsl r0
   4:	00000002 	andeq	r0, r0, r2
   8:	00040000 	andeq	r0, r4, r0
   c:	00000000 	andeq	r0, r0, r0
  10:	0000026c 	andeq	r0, r0, ip, ror #4
  14:	0000001c 	andeq	r0, r0, ip, lsl r0
	...
  20:	0000001c 	andeq	r0, r0, ip, lsl r0
  24:	00d60002 	sbcseq	r0, r6, r2
  28:	00040000 	andeq	r0, r4, r0
  2c:	00000000 	andeq	r0, r0, r0
  30:	00000288 	andeq	r0, r0, r8, lsl #5
  34:	00000074 	andeq	r0, r0, r4, ror r0
	...
  40:	0000001c 	andeq	r0, r0, ip, lsl r0
  44:	024c0002 	subeq	r0, ip, #2
  48:	00040000 	andeq	r0, r4, r0
  4c:	00000000 	andeq	r0, r0, r0
  50:	000002fc 	strdeq	r0, [r0], -ip
  54:	00000960 	andeq	r0, r0, r0, ror #18
	...
  60:	0000001c 	andeq	r0, r0, ip, lsl r0
  64:	0a770002 	beq	1dc0074 <_etext+0x1dbd147>
  68:	00040000 	andeq	r0, r4, r0
  6c:	00000000 	andeq	r0, r0, r0
  70:	00000c5c 	andeq	r0, r0, ip, asr ip
  74:	00000084 	andeq	r0, r0, r4, lsl #1
	...
  80:	0000001c 	andeq	r0, r0, ip, lsl r0
  84:	0a9d0002 	beq	fe740094 <_heap_top+0xde700094>
  88:	00040000 	andeq	r0, r4, r0
  8c:	00000000 	andeq	r0, r0, r0
  90:	00000ce0 	andeq	r0, r0, r0, ror #25
  94:	000008b4 			; <UNDEFINED> instruction: 0x000008b4
	...
  a0:	0000001c 	andeq	r0, r0, ip, lsl r0
  a4:	152b0002 	strne	r0, [fp, #-2]!
  a8:	00040000 	andeq	r0, r4, r0
  ac:	00000000 	andeq	r0, r0, r0
  b0:	00001594 	muleq	r0, r4, r5
  b4:	000003e6 	andeq	r0, r0, r6, ror #7
	...
  c0:	0000001c 	andeq	r0, r0, ip, lsl r0
  c4:	1b380002 	blne	e000d4 <_etext+0xdfd1a7>
  c8:	00040000 	andeq	r0, r4, r0
  cc:	00000000 	andeq	r0, r0, r0
  d0:	0000197c 	andeq	r1, r0, ip, ror r9
  d4:	0000026a 	andeq	r0, r0, sl, ror #4
	...
  e0:	0000001c 	andeq	r0, r0, ip, lsl r0
  e4:	20f50002 	rscscs	r0, r5, r2
  e8:	00040000 	andeq	r0, r4, r0
  ec:	00000000 	andeq	r0, r0, r0
  f0:	00001be8 	andeq	r1, r0, r8, ror #23
  f4:	000001cc 	andeq	r0, r0, ip, asr #3
	...
 100:	0000001c 	andeq	r0, r0, ip, lsl r0
 104:	260e0002 	strcs	r0, [lr], -r2
 108:	00040000 	andeq	r0, r4, r0
 10c:	00000000 	andeq	r0, r0, r0
 110:	00001db4 			; <UNDEFINED> instruction: 0x00001db4
 114:	000002ce 	andeq	r0, r0, lr, asr #5
	...
 120:	0000001c 	andeq	r0, r0, ip, lsl r0
 124:	2bc90002 	blcs	ff240134 <_heap_top+0xdf200134>
 128:	00040000 	andeq	r0, r4, r0
 12c:	00000000 	andeq	r0, r0, r0
 130:	00002084 	andeq	r2, r0, r4, lsl #1
 134:	0000021e 	andeq	r0, r0, lr, lsl r2
	...
 140:	0000001c 	andeq	r0, r0, ip, lsl r0
 144:	31810002 	orrcc	r0, r1, r2
 148:	00040000 	andeq	r0, r4, r0
 14c:	00000000 	andeq	r0, r0, r0
 150:	000022a4 	andeq	r2, r0, r4, lsr #5
 154:	000002a8 	andeq	r0, r0, r8, lsr #5
	...
 160:	0000001c 	andeq	r0, r0, ip, lsl r0
 164:	377e0002 	ldrbcc	r0, [lr, -r2]!
 168:	00040000 	andeq	r0, r4, r0
 16c:	00000000 	andeq	r0, r0, r0
 170:	0000254c 	andeq	r2, r0, ip, asr #10
 174:	0000033e 	andeq	r0, r0, lr, lsr r3
	...
 180:	0000001c 	andeq	r0, r0, ip, lsl r0
 184:	3cb90002 	ldccc	0, cr0, [r9], #8
 188:	00040000 	andeq	r0, r4, r0
 18c:	00000000 	andeq	r0, r0, r0
 190:	0000288c 	andeq	r2, r0, ip, lsl #17
 194:	000002a4 	andeq	r0, r0, r4, lsr #5
	...
 1a0:	0000001c 	andeq	r0, r0, ip, lsl r0
 1a4:	435b0002 	cmpmi	fp, #2
 1a8:	00040000 	andeq	r0, r4, r0
 1ac:	00000000 	andeq	r0, r0, r0
 1b0:	00002b30 	andeq	r2, r0, r0, lsr fp
 1b4:	00000188 	andeq	r0, r0, r8, lsl #3
	...
 1c0:	0000001c 	andeq	r0, r0, ip, lsl r0
 1c4:	486b0002 	stmdami	fp!, {r1}^
 1c8:	00040000 	andeq	r0, r4, r0
 1cc:	00000000 	andeq	r0, r0, r0
 1d0:	00002cb8 			; <UNDEFINED> instruction: 0x00002cb8
 1d4:	00000018 	andeq	r0, r0, r8, lsl r0
	...

Disassembly of section .debug_line:

00000000 <.debug_line>:
       0:	00000058 	andeq	r0, r0, r8, asr r0
       4:	002e0003 	eoreq	r0, lr, r3
       8:	01020000 	mrseq	r0, (UNDEF: 2)
       c:	000d0efb 	strdeq	r0, [sp], -fp
      10:	01010101 	tsteq	r1, r1, lsl #2
      14:	01000000 	mrseq	r0, (UNDEF: 0)
      18:	73010000 	movwvc	r0, #4096	; 0x1000
      1c:	6b2f6372 	blvs	bd8dec <_etext+0xbd5ebf>
      20:	656e7265 	strbvs	r7, [lr, #-613]!	; 0xfffffd9b
      24:	6900006c 	stmdbvs	r0, {r2, r3, r5, r6}
      28:	765f746e 	ldrbvc	r7, [pc], -lr, ror #8
      2c:	6f746365 	svcvs	0x00746365
      30:	00632e72 	rsbeq	r2, r3, r2, ror lr
      34:	00000001 	andeq	r0, r0, r1
      38:	05001805 	streq	r1, [r0, #-2053]	; 0xfffff7fb
      3c:	00026c02 	andeq	r6, r2, r2, lsl #24
      40:	01ae0300 			; <UNDEFINED> instruction: 0x01ae0300
      44:	2f0a0501 	svccs	0x000a0501
      48:	05231b05 	streq	r1, [r3, #-2821]!	; 0xfffff4fb
      4c:	24052f0a 	strcs	r2, [r5], #-3850	; 0xfffff0f6
      50:	2f050523 	svccs	0x00050523
      54:	023d0a05 	eorseq	r0, sp, #20480	; 0x5000
      58:	01010003 	tsteq	r1, r3
      5c:	00000170 	andeq	r0, r0, r0, ror r1
      60:	01290003 			; <UNDEFINED> instruction: 0x01290003
      64:	01020000 	mrseq	r0, (UNDEF: 2)
      68:	000d0efb 	strdeq	r0, [sp], -fp
      6c:	01010101 	tsteq	r1, r1, lsl #2
      70:	01000000 	mrseq	r0, (UNDEF: 0)
      74:	73010000 	movwvc	r0, #4096	; 0x1000
      78:	6b2f6372 	blvs	bd8e48 <_etext+0xbd5f1b>
      7c:	656e7265 	strbvs	r7, [lr, #-613]!	; 0xfffffd9b
      80:	702f006c 	eorvc	r0, pc, ip, rrx
      84:	656a6f72 	strbvs	r6, [sl, #-3954]!	; 0xfffff08e
      88:	672f7463 	strvs	r7, [pc, -r3, ror #8]!
      8c:	412f6363 			; <UNDEFINED> instruction: 0x412f6363
      90:	68637241 	stmdavs	r3!, {r0, r6, r9, ip, sp, lr}^
      94:	625f3233 	subsvs	r3, pc, #805306371	; 0x30000003
      98:	2d657261 	sfmcs	f7, 2, [r5, #-388]!	; 0xfffffe7c
      9c:	6174656d 	cmnvs	r4, sp, ror #10
      a0:	63672f6c 	cmnvs	r7, #108, 30	; 0x1b0
      a4:	72612d63 	rsbvc	r2, r1, #6336	; 0x18c0
      a8:	30312d6d 	eorscc	r2, r1, sp, ror #26
      ac:	322d332e 	eorcc	r3, sp, #-1207959552	; 0xb8000000
      b0:	2e313230 	mrccs	2, 1, r3, cr1, cr0, {1}
      b4:	782d3730 	stmdavc	sp!, {r4, r5, r8, r9, sl, ip, sp}
      b8:	365f3638 			; <UNDEFINED> instruction: 0x365f3638
      bc:	72612d34 	rsbvc	r2, r1, #52, 26	; 0xd00
      c0:	6f6e2d6d 	svcvs	0x006e2d6d
      c4:	652d656e 	strvs	r6, [sp, #-1390]!	; 0xfffffa92
      c8:	2f696261 	svccs	0x00696261
      cc:	2d6d7261 	sfmcs	f7, 2, [sp, #-388]!	; 0xfffffe7c
      d0:	656e6f6e 	strbvs	r6, [lr, #-3950]!	; 0xfffff092
      d4:	6261652d 	rsbvs	r6, r1, #188743680	; 0xb400000
      d8:	6e692f69 	cdpvs	15, 6, cr2, cr9, cr9, {3}
      dc:	64756c63 	ldrbtvs	r6, [r5], #-3171	; 0xfffff39d
      e0:	616d2f65 	cmnvs	sp, r5, ror #30
      e4:	6e696863 	cdpvs	8, 6, cr6, cr9, cr3, {3}
      e8:	702f0065 	eorvc	r0, pc, r5, rrx
      ec:	656a6f72 	strbvs	r6, [sl, #-3954]!	; 0xfffff08e
      f0:	672f7463 	strvs	r7, [pc, -r3, ror #8]!
      f4:	412f6363 			; <UNDEFINED> instruction: 0x412f6363
      f8:	68637241 	stmdavs	r3!, {r0, r6, r9, ip, sp, lr}^
      fc:	625f3233 	subsvs	r3, pc, #805306371	; 0x30000003
     100:	2d657261 	sfmcs	f7, 2, [r5, #-388]!	; 0xfffffe7c
     104:	6174656d 	cmnvs	r4, sp, ror #10
     108:	63672f6c 	cmnvs	r7, #108, 30	; 0x1b0
     10c:	72612d63 	rsbvc	r2, r1, #6336	; 0x18c0
     110:	30312d6d 	eorscc	r2, r1, sp, ror #26
     114:	322d332e 	eorcc	r3, sp, #-1207959552	; 0xb8000000
     118:	2e313230 	mrccs	2, 1, r3, cr1, cr0, {1}
     11c:	782d3730 	stmdavc	sp!, {r4, r5, r8, r9, sl, ip, sp}
     120:	365f3638 			; <UNDEFINED> instruction: 0x365f3638
     124:	72612d34 	rsbvc	r2, r1, #52, 26	; 0xd00
     128:	6f6e2d6d 	svcvs	0x006e2d6d
     12c:	652d656e 	strvs	r6, [sp, #-1390]!	; 0xfffffa92
     130:	2f696261 	svccs	0x00696261
     134:	2d6d7261 	sfmcs	f7, 2, [sp, #-388]!	; 0xfffffe7c
     138:	656e6f6e 	strbvs	r6, [lr, #-3950]!	; 0xfffff092
     13c:	6261652d 	rsbvs	r6, r1, #188743680	; 0xb400000
     140:	6e692f69 	cdpvs	15, 6, cr2, cr9, cr9, {3}
     144:	64756c63 	ldrbtvs	r6, [r5], #-3171	; 0xfffff39d
     148:	79732f65 	ldmdbvc	r3!, {r0, r2, r5, r6, r8, r9, sl, fp, sp}^
     14c:	72730073 	rsbsvc	r0, r3, #115	; 0x73
     150:	6e692f63 	cdpvs	15, 6, cr2, cr9, cr3, {3}
     154:	64756c63 	ldrbtvs	r6, [r5], #-3171	; 0xfffff39d
     158:	63000065 	movwvs	r0, #101	; 0x65
     15c:	632e336d 			; <UNDEFINED> instruction: 0x632e336d
     160:	00000100 	andeq	r0, r0, r0, lsl #2
     164:	6665645f 			; <UNDEFINED> instruction: 0x6665645f
     168:	746c7561 	strbtvc	r7, [ip], #-1377	; 0xfffffa9f
     16c:	7079745f 	rsbsvc	r7, r9, pc, asr r4
     170:	682e7365 	stmdavs	lr!, {r0, r2, r5, r6, r8, r9, ip, sp, lr}
     174:	00000200 	andeq	r0, r0, r0, lsl #4
     178:	6474735f 	ldrbtvs	r7, [r4], #-863	; 0xfffffca1
     17c:	2e746e69 	cdpcs	14, 7, cr6, cr4, cr9, {3}
     180:	00030068 	andeq	r0, r3, r8, rrx
     184:	336d6300 	cmncc	sp, #0, 6
     188:	0400682e 	streq	r6, [r0], #-2094	; 0xfffff7d2
     18c:	05000000 	streq	r0, [r0, #-0]
     190:	02050001 	andeq	r0, r5, #1
     194:	00000288 	andeq	r0, r0, r8, lsl #5
     198:	4b100517 	blmi	4015fc <_etext+0x3fe6cf>
     19c:	052f0e05 	streq	r0, [pc, #-3589]!	; fffff39f <_heap_top+0xdffbf39f>
     1a0:	1a052f11 	bne	14bdec <_etext+0x148ebf>
     1a4:	5835053d 	ldmdapl	r5!, {r0, r2, r3, r4, r5, r8, sl}
     1a8:	05201505 	streq	r1, [r0, #-1285]!	; 0xfffffafb
     1ac:	15052f14 	strne	r2, [r5, #-3860]	; 0xfffff0ec
     1b0:	3d01053d 	cfstr32cc	mvfx0, [r1, #-244]	; 0xffffff0c
     1b4:	30050593 	mulcc	r5, r3, r5
     1b8:	312f0105 			; <UNDEFINED> instruction: 0x312f0105
     1bc:	052f0505 	streq	r0, [pc, #-1285]!	; fffffcbf <_heap_top+0xdffbfcbf>
     1c0:	05052018 	streq	r2, [r5, #-24]	; 0xffffffe8
     1c4:	201a052f 	andscs	r0, sl, pc, lsr #10
     1c8:	023d0105 	eorseq	r0, sp, #1073741825	; 0x40000001
     1cc:	01010009 	tsteq	r1, r9
     1d0:	000006ac 	andeq	r0, r0, ip, lsr #13
     1d4:	01a20003 			; <UNDEFINED> instruction: 0x01a20003
     1d8:	01020000 	mrseq	r0, (UNDEF: 2)
     1dc:	000d0efb 	strdeq	r0, [sp], -fp
     1e0:	01010101 	tsteq	r1, r1, lsl #2
     1e4:	01000000 	mrseq	r0, (UNDEF: 0)
     1e8:	73010000 	movwvc	r0, #4096	; 0x1000
     1ec:	6b2f6372 	blvs	bd8fbc <_etext+0xbd608f>
     1f0:	656e7265 	strbvs	r7, [lr, #-613]!	; 0xfffffd9b
     1f4:	702f006c 	eorvc	r0, pc, ip, rrx
     1f8:	656a6f72 	strbvs	r6, [sl, #-3954]!	; 0xfffff08e
     1fc:	672f7463 	strvs	r7, [pc, -r3, ror #8]!
     200:	412f6363 			; <UNDEFINED> instruction: 0x412f6363
     204:	68637241 	stmdavs	r3!, {r0, r6, r9, ip, sp, lr}^
     208:	625f3233 	subsvs	r3, pc, #805306371	; 0x30000003
     20c:	2d657261 	sfmcs	f7, 2, [r5, #-388]!	; 0xfffffe7c
     210:	6174656d 	cmnvs	r4, sp, ror #10
     214:	63672f6c 	cmnvs	r7, #108, 30	; 0x1b0
     218:	72612d63 	rsbvc	r2, r1, #6336	; 0x18c0
     21c:	30312d6d 	eorscc	r2, r1, sp, ror #26
     220:	322d332e 	eorcc	r3, sp, #-1207959552	; 0xb8000000
     224:	2e313230 	mrccs	2, 1, r3, cr1, cr0, {1}
     228:	782d3730 	stmdavc	sp!, {r4, r5, r8, r9, sl, ip, sp}
     22c:	365f3638 			; <UNDEFINED> instruction: 0x365f3638
     230:	72612d34 	rsbvc	r2, r1, #52, 26	; 0xd00
     234:	6f6e2d6d 	svcvs	0x006e2d6d
     238:	652d656e 	strvs	r6, [sp, #-1390]!	; 0xfffffa92
     23c:	2f696261 	svccs	0x00696261
     240:	2f62696c 	svccs	0x0062696c
     244:	2f636367 	svccs	0x00636367
     248:	2d6d7261 	sfmcs	f7, 2, [sp, #-388]!	; 0xfffffe7c
     24c:	656e6f6e 	strbvs	r6, [lr, #-3950]!	; 0xfffff092
     250:	6261652d 	rsbvs	r6, r1, #188743680	; 0xb400000
     254:	30312f69 	eorscc	r2, r1, r9, ror #30
     258:	312e332e 			; <UNDEFINED> instruction: 0x312e332e
     25c:	636e692f 	cmnvs	lr, #770048	; 0xbc000
     260:	6564756c 	strbvs	r7, [r4, #-1388]!	; 0xfffffa94
     264:	72702f00 	rsbsvc	r2, r0, #0, 30
     268:	63656a6f 	cmnvs	r5, #454656	; 0x6f000
     26c:	63672f74 	cmnvs	r7, #116, 30	; 0x1d0
     270:	41412f63 	cmpmi	r1, r3, ror #30
     274:	33686372 	cmncc	r8, #-939524095	; 0xc8000001
     278:	61625f32 	cmnvs	r2, r2, lsr pc
     27c:	6d2d6572 	cfstr32vs	mvfx6, [sp, #-456]!	; 0xfffffe38
     280:	6c617465 	cfstrdvs	mvd7, [r1], #-404	; 0xfffffe6c
     284:	6363672f 	cmnvs	r3, #12320768	; 0xbc0000
     288:	6d72612d 	ldfvse	f6, [r2, #-180]!	; 0xffffff4c
     28c:	2e30312d 	rsfcssp	f3, f0, #5.0
     290:	30322d33 	eorscc	r2, r2, r3, lsr sp
     294:	302e3132 	eorcc	r3, lr, r2, lsr r1
     298:	38782d37 	ldmdacc	r8!, {r0, r1, r2, r4, r5, r8, sl, fp, sp}^
     29c:	34365f36 	ldrtcc	r5, [r6], #-3894	; 0xfffff0ca
     2a0:	6d72612d 	ldfvse	f6, [r2, #-180]!	; 0xffffff4c
     2a4:	6e6f6e2d 	cdpvs	14, 6, cr6, cr15, cr13, {1}
     2a8:	61652d65 	cmnvs	r5, r5, ror #26
     2ac:	612f6962 			; <UNDEFINED> instruction: 0x612f6962
     2b0:	6e2d6d72 	mcrvs	13, 1, r6, cr13, cr2, {3}
     2b4:	2d656e6f 	stclcs	14, cr6, [r5, #-444]!	; 0xfffffe44
     2b8:	69626165 	stmdbvs	r2!, {r0, r2, r5, r6, r8, sp, lr}^
     2bc:	636e692f 	cmnvs	lr, #770048	; 0xbc000
     2c0:	6564756c 	strbvs	r7, [r4, #-1388]!	; 0xfffffa94
     2c4:	63616d2f 	cmnvs	r1, #3008	; 0xbc0
     2c8:	656e6968 	strbvs	r6, [lr, #-2408]!	; 0xfffff698
     2cc:	72702f00 	rsbsvc	r2, r0, #0, 30
     2d0:	63656a6f 	cmnvs	r5, #454656	; 0x6f000
     2d4:	63672f74 	cmnvs	r7, #116, 30	; 0x1d0
     2d8:	41412f63 	cmpmi	r1, r3, ror #30
     2dc:	33686372 	cmncc	r8, #-939524095	; 0xc8000001
     2e0:	61625f32 	cmnvs	r2, r2, lsr pc
     2e4:	6d2d6572 	cfstr32vs	mvfx6, [sp, #-456]!	; 0xfffffe38
     2e8:	6c617465 	cfstrdvs	mvd7, [r1], #-404	; 0xfffffe6c
     2ec:	6363672f 	cmnvs	r3, #12320768	; 0xbc0000
     2f0:	6d72612d 	ldfvse	f6, [r2, #-180]!	; 0xffffff4c
     2f4:	2e30312d 	rsfcssp	f3, f0, #5.0
     2f8:	30322d33 	eorscc	r2, r2, r3, lsr sp
     2fc:	302e3132 	eorcc	r3, lr, r2, lsr r1
     300:	38782d37 	ldmdacc	r8!, {r0, r1, r2, r4, r5, r8, sl, fp, sp}^
     304:	34365f36 	ldrtcc	r5, [r6], #-3894	; 0xfffff0ca
     308:	6d72612d 	ldfvse	f6, [r2, #-180]!	; 0xffffff4c
     30c:	6e6f6e2d 	cdpvs	14, 6, cr6, cr15, cr13, {1}
     310:	61652d65 	cmnvs	r5, r5, ror #26
     314:	612f6962 			; <UNDEFINED> instruction: 0x612f6962
     318:	6e2d6d72 	mcrvs	13, 1, r6, cr13, cr2, {3}
     31c:	2d656e6f 	stclcs	14, cr6, [r5, #-444]!	; 0xfffffe44
     320:	69626165 	stmdbvs	r2!, {r0, r2, r5, r6, r8, sp, lr}^
     324:	636e692f 	cmnvs	lr, #770048	; 0xbc000
     328:	6564756c 	strbvs	r7, [r4, #-1388]!	; 0xfffffa94
     32c:	7379732f 	cmnvc	r9, #-1140850688	; 0xbc000000
     330:	736f0000 	cmnvc	pc, #0
     334:	6474735f 	ldrbtvs	r7, [r4], #-863	; 0xfffffca1
     338:	632e6f69 			; <UNDEFINED> instruction: 0x632e6f69
     33c:	00000100 	andeq	r0, r0, r0, lsl #2
     340:	61647473 	smcvs	18243	; 0x4743
     344:	682e6772 	stmdavs	lr!, {r1, r4, r5, r6, r8, r9, sl, sp, lr}
     348:	00000200 	andeq	r0, r0, r0, lsl #4
     34c:	6665645f 			; <UNDEFINED> instruction: 0x6665645f
     350:	746c7561 	strbtvc	r7, [ip], #-1377	; 0xfffffa9f
     354:	7079745f 	rsbsvc	r7, r9, pc, asr r4
     358:	682e7365 	stmdavs	lr!, {r0, r2, r5, r6, r8, r9, ip, sp, lr}
     35c:	00000300 	andeq	r0, r0, r0, lsl #6
     360:	6474735f 	ldrbtvs	r7, [r4], #-863	; 0xfffffca1
     364:	2e746e69 	cdpcs	14, 7, cr6, cr4, cr9, {3}
     368:	00040068 	andeq	r0, r4, r8, rrx
     36c:	75623c00 	strbvc	r3, [r2, #-3072]!	; 0xfffff400
     370:	2d746c69 	ldclcs	12, cr6, [r4, #-420]!	; 0xfffffe5c
     374:	003e6e69 	eorseq	r6, lr, r9, ror #28
     378:	00000000 	andeq	r0, r0, r0
     37c:	05000105 	streq	r0, [r0, #-261]	; 0xfffffefb
     380:	0002fc02 	andeq	pc, r2, r2, lsl #24
     384:	10051800 	andne	r1, r5, r0, lsl #16
     388:	2e05054b 	cfsh32cs	mvfx0, mvfx5, #43
     38c:	05200e05 	streq	r0, [r0, #-3589]!	; 0xfffff1fb
     390:	0105210c 	tsteq	r5, ip, lsl #2
     394:	0c058a2f 			; <UNDEFINED> instruction: 0x0c058a2f
     398:	2e05055a 	cfrshl32cs	mvfx5, mvfx10, r0
     39c:	05212005 	streq	r2, [r1, #-5]!
     3a0:	14054a0c 	strne	r4, [r5], #-2572	; 0xfffff5f4
     3a4:	2c1a053d 	cfldr32cs	mvfx0, [sl], {61}	; 0x3d
     3a8:	053c0505 	ldreq	r0, [ip, #-1285]!	; 0xfffffafb
     3ac:	0105410c 	tsteq	r5, ip, lsl #2
     3b0:	25058521 	strcs	r8, [r5, #-1313]	; 0xfffffadf
     3b4:	3c170559 	cfldr32cc	mvfx0, [r7], {89}	; 0x59
     3b8:	053c2505 	ldreq	r2, [ip, #-1285]!	; 0xfffffafb
     3bc:	25053c33 	strcs	r3, [r5, #-3123]	; 0xfffff3cd
     3c0:	052e063c 	streq	r0, [lr, #-1596]!	; 0xfffff9c4
     3c4:	5b210601 	blpl	841bd0 <_etext+0x83eca3>
     3c8:	05594105 	ldrbeq	r4, [r9, #-261]	; 0xfffffefb
     3cc:	25053c17 	strcs	r3, [r5, #-3095]	; 0xfffff3e9
     3d0:	3c33053c 	cfldr32cc	mvfx0, [r3], #-240	; 0xffffff10
     3d4:	053c4105 	ldreq	r4, [ip, #-261]!	; 0xfffffefb
     3d8:	41053c4f 	tstmi	r5, pc, asr #24
     3dc:	052e063c 	streq	r0, [lr, #-1596]!	; 0xfffff9c4
     3e0:	5b210601 	blpl	841bec <_etext+0x83ecbf>
     3e4:	2f590d05 	svccs	0x00590d05
     3e8:	05300805 	ldreq	r0, [r0, #-2053]!	; 0xfffff7fb
     3ec:	19053005 	stmdbne	r5, {r0, r2, ip, sp}
     3f0:	2008055a 	andcs	r0, r8, sl, asr r5
     3f4:	052f0905 	streq	r0, [pc, #-2309]!	; fffffaf7 <_heap_top+0xdffbfaf7>
     3f8:	01055b0c 	tsteq	r5, ip, lsl #22
     3fc:	0b054d21 	bleq	153888 <_etext+0x15095b>
     400:	2109054b 	tstcs	r9, fp, asr #10
     404:	05590c05 	ldrbeq	r0, [r9, #-3077]	; 0xfffff3fb
     408:	14053a0b 	strne	r3, [r5], #-2571	; 0xfffff5f5
     40c:	2e10053c 	mrccs	5, 0, r0, cr0, cr12, {1}
     410:	05330c05 	ldreq	r0, [r3, #-3077]!	; 0xfffff3fb
     414:	054d2101 	strbeq	r2, [sp, #-257]	; 0xfffffeff
     418:	0a055909 	beq	156844 <_etext+0x153917>
     41c:	2e17052f 	cfmul64cs	mvdx0, mvdx7, mvdx15
     420:	05300805 	ldreq	r0, [r0, #-2053]!	; 0xfffff7fb
     424:	0f053c15 	svceq	0x00053c15
     428:	3014053d 	andscc	r0, r4, sp, lsr r5
     42c:	052e0c05 	streq	r0, [lr, #-3077]!	; 0xfffff3fb
     430:	26052005 	strcs	r2, [r5], -r5
     434:	2e200521 	cfsh64cs	mvdx0, mvdx0, #17
     438:	054a1805 	strbeq	r1, [sl, #-2053]	; 0xfffff7fb
     43c:	2e052e34 	mcrcs	14, 0, r2, cr5, cr4, {1}
     440:	2e11052e 	cfmul64cs	mvdx0, mvdx1, mvdx14
     444:	05211d05 	streq	r1, [r1, #-3333]!	; 0xfffff2fb
     448:	0905200d 	stmdbeq	r5, {r0, r2, r3, sp}
     44c:	4722053d 			; <UNDEFINED> instruction: 0x4722053d
     450:	053c0505 	ldreq	r0, [ip, #-1285]!	; 0xfffffafb
     454:	0105420c 	tsteq	r5, ip, lsl #4
     458:	09057721 	stmdbeq	r5, {r0, r5, r8, r9, sl, ip, sp, lr}
     45c:	2f0a0559 	svccs	0x000a0559
     460:	052e1705 	streq	r1, [lr, #-1797]!	; 0xfffff8fb
     464:	15053008 	strne	r3, [r5, #-8]
     468:	3d0f053c 	cfstr32cc	mvfx0, [pc, #-240]	; 380 <is_asc+0x20>
     46c:	05301405 	ldreq	r1, [r0, #-1029]!	; 0xfffffbfb
     470:	05052e0c 	streq	r2, [r5, #-3596]	; 0xfffff1f4
     474:	21260520 			; <UNDEFINED> instruction: 0x21260520
     478:	052e2005 	streq	r2, [lr, #-5]!
     47c:	34054a18 	strcc	r4, [r5], #-2584	; 0xfffff5e8
     480:	2e2e052e 	cfsh64cs	mvdx0, mvdx14, #30
     484:	052e1105 	streq	r1, [lr, #-261]!	; 0xfffffefb
     488:	0d052123 	stfeqs	f2, [r5, #-140]	; 0xffffff74
     48c:	3d090520 	cfstr32cc	mvfx0, [r9, #-128]	; 0xffffff80
     490:	05472205 	strbeq	r2, [r7, #-517]	; 0xfffffdfb
     494:	0c053c05 	stceq	12, cr3, [r5], {5}
     498:	21010542 	tstcs	r1, r2, asr #10
     49c:	05741d03 	ldrbeq	r1, [r4, #-3331]!	; 0xfffff2fd
     4a0:	052f4b0e 	streq	r4, [pc, #-2830]!	; fffff99a <_heap_top+0xdffbf99a>
     4a4:	0a052e17 	beq	14bd08 <_etext+0x148ddb>
     4a8:	3214052f 	andscc	r0, r4, #197132288	; 0xbc00000
     4ac:	052e2105 	streq	r2, [lr, #-261]!	; 0xfffffefb
     4b0:	0a052e0d 	beq	14bcec <_etext+0x148dbf>
     4b4:	3d0c052f 	cfstr32cc	mvfx0, [ip, #-188]	; 0xffffff44
     4b8:	23480d05 	movtcs	r0, #36101	; 0x8d05
     4bc:	05240805 	streq	r0, [r4, #-2053]!	; 0xfffff7fb
     4c0:	2f054b10 	svccs	0x00054b10
     4c4:	2e2c0540 	cfsh64cs	mvdx0, mvdx12, #32
     4c8:	053c3405 	ldreq	r3, [ip, #-1029]!	; 0xfffffbfb
     4cc:	52052055 	andpl	r2, r5, #85	; 0x55
     4d0:	3c3a052e 	cfldr32cc	mvfx0, [sl], #-184	; 0xffffff48
     4d4:	05200c05 	streq	r0, [r0, #-3077]!	; 0xfffff3fb
     4d8:	2f053d11 	svccs	0x00053d11
     4dc:	2e2c052f 	cfsh64cs	mvdx0, mvdx12, #31
     4e0:	053c3405 	ldreq	r3, [ip, #-1029]!	; 0xfffffbfb
     4e4:	52052055 	andpl	r2, r5, #85	; 0x55
     4e8:	3c13052e 	cfldr32cc	mvfx0, [r3], {46}	; 0x2e
     4ec:	053d3505 	ldreq	r3, [sp, #-1285]!	; 0xfffffafb
     4f0:	3a052e32 	bcc	14bdc0 <_etext+0x148e93>
     4f4:	2013053c 	andscs	r0, r3, ip, lsr r5
     4f8:	053d1105 	ldreq	r1, [sp, #-261]!	; 0xfffffefb
     4fc:	2b052f2e 	blcs	14c1bc <_etext+0x14928f>
     500:	3c13052e 	cfldr32cc	mvfx0, [r3], {46}	; 0x2e
     504:	053e2f05 	ldreq	r2, [lr, #-3845]!	; 0xfffff0fb
     508:	34052e2c 	strcc	r2, [r5], #-3628	; 0xfffff1d4
     50c:	2056053c 	subscs	r0, r6, ip, lsr r5
     510:	052e5305 	streq	r5, [lr, #-773]!	; 0xfffffcfb
     514:	3a053c5b 	bcc	14f688 <_etext+0x14c75b>
     518:	212e0520 			; <UNDEFINED> instruction: 0x212e0520
     51c:	052e2b05 	streq	r2, [lr, #-2821]!	; 0xfffff4fb
     520:	13053b61 	movwne	r3, #23393	; 0x5b61
     524:	3f11051f 	svccc	0x0011051f
     528:	05302b05 	ldreq	r2, [r0, #-2821]!	; 0xfffff4fb
     52c:	30052e28 	andcc	r2, r5, r8, lsr #28
     530:	2052053c 	subscs	r0, r2, ip, lsr r5
     534:	052e4f05 	streq	r4, [lr, #-3845]!	; 0xfffff0fb
     538:	36053c57 			; <UNDEFINED> instruction: 0x36053c57
     53c:	212a0520 			; <UNDEFINED> instruction: 0x212a0520
     540:	052e2705 	streq	r2, [lr, #-1797]!	; 0xfffff8fb
     544:	2f053a13 	svccs	0x00053a13
     548:	2e2c0540 	cfsh64cs	mvdx0, mvdx12, #32
     54c:	053c3405 	ldreq	r3, [ip, #-1029]!	; 0xfffffbfb
     550:	53052056 	movwpl	r2, #20566	; 0x5056
     554:	3c5b052e 	cfldr64cc	mvdx0, [fp], {46}	; 0x2e
     558:	05203a05 	streq	r3, [r0, #-2565]!	; 0xfffff5fb
     55c:	11051f13 	tstne	r5, r3, lsl pc
     560:	2f2f053e 	svccs	0x002f053e
     564:	052e2c05 	streq	r2, [lr, #-3077]!	; 0xfffff3fb
     568:	56053c34 			; <UNDEFINED> instruction: 0x56053c34
     56c:	2e530520 	cdpcs	5, 5, cr0, cr3, cr0, {1}
     570:	053c5b05 	ldreq	r5, [ip, #-2821]!	; 0xfffff4fb
     574:	36052013 			; <UNDEFINED> instruction: 0x36052013
     578:	2e33053d 	mrccs	5, 1, r0, cr3, cr13, {1}
     57c:	053c3b05 	ldreq	r3, [ip, #-2821]!	; 0xfffff4fb
     580:	5905205c 	stmdbpl	r5, {r2, r3, r4, r6, sp}
     584:	3c41052e 	cfstr64cc	mvdx0, [r1], {46}	; 0x2e
     588:	05201305 	streq	r1, [r0, #-773]!	; 0xfffffcfb
     58c:	2f053d11 	svccs	0x00053d11
     590:	2e2c052f 	cfsh64cs	mvdx0, mvdx12, #31
     594:	053c3405 	ldreq	r3, [ip, #-1029]!	; 0xfffffbfb
     598:	52052055 	andpl	r2, r5, #85	; 0x55
     59c:	3c13052e 	cfldr32cc	mvfx0, [r3], {46}	; 0x2e
     5a0:	053d3505 	ldreq	r3, [sp, #-1285]!	; 0xfffffafb
     5a4:	3a052e32 	bcc	14be74 <_etext+0x148f47>
     5a8:	2013053c 	andscs	r0, r3, ip, lsr r5
     5ac:	053d1105 	ldreq	r1, [sp, #-261]!	; 0xfffffefb
     5b0:	2b052f2e 	blcs	14c270 <_etext+0x149343>
     5b4:	3c13052e 	cfldr32cc	mvfx0, [r3], {46}	; 0x2e
     5b8:	053d3605 	ldreq	r3, [sp, #-1541]!	; 0xfffff9fb
     5bc:	3b052e33 	blcc	14be90 <_etext+0x148f63>
     5c0:	205c053c 	subscs	r0, ip, ip, lsr r5
     5c4:	052e5905 	streq	r5, [lr, #-2309]!	; 0xfffff6fb
     5c8:	13053c41 	movwne	r3, #23617	; 0x5c41
     5cc:	3d110520 	cfldr32cc	mvfx0, [r1, #-128]	; 0xffffff80
     5d0:	052f2f05 	streq	r2, [pc, #-3845]!	; fffff6d3 <_heap_top+0xdffbf6d3>
     5d4:	34052e2c 	strcc	r2, [r5], #-3628	; 0xfffff1d4
     5d8:	2055053c 	subscs	r0, r5, ip, lsr r5
     5dc:	052e5205 	streq	r5, [lr, #-517]!	; 0xfffffdfb
     5e0:	35053c13 	strcc	r3, [r5, #-3091]	; 0xfffff3ed
     5e4:	2e32053d 	mrccs	5, 1, r0, cr2, cr13, {1}
     5e8:	053c3a05 	ldreq	r3, [ip, #-2565]!	; 0xfffff5fb
     5ec:	11052013 	tstne	r5, r3, lsl r0
     5f0:	2f2e053d 	svccs	0x002e053d
     5f4:	052e2b05 	streq	r2, [lr, #-2821]!	; 0xfffff4fb
     5f8:	35053c13 	strcc	r3, [r5, #-3091]	; 0xfffff3ed
     5fc:	2e32053d 	mrccs	5, 1, r0, cr2, cr13, {1}
     600:	053c1305 	ldreq	r1, [ip, #-773]!	; 0xfffffcfb
     604:	2e053d11 	mcrcs	13, 0, r3, cr5, cr1, {0}
     608:	2e13052f 	cfmul64cs	mvdx0, mvdx3, mvdx15
     60c:	055a1105 	ldrbeq	r1, [sl, #-261]	; 0xfffffefb
     610:	0d052f13 	stceq	15, cr2, [r5, #-76]	; 0xffffffb4
     614:	59090531 	stmdbpl	r9, {r0, r4, r5, r8, sl}
     618:	054b0a05 	strbeq	r0, [fp, #-2565]	; 0xfffff5fb
     61c:	0b053e0d 	bleq	14fe58 <_etext+0x14cf2b>
     620:	054a5603 	strbeq	r5, [sl, #-1539]	; 0xfffff9fd
     624:	4a2d030c 	bmi	b4125c <_etext+0xb3e32f>
     628:	86210105 	strthi	r0, [r1], -r5, lsl #2
     62c:	0e055b3e 	vmoveq.16	d5[0], r5
     630:	3105054c 	tstcc	r5, ip, asr #10
     634:	053e0b05 	ldreq	r0, [lr, #-2821]!	; 0xfffff4fb
     638:	0d053d0c 	stceq	13, cr3, [r5, #-48]	; 0xffffffd0
     63c:	5b13053d 	blpl	4c1b38 <_etext+0x4bec0b>
     640:	05671405 	strbeq	r1, [r7, #-1029]!	; 0xfffffbfb
     644:	2e053c20 	cdpcs	12, 0, cr3, cr5, cr0, {1}
     648:	3c3c053c 	cfldr32cc	mvfx0, [ip], #-240	; 0xffffff10
     64c:	053c4a05 	ldreq	r4, [ip, #-2565]!	; 0xfffff5fb
     650:	24053d18 	strcs	r3, [r5], #-3352	; 0xfffff2e8
     654:	3d23053c 	cfstr32cc	mvfx0, [r3, #-240]!	; 0xffffff10
     658:	052e1d05 	streq	r1, [lr, #-3333]!	; 0xfffff2fb
     65c:	2305201c 	movwcs	r2, #20508	; 0x501c
     660:	3215052f 	andscc	r0, r5, #197132288	; 0xbc00000
     664:	051e2b05 	ldreq	r2, [lr, #-2821]	; 0xfffff4fb
     668:	30052e25 	andcc	r2, r5, r5, lsr #28
     66c:	20230520 	eorcs	r0, r3, r0, lsr #10
     670:	05221505 	streq	r1, [r2, #-1285]!	; 0xfffffafb
     674:	1c05240d 	cfstrsne	mvf2, [r5], {13}
     678:	05144902 	ldreq	r4, [r4, #-2306]	; 0xfffff6fe
     67c:	053d4a11 	ldreq	r4, [sp, #-2577]!	; 0xfffff5ef
     680:	1105221d 	tstne	r5, sp, lsl r2
     684:	23054b4a 	movwcs	r4, #23370	; 0x5b4a
     688:	4a110522 	bmi	441b18 <_etext+0x43ebeb>
     68c:	0575224b 	ldrbeq	r2, [r5, #-587]!	; 0xfffffdb5
     690:	1105221d 	tstne	r5, sp, lsl r2
     694:	05224b4a 	streq	r4, [r2, #-2890]!	; 0xfffff4b6
     698:	0c052309 	stceq	3, cr2, [r5], {9}
     69c:	2e05053e 	mcrcs	5, 0, r0, cr5, cr14, {1}
     6a0:	853f0105 	ldrhi	r0, [pc, #-261]!	; 5a3 <printf_dec+0x7f>
     6a4:	05750e05 	ldrbeq	r0, [r5, #-3589]!	; 0xfffff1fb
     6a8:	0c052f09 	stceq	15, cr2, [r5], {9}
     6ac:	2e050530 	cfmv64hrcs	mvdx5, r0
     6b0:	05201a05 	streq	r1, [r0, #-2565]!	; 0xfffff5fb
     6b4:	23053c20 	movwcs	r3, #23584	; 0x5c20
     6b8:	2e13053c 	mrccs	5, 0, r0, cr3, cr12, {1}
     6bc:	05200505 	streq	r0, [r0, #-1285]!	; 0xfffffafb
     6c0:	01053e0c 	tsteq	r5, ip, lsl #28
     6c4:	0e055b21 	vmlaeq.f64	d5, d5, d17
     6c8:	09052f67 	stmdbeq	r5, {r0, r1, r2, r5, r6, r8, r9, sl, fp, sp}
     6cc:	300c052f 	andcc	r0, ip, pc, lsr #10
     6d0:	052e0505 	streq	r0, [lr, #-1285]!	; 0xfffffafb
     6d4:	2f05201a 	svccs	0x0005201a
     6d8:	3c24053c 	cfstr32cc	mvfx0, [r4], #-240	; 0xffffff10
     6dc:	053c2905 	ldreq	r2, [ip, #-2309]!	; 0xfffff6fb
     6e0:	13052027 	movwne	r2, #20519	; 0x5027
     6e4:	20050520 	andcs	r0, r5, r0, lsr #10
     6e8:	053e0c05 	ldreq	r0, [lr, #-3077]!	; 0xfffff3fb
     6ec:	055b2101 	ldrbeq	r2, [fp, #-257]	; 0xfffffeff
     6f0:	052f670e 	streq	r6, [pc, #-1806]!	; ffffffea <_heap_top+0xdffbffea>
     6f4:	0c052f09 	stceq	15, cr2, [r5], {9}
     6f8:	2e050530 	cfmv64hrcs	mvdx5, r0
     6fc:	05210d05 	streq	r0, [r1, #-3333]!	; 0xfffff2fb
     700:	0c052e18 	stceq	14, cr2, [r5], {24}
     704:	2d1a052e 	cfldr32cs	mvfx0, [sl, #-184]	; 0xffffff48
     708:	053c2405 	ldreq	r2, [ip, #-1029]!	; 0xfffffbfb
     70c:	13053c2e 	movwne	r3, #23598	; 0x5c2e
     710:	2005053c 	andcs	r0, r5, ip, lsr r5
     714:	054c0d05 	strbeq	r0, [ip, #-3333]	; 0xfffff2fb
     718:	0805240b 	stmdaeq	r5, {r0, r1, r3, sl, sp}
     71c:	3d100520 	cfldr32cc	mvfx0, [r0, #-128]	; 0xffffff80
     720:	22010530 	andcs	r0, r1, #48, 10	; 0xc000000
     724:	590b055b 	stmdbpl	fp, {r0, r1, r3, r4, r6, r8, sl}
     728:	052e1705 	streq	r1, [lr, #-1797]!	; 0xfffff8fb
     72c:	3d21300b 	stccc	0, cr3, [r1, #-44]!	; 0xffffffd4
     730:	053a0d05 	ldreq	r0, [sl, #-3333]!	; 0xfffff2fb
     734:	1b052e0b 	blne	14bf68 <_etext+0x14903b>
     738:	2e17052e 	cfmul64cs	mvdx0, mvdx7, mvdx14
     73c:	052e2905 	streq	r2, [lr, #-2309]!	; 0xfffff6fb
     740:	25052e30 	strcs	r2, [r5, #-3632]	; 0xfffff1d0
     744:	330c052e 	movwcc	r0, #50478	; 0xc52e
     748:	053c1205 	ldreq	r1, [ip, #-517]!	; 0xfffffdfb
     74c:	01052e10 	tsteq	r5, r0, lsl lr
     750:	0b055b21 	bleq	1573dc <_etext+0x1544af>
     754:	2e170567 	cfmsc32cs	mvfx0, mvfx7, mvfx7
     758:	052f0905 	streq	r0, [pc, #-2309]!	; fffffe5b <_heap_top+0xdffbfe5b>
     75c:	0d053005 	stceq	0, cr3, [r5, #-20]	; 0xffffffec
     760:	2e130521 	cfmul64cs	mvdx0, mvdx3, mvdx1
     764:	052e0c05 	streq	r0, [lr, #-3077]!	; 0xfffff3fb
     768:	0d052f14 	stceq	15, cr2, [r5, #-80]	; 0xffffffb0
     76c:	2e130530 	cfmvr64hcs	r0, mvdx3
     770:	052e0c05 	streq	r0, [lr, #-3077]!	; 0xfffff3fb
     774:	15052f14 	strne	r2, [r5, #-3860]	; 0xfffff0ec
     778:	3c1b0537 	cfldr32cc	mvfx0, [fp], {55}	; 0x37
     77c:	053c2105 	ldreq	r2, [ip, #-261]!	; 0xfffffefb
     780:	05053c0e 	streq	r3, [r5, #-3086]	; 0xfffff3f2
     784:	030c0520 	movweq	r0, #50464	; 0xc520
     788:	01053c09 	tsteq	r5, r9, lsl #24
     78c:	0b055b21 	bleq	157418 <_etext+0x1544eb>
     790:	2f0e0559 	svccs	0x000e0559
     794:	2e1a052f 	cfmul64cs	mvdx0, mvdx10, mvdx15
     798:	05300905 	ldreq	r0, [r0, #-2309]!	; 0xfffff6fb
     79c:	1b052e08 	blne	14bfc4 <_etext+0x149097>
     7a0:	2e17052e 	cfmul64cs	mvdx0, mvdx7, mvdx14
     7a4:	05201305 	streq	r1, [r0, #-773]!	; 0xfffffcfb
     7a8:	2a052e2e 	bcs	14c068 <_etext+0x14913b>
     7ac:	2027052e 	eorcs	r0, r7, lr, lsr #10
     7b0:	052f0b05 	streq	r0, [pc, #-2821]!	; fffffcb3 <_heap_top+0xdffbfcb3>
     7b4:	0b053d14 	bleq	14fc0c <_etext+0x14ccdf>
     7b8:	210c0531 	tstcs	ip, r1, lsr r5
     7bc:	053d1205 	ldreq	r1, [sp, #-517]!	; 0xfffffdfb
     7c0:	18056610 	stmdane	r5, {r4, r9, sl, sp, lr}
     7c4:	3e11052f 	cfmul64cc	mvdx0, mvdx1, mvdx15
     7c8:	052e1005 	streq	r1, [lr, #-5]!
     7cc:	1b052e1e 	blne	14c04c <_etext+0x14911f>
     7d0:	2f17052e 	svccs	0x0017052e
     7d4:	052e1a05 	streq	r1, [lr, #-2565]!	; 0xfffff5fb
     7d8:	18052015 	stmdane	r5, {r0, r2, r4, sp}
     7dc:	2e17052f 	cfmul64cs	mvdx0, mvdx7, mvdx15
     7e0:	052e2505 	streq	r2, [lr, #-1285]!	; 0xfffffafb
     7e4:	17052e22 	strne	r2, [r5, -r2, lsr #28]
     7e8:	2e20052f 	cfsh64cs	mvdx0, mvdx0, #31
     7ec:	05201505 	streq	r1, [r0, #-1285]!	; 0xfffffafb
     7f0:	20053017 	andcs	r3, r5, r7, lsl r0
     7f4:	2015052e 	andscs	r0, r5, lr, lsr #10
     7f8:	05311205 	ldreq	r1, [r1, #-517]!	; 0xfffffdfb
     7fc:	18056610 	stmdane	r5, {r4, r9, sl, sp, lr}
     800:	3f13052f 	svccc	0x0013052f
     804:	052e1605 	streq	r1, [lr, #-1541]!	; 0xfffff9fb
     808:	19052011 	stmdbne	r5, {r0, r4, sp}
     80c:	4a100523 	bmi	401ca0 <_etext+0x3fed73>
     810:	053e0a05 	ldreq	r0, [lr, #-2565]!	; 0xfffff5fb
     814:	3c6a0311 	stclcc	3, cr0, [sl], #-68	; 0xffffffbc
     818:	052e0b05 	streq	r0, [lr, #-2821]!	; 0xfffff4fb
     81c:	2e19030a 	cdpcs	3, 1, cr0, cr9, cr10, {0}
     820:	053e0c05 	ldreq	r0, [lr, #-3077]!	; 0xfffff3fb
     824:	054d2101 	strbeq	r2, [sp, #-257]	; 0xfffffeff
     828:	0905590b 	stmdbeq	r5, {r0, r1, r3, r8, fp, ip, lr}
     82c:	2e080531 	mcrcs	5, 0, r0, cr8, cr1, {1}
     830:	052f0d05 	streq	r0, [pc, #-3333]!	; fffffb33 <_heap_top+0xdffbfb33>
     834:	12053c0f 	andne	r3, r5, #3840	; 0xf00
     838:	2e100559 	mrccs	5, 0, r0, cr0, cr9, {2}
     83c:	05200e05 	streq	r0, [r0, #-3589]!	; 0xfffff1fb
     840:	05302f10 	ldreq	r2, [r0, #-3856]!	; 0xfffff0f0
     844:	054d5a01 	strbeq	r5, [sp, #-2561]	; 0xfffff5ff
     848:	05304b0b 	ldreq	r4, [r0, #-2827]!	; 0xfffff4f5
     84c:	0c05200e 	stceq	0, cr2, [r5], {14}
     850:	200b053c 	andcs	r0, fp, ip, lsr r5
     854:	05301905 	ldreq	r1, [r0, #-2309]!	; 0xfffff6fb
     858:	055b3d01 	ldrbeq	r3, [fp, #-3329]	; 0xfffff2ff
     85c:	1905590b 	stmdbne	r5, {r0, r1, r3, r8, fp, ip, lr}
     860:	300b052e 	andcc	r0, fp, lr, lsr #10
     864:	05211205 	streq	r1, [r1, #-517]!	; 0xfffffdfb
     868:	0e052e10 	mcreq	14, 0, r2, cr5, cr0, {0}
     86c:	0c053d2f 	stceq	13, cr3, [r5], {47}	; 0x2f
     870:	2e0b0539 	mcrcs	5, 0, r0, cr11, cr9, {1}
     874:	3e330c05 	cdpcc	12, 3, cr0, cr3, cr5, {0}
     878:	02210105 	eoreq	r0, r1, #1073741825	; 0x40000001
     87c:	01010005 	tsteq	r1, r5
     880:	0000006f 	andeq	r0, r0, pc, rrx
     884:	00290003 	eoreq	r0, r9, r3
     888:	01020000 	mrseq	r0, (UNDEF: 2)
     88c:	000d0efb 	strdeq	r0, [sp], -fp
     890:	01010101 	tsteq	r1, r1, lsl #2
     894:	01000000 	mrseq	r0, (UNDEF: 0)
     898:	73010000 	movwvc	r0, #4096	; 0x1000
     89c:	6b2f6372 	blvs	bd966c <_etext+0xbd673f>
     8a0:	656e7265 	strbvs	r7, [lr, #-613]!	; 0xfffffd9b
     8a4:	6300006c 	movwvs	r0, #108	; 0x6c
     8a8:	735f336d 	cmpvc	pc, #-1275068415	; 0xb4000001
     8ac:	0100732e 	tsteq	r0, lr, lsr #6
     8b0:	00000000 	andeq	r0, r0, r0
     8b4:	0c5c0205 	lfmeq	f0, 2, [ip], {5}
     8b8:	19030000 	stmdbne	r3, {}	; <UNPREDICTABLE>
     8bc:	2f2f2f01 	svccs	0x002f2f01
     8c0:	2221302f 	eorcs	r3, r1, #47	; 0x2f
     8c4:	2f232121 	svccs	0x00232121
     8c8:	2f232f23 	svccs	0x00232f23
     8cc:	2f242f23 	svccs	0x00242f23
     8d0:	21212f27 			; <UNDEFINED> instruction: 0x21212f27
     8d4:	21212125 			; <UNDEFINED> instruction: 0x21212125
     8d8:	2f302123 	svccs	0x00302123
     8dc:	232f232f 			; <UNDEFINED> instruction: 0x232f232f
     8e0:	2321232f 			; <UNDEFINED> instruction: 0x2321232f
     8e4:	7fbc0321 	svcvc	0x00bc0321
     8e8:	1f03312e 	svcne	0x0003312e
     8ec:	0202362e 	andeq	r3, r2, #48234496	; 0x2e00000
     8f0:	54010100 	strpl	r0, [r1], #-256	; 0xffffff00
     8f4:	03000004 	movweq	r0, #4
     8f8:	00014700 	andeq	r4, r1, r0, lsl #14
     8fc:	fb010200 	blx	41106 <_etext+0x3e1d9>
     900:	01000d0e 	tsteq	r0, lr, lsl #26
     904:	00010101 	andeq	r0, r1, r1, lsl #2
     908:	00010000 	andeq	r0, r1, r0
     90c:	72730100 	rsbsvc	r0, r3, #0, 2
     910:	656b2f63 	strbvs	r2, [fp, #-3939]!	; 0xfffff09d
     914:	6c656e72 	stclvs	14, cr6, [r5], #-456	; 0xfffffe38
     918:	72702f00 	rsbsvc	r2, r0, #0, 30
     91c:	63656a6f 	cmnvs	r5, #454656	; 0x6f000
     920:	63672f74 	cmnvs	r7, #116, 30	; 0x1d0
     924:	41412f63 	cmpmi	r1, r3, ror #30
     928:	33686372 	cmncc	r8, #-939524095	; 0xc8000001
     92c:	61625f32 	cmnvs	r2, r2, lsr pc
     930:	6d2d6572 	cfstr32vs	mvfx6, [sp, #-456]!	; 0xfffffe38
     934:	6c617465 	cfstrdvs	mvd7, [r1], #-404	; 0xfffffe6c
     938:	6363672f 	cmnvs	r3, #12320768	; 0xbc0000
     93c:	6d72612d 	ldfvse	f6, [r2, #-180]!	; 0xffffff4c
     940:	2e30312d 	rsfcssp	f3, f0, #5.0
     944:	30322d33 	eorscc	r2, r2, r3, lsr sp
     948:	302e3132 	eorcc	r3, lr, r2, lsr r1
     94c:	38782d37 	ldmdacc	r8!, {r0, r1, r2, r4, r5, r8, sl, fp, sp}^
     950:	34365f36 	ldrtcc	r5, [r6], #-3894	; 0xfffff0ca
     954:	6d72612d 	ldfvse	f6, [r2, #-180]!	; 0xffffff4c
     958:	6e6f6e2d 	cdpvs	14, 6, cr6, cr15, cr13, {1}
     95c:	61652d65 	cmnvs	r5, r5, ror #26
     960:	612f6962 			; <UNDEFINED> instruction: 0x612f6962
     964:	6e2d6d72 	mcrvs	13, 1, r6, cr13, cr2, {3}
     968:	2d656e6f 	stclcs	14, cr6, [r5, #-444]!	; 0xfffffe44
     96c:	69626165 	stmdbvs	r2!, {r0, r2, r5, r6, r8, sp, lr}^
     970:	636e692f 	cmnvs	lr, #770048	; 0xbc000
     974:	6564756c 	strbvs	r7, [r4, #-1388]!	; 0xfffffa94
     978:	63616d2f 	cmnvs	r1, #3008	; 0xbc0
     97c:	656e6968 	strbvs	r6, [lr, #-2408]!	; 0xfffff698
     980:	72702f00 	rsbsvc	r2, r0, #0, 30
     984:	63656a6f 	cmnvs	r5, #454656	; 0x6f000
     988:	63672f74 	cmnvs	r7, #116, 30	; 0x1d0
     98c:	41412f63 	cmpmi	r1, r3, ror #30
     990:	33686372 	cmncc	r8, #-939524095	; 0xc8000001
     994:	61625f32 	cmnvs	r2, r2, lsr pc
     998:	6d2d6572 	cfstr32vs	mvfx6, [sp, #-456]!	; 0xfffffe38
     99c:	6c617465 	cfstrdvs	mvd7, [r1], #-404	; 0xfffffe6c
     9a0:	6363672f 	cmnvs	r3, #12320768	; 0xbc0000
     9a4:	6d72612d 	ldfvse	f6, [r2, #-180]!	; 0xffffff4c
     9a8:	2e30312d 	rsfcssp	f3, f0, #5.0
     9ac:	30322d33 	eorscc	r2, r2, r3, lsr sp
     9b0:	302e3132 	eorcc	r3, lr, r2, lsr r1
     9b4:	38782d37 	ldmdacc	r8!, {r0, r1, r2, r4, r5, r8, sl, fp, sp}^
     9b8:	34365f36 	ldrtcc	r5, [r6], #-3894	; 0xfffff0ca
     9bc:	6d72612d 	ldfvse	f6, [r2, #-180]!	; 0xffffff4c
     9c0:	6e6f6e2d 	cdpvs	14, 6, cr6, cr15, cr13, {1}
     9c4:	61652d65 	cmnvs	r5, r5, ror #26
     9c8:	612f6962 			; <UNDEFINED> instruction: 0x612f6962
     9cc:	6e2d6d72 	mcrvs	13, 1, r6, cr13, cr2, {3}
     9d0:	2d656e6f 	stclcs	14, cr6, [r5, #-444]!	; 0xfffffe44
     9d4:	69626165 	stmdbvs	r2!, {r0, r2, r5, r6, r8, sp, lr}^
     9d8:	636e692f 	cmnvs	lr, #770048	; 0xbc000
     9dc:	6564756c 	strbvs	r7, [r4, #-1388]!	; 0xfffffa94
     9e0:	7379732f 	cmnvc	r9, #-1140850688	; 0xbc000000
     9e4:	63727300 	cmnvs	r2, #0, 6
     9e8:	636e692f 	cmnvs	lr, #770048	; 0xbc000
     9ec:	6564756c 	strbvs	r7, [r4, #-1388]!	; 0xfffffa94
     9f0:	61740000 	cmnvs	r4, r0
     9f4:	632e6b73 			; <UNDEFINED> instruction: 0x632e6b73
     9f8:	00000100 	andeq	r0, r0, r0, lsl #2
     9fc:	6665645f 			; <UNDEFINED> instruction: 0x6665645f
     a00:	746c7561 	strbtvc	r7, [ip], #-1377	; 0xfffffa9f
     a04:	7079745f 	rsbsvc	r7, r9, pc, asr r4
     a08:	682e7365 	stmdavs	lr!, {r0, r2, r5, r6, r8, r9, ip, sp, lr}
     a0c:	00000200 	andeq	r0, r0, r0, lsl #4
     a10:	6474735f 	ldrbtvs	r7, [r4], #-863	; 0xfffffca1
     a14:	2e746e69 	cdpcs	14, 7, cr6, cr4, cr9, {3}
     a18:	00030068 	andeq	r0, r3, r8, rrx
     a1c:	62696c00 	rsbvs	r6, r9, #0, 24
     a20:	0400682e 	streq	r6, [r0], #-2094	; 0xfffff7d2
     a24:	61740000 	cmnvs	r4, r0
     a28:	682e6b73 	stmdavs	lr!, {r0, r1, r4, r5, r6, r8, r9, fp, sp, lr}
     a2c:	00000400 	andeq	r0, r0, r0, lsl #8
     a30:	6e657665 	cdpvs	6, 6, cr7, cr5, cr5, {3}
     a34:	00682e74 	rsbeq	r2, r8, r4, ror lr
     a38:	6f000004 	svcvs	0x00000004
     a3c:	00682e73 	rsbeq	r2, r8, r3, ror lr
     a40:	00000004 	andeq	r0, r0, r4
     a44:	05000105 	streq	r0, [r0, #-261]	; 0xfffffefb
     a48:	000ce002 	andeq	lr, ip, r2
     a4c:	01150300 	tsteq	r5, r0, lsl #6
     a50:	054b0505 	strbeq	r0, [fp, #-1285]	; 0xfffffafb
     a54:	05052401 	streq	r2, [r5, #-1025]	; 0xfffffbff
     a58:	4b100575 	blmi	402034 <_etext+0x3ff107>
     a5c:	3c120575 	cfldr32cc	mvfx0, [r2], {117}	; 0x75
     a60:	2f201005 	svccs	0x00201005
     a64:	67676767 	strbvs	r6, [r7, -r7, ror #14]!
     a68:	3c120567 	cfldr32cc	mvfx0, [r2], {103}	; 0x67
     a6c:	2f201005 	svccs	0x00201005
     a70:	67676767 	strbvs	r6, [r7, -r7, ror #14]!
     a74:	05676767 	strbeq	r6, [r7, #-1895]!	; 0xfffff899
     a78:	17056811 	smladne	r5, r1, r8, r6
     a7c:	3d11053e 	cfldr32cc	mvfx0, [r1, #-248]	; 0xffffff08
     a80:	053d0505 	ldreq	r0, [sp, #-1285]!	; 0xfffffafb
     a84:	11055a10 	tstne	r5, r0, lsl sl
     a88:	3d05053d 	cfstr32cc	mvfx0, [r5, #-244]	; 0xffffff0c
     a8c:	1705c959 	smlsdne	r5, r9, r9, ip
     a90:	3e11054d 	cfmac32cc	mvfx0, mvfx1, mvfx13
     a94:	053d1705 	ldreq	r1, [sp, #-1797]!	; 0xfffff8fb
     a98:	16053d1c 			; <UNDEFINED> instruction: 0x16053d1c
     a9c:	3d15054d 	cfldr32cc	mvfx0, [r5, #-308]	; 0xfffffecc
     aa0:	053d1d05 	ldreq	r1, [sp, #-3333]!	; 0xfffff2fb
     aa4:	05cb3e01 	strbeq	r3, [fp, #3585]	; 0xe01
     aa8:	16053d17 			; <UNDEFINED> instruction: 0x16053d17
     aac:	2e08053f 	mcrcs	5, 0, r0, cr8, cr15, {1}
     ab0:	05321305 	ldreq	r1, [r2, #-773]!	; 0xfffffcfb
     ab4:	08053d15 	stmdaeq	r5, {r0, r2, r4, r8, sl, fp, ip, sp}
     ab8:	3d15052e 	cfldr32cc	mvfx0, [r5, #-184]	; 0xffffff48
     abc:	033d0905 	teqeq	sp, #81920	; 0x14000
     ac0:	01053c7a 	tsteq	r5, sl, ror ip
     ac4:	052e0903 	streq	r0, [lr, #-2307]!	; 0xfffff6fd
     ac8:	053d2105 	ldreq	r2, [sp, #-261]!	; 0xfffffefb
     acc:	05932101 	ldreq	r2, [r3, #257]	; 0x101
     ad0:	1a052f05 	bne	14c6ec <_etext+0x1497bf>
     ad4:	3d010520 	cfstr32cc	mvfx0, [r1, #-128]	; 0xffffff80
     ad8:	2f050569 	svccs	0x00050569
     adc:	2018054c 	andscs	r0, r8, ip, asr #10
     ae0:	052f0505 	streq	r0, [pc, #-1285]!	; 5e3 <printf_dec+0xbf>
     ae4:	0105201a 	tsteq	r5, sl, lsl r0
     ae8:	1705af3d 	smladxne	r5, sp, pc, sl	; <UNPREDICTABLE>
     aec:	4205054b 	andmi	r0, r5, #314572800	; 0x12c00000
     af0:	053d5a67 	ldreq	r5, [sp, #-2663]!	; 0xfffff599
     af4:	05772f01 	ldrbeq	r2, [r7, #-3841]!	; 0xfffff0ff
     af8:	01054b05 	tsteq	r5, r5, lsl #22
     afc:	17054d75 	smlsdxne	r5, r5, sp, r4
     b00:	3d12053d 	cfldr32cc	mvfx0, [r2, #-244]	; 0xffffff0c
     b04:	3d0d052f 	cfstr32cc	mvfx0, [sp, #-188]	; 0xffffff44
     b08:	05330b05 	ldreq	r0, [r3, #-2821]!	; 0xfffff4fb
     b0c:	0e052110 	flteqs	f5, r2
     b10:	2113052e 	tstcs	r3, lr, lsr #10
     b14:	2e0d053d 	mcrcs	5, 0, r0, cr13, cr13, {1}
     b18:	05200c05 	streq	r0, [r0, #-3077]!	; 0xfffff3fb
     b1c:	0c052e13 	stceq	14, cr2, [r5], {19}
     b20:	3015052e 	andscc	r0, r5, lr, lsr #10
     b24:	052e1005 	streq	r1, [lr, #-5]!
     b28:	0d052f11 	stceq	15, cr2, [r5, #-68]	; 0xffffffbc
     b2c:	0b053d60 	bleq	1500b4 <_etext+0x14d187>
     b30:	053c7103 	ldreq	r7, [ip, #-259]!	; 0xfffffefd
     b34:	4a170319 	bmi	5c17a0 <_etext+0x5be873>
     b38:	053c0905 	ldreq	r0, [ip, #-2309]!	; 0xfffff6fb
     b3c:	19052008 	stmdbne	r5, {r3, sp}
     b40:	20080520 	andcs	r0, r8, r0, lsr #10
     b44:	052f3405 	streq	r3, [pc, #-1029]!	; 747 <printf_dec+0x223>
     b48:	0c053c0d 	stceq	12, cr3, [r5], {13}
     b4c:	2f35059e 	svccs	0x0035059e
     b50:	053c0d05 	ldreq	r0, [ip, #-3333]!	; 0xfffff2fb
     b54:	0d05664e 	stceq	6, cr6, [r5, #-312]	; 0xfffffec8
     b58:	593a052e 	ldmdbpl	sl!, {r1, r2, r3, r5, r8, sl}
     b5c:	053c0d05 	ldreq	r0, [ip, #-3333]!	; 0xfffff2fb
     b60:	0d056653 	stceq	6, cr6, [r5, #-332]	; 0xfffffeb4
     b64:	591b052e 	ldmdbpl	fp, {r1, r2, r3, r5, r8, sl}
     b68:	052e2305 	streq	r2, [lr, #-773]!	; 0xfffffcfb
     b6c:	3e2f3205 	cdpcc	2, 2, cr3, cr15, cr5, {0}
     b70:	af2f0105 	svcge	0x002f0105
     b74:	053d1205 	ldreq	r1, [sp, #-517]!	; 0xfffffdfb
     b78:	05053d0e 	streq	r3, [r5, #-3342]	; 0xfffff2f2
     b7c:	0c053d2f 	stceq	13, cr3, [r5], {47}	; 0x2f
     b80:	2e05053d 	mcrcs	5, 0, r0, cr5, cr13, {1}
     b84:	05210905 	streq	r0, [r1, #-2309]!	; 0xfffff6fb
     b88:	05059d24 	streq	r9, [r5, #-3364]	; 0xfffff2dc
     b8c:	1105403c 	tstne	r5, ip, lsr r0
     b90:	3d010583 	cfstr32cc	mvfx0, [r1, #-524]	; 0xfffffdf4
     b94:	14053f08 	strne	r3, [r5], #-3848	; 0xfffff0f8
     b98:	3d05053d 	cfstr32cc	mvfx0, [r5, #-244]	; 0xffffff0c
     b9c:	052f0c05 	streq	r0, [pc, #-3077]!	; ffffff9f <_heap_top+0xdffbff9f>
     ba0:	054d2101 	strbeq	r2, [sp, #-257]	; 0xfffffeff
     ba4:	053d4b05 	ldreq	r4, [sp, #-2821]!	; 0xfffff4fb
     ba8:	054d2f01 	strbeq	r2, [sp, #-3841]	; 0xfffff0ff
     bac:	16053d17 			; <UNDEFINED> instruction: 0x16053d17
     bb0:	2e08053e 	mcrcs	5, 0, r0, cr8, cr14, {1}
     bb4:	052f1505 	streq	r1, [pc, #-1285]!	; 6b7 <printf_dec+0x193>
     bb8:	01056805 	tsteq	r5, r5, lsl #16
     bbc:	1705773d 	smladxne	r5, sp, r7, r7
     bc0:	3d16053d 	cfldr32cc	mvfx0, [r6, #-244]	; 0xffffff0c
     bc4:	052e0805 	streq	r0, [lr, #-2053]!	; 0xfffff7fb
     bc8:	0c052f0d 	stceq	15, cr2, [r5], {13}
     bcc:	2e0d054a 	cfsh32cs	mvfx0, mvfx13, #42
     bd0:	052e0c05 	streq	r0, [lr, #-3077]!	; 0xfffff3fb
     bd4:	05052f0d 	streq	r2, [r5, #-3853]	; 0xfffff0f3
     bd8:	3d010531 	cfstr32cc	mvfx0, [r1, #-196]	; 0xffffff3c
     bdc:	441d0577 	ldrmi	r0, [sp], #-1399	; 0xfffffa89
     be0:	054b1905 	strbeq	r1, [fp, #-2309]	; 0xfffff6fb
     be4:	0105ad0c 	tsteq	r5, ip, lsl #26
     be8:	2805852f 	stmdacs	r5, {r0, r1, r2, r3, r5, r8, sl, pc}
     bec:	2e05054b 	cfsh32cs	mvfx0, mvfx5, #43
     bf0:	670105bb 			; <UNDEFINED> instruction: 0x670105bb
     bf4:	4b230585 	blmi	8c2210 <_etext+0x8bf2e3>
     bf8:	052e0505 	streq	r0, [lr, #-1285]!	; 0xfffffafb
     bfc:	0905bb26 	stmdbeq	r5, {r1, r2, r5, r8, r9, fp, ip, sp, pc}
     c00:	9e08052e 	cfsh32ls	mvfx0, mvfx8, #30
     c04:	052f0905 	streq	r0, [pc, #-2309]!	; 307 <send_char+0xb>
     c08:	05856801 	streq	r6, [r5, #2049]	; 0x801
     c0c:	05055917 	streq	r5, [r5, #-2327]	; 0xfffff6e9
     c10:	6711053d 			; <UNDEFINED> instruction: 0x6711053d
     c14:	69670105 	stmdbvs	r7!, {r0, r2, r8}^
     c18:	054b0505 	strbeq	r0, [fp, #-1285]	; 0xfffffafb
     c1c:	01056711 	tsteq	r5, r1, lsl r7
     c20:	17056967 	strne	r6, [r5, -r7, ror #18]
     c24:	3f0f054b 	svccc	0x000f054b
     c28:	052e1705 	streq	r1, [lr, #-1797]!	; 0xfffff8fb
     c2c:	11052e08 	tstne	r5, r8, lsl #28
     c30:	2e1e0530 	cfmvr64hcs	r0, mvdx14
     c34:	053c0c05 	ldreq	r0, [ip, #-3077]!	; 0xfffff3fb
     c38:	0d052f19 	stceq	15, cr2, [r5, #-100]	; 0xffffff9c
     c3c:	3d160568 	cfldr32cc	mvfx0, [r6, #-416]	; 0xfffffe60
     c40:	052e1005 	streq	r1, [lr, #-5]!
     c44:	05053d11 	streq	r3, [r5, #-3345]	; 0xfffff2ef
     c48:	3d010534 	cfstr32cc	mvfx0, [r1, #-208]	; 0xffffff30
     c4c:	4b170577 	blmi	5c2230 <_etext+0x5bf303>
     c50:	053e0d05 	ldreq	r0, [lr, #-3333]!	; 0xfffff2fb
     c54:	08052e15 	stmdaeq	r5, {r0, r2, r4, r9, sl, fp, sp}
     c58:	2f13052e 	svccs	0x0013052e
     c5c:	052e0d05 	streq	r0, [lr, #-3333]!	; 0xfffff2fb
     c60:	1305200c 	movwne	r2, #20492	; 0x500c
     c64:	2e0c052e 	cfsh32cs	mvfx0, mvfx12, #30
     c68:	052f1905 	streq	r1, [pc, #-2309]!	; 36b <is_asc+0xb>
     c6c:	053d670d 	ldreq	r6, [sp, #-1805]!	; 0xfffff8f3
     c70:	01053105 	tsteq	r5, r5, lsl #2
     c74:	23054d3d 	movwcs	r4, #23869	; 0x5d3d
     c78:	2e05054b 	cfsh32cs	mvfx0, mvfx5, #43
     c7c:	05bb2605 	ldreq	r2, [fp, #1541]!	; 0x605
     c80:	08052e09 	stmdaeq	r5, {r0, r3, r9, sl, fp, sp}
     c84:	2f09059e 	svccs	0x0009059e
     c88:	85680105 	strbhi	r0, [r8, #-261]!	; 0xfffffefb
     c8c:	054b0505 	strbeq	r0, [fp, #-1285]	; 0xfffffafb
     c90:	05696701 	strbeq	r6, [r9, #-1793]!	; 0xfffff8ff
     c94:	17056711 	smladne	r5, r1, r7, r6
     c98:	3d01053d 	cfstr32cc	mvfx0, [r1, #-244]	; 0xffffff0c
     c9c:	4b17055b 	blmi	5c2210 <_etext+0x5bf2e3>
     ca0:	053e0d05 	ldreq	r0, [lr, #-3333]!	; 0xfffff2fb
     ca4:	08052e15 	stmdaeq	r5, {r0, r2, r4, r9, sl, fp, sp}
     ca8:	2f09052e 	svccs	0x0009052e
     cac:	054b1605 	strbeq	r1, [fp, #-1541]	; 0xfffff9fb
     cb0:	0f052e1e 	svceq	0x00052e1e
     cb4:	2f09052e 	svccs	0x0009052e
     cb8:	053f0d05 	ldreq	r0, [pc, #-3333]!	; ffffffbb <_heap_top+0xdffbffbb>
     cbc:	0d052e08 	stceq	14, cr2, [r5, #-32]	; 0xffffffe0
     cc0:	2e09052f 	cfsh32cs	mvfx0, mvfx9, #31
     cc4:	054d1805 	strbeq	r1, [sp, #-2053]	; 0xfffff7fb
     cc8:	09052e08 	stmdbeq	r5, {r3, r9, sl, fp, sp}
     ccc:	3105053d 	tstcc	r5, sp, lsr r5
     cd0:	773d0105 	ldrvc	r0, [sp, -r5, lsl #2]!
     cd4:	054b1705 	strbeq	r1, [fp, #-1797]	; 0xfffff8fb
     cd8:	05053e1c 	streq	r3, [r5, #-3612]	; 0xfffff1e4
     cdc:	3d01054c 	cfstr32cc	mvfx0, [r1, #-304]	; 0xfffffed0
     ce0:	3f17054d 	svccc	0x0017054d
     ce4:	053d1c05 	ldreq	r1, [sp, #-3077]!	; 0xfffff3fb
     ce8:	05052e0c 	streq	r2, [r5, #-3596]	; 0xfffff1f4
     cec:	3e0c053d 	mcrcc	5, 0, r0, cr12, cr13, {1}
     cf0:	77210105 	strvc	r0, [r1, -r5, lsl #2]!
     cf4:	053d1605 	ldreq	r1, [sp, #-1541]!	; 0xfffff9fb
     cf8:	05053c0d 	streq	r3, [r5, #-3085]	; 0xfffff3f3
     cfc:	5a170522 	bpl	5c218c <_etext+0x5bf25f>
     d00:	053c0805 	ldreq	r0, [ip, #-2053]!	; 0xfffff7fb
     d04:	2d052f17 	stccs	15, cr2, [r5, #-92]	; 0xffffffa4
     d08:	2e09053c 	mcrcs	5, 0, r0, cr9, cr12, {1}
     d0c:	303f0505 	eorscc	r0, pc, r5, lsl #10
     d10:	774b0105 	strbvc	r0, [fp, -r5, lsl #2]
     d14:	05591705 	ldrbeq	r1, [r9, #-1797]	; 0xfffff8fb
     d18:	17053e1d 	smladne	r5, sp, lr, r3
     d1c:	2f16052e 	svccs	0x0016052e
     d20:	052e1005 	streq	r1, [lr, #-5]!
     d24:	11052f17 	tstne	r5, r7, lsl pc
     d28:	2f17052e 	svccs	0x0017052e
     d2c:	052e1105 	streq	r1, [lr, #-261]!	; 0xfffffefb
     d30:	17052f1d 	smladne	r5, sp, pc, r2	; <UNPREDICTABLE>
     d34:	3005052e 	andcc	r0, r5, lr, lsr #10
     d38:	4d3d0105 	ldfmis	f0, [sp, #-20]!	; 0xffffffec
     d3c:	3d4b0505 	cfstr64cc	mvdx0, [fp, #-20]	; 0xffffffec
     d40:	05676767 	strbeq	r6, [r7, #-1895]!	; 0xfffff899
     d44:	0e026701 	cdpeq	7, 0, cr6, cr2, cr1, {0}
     d48:	3c010100 	stfccs	f0, [r1], {-0}
     d4c:	03000003 	movweq	r0, #3
     d50:	00012900 	andeq	r2, r1, r0, lsl #18
     d54:	fb010200 	blx	4155e <_etext+0x3e631>
     d58:	01000d0e 	tsteq	r0, lr, lsl #26
     d5c:	00010101 	andeq	r0, r1, r1, lsl #2
     d60:	00010000 	andeq	r0, r1, r0
     d64:	72730100 	rsbsvc	r0, r3, #0, 2
     d68:	656b2f63 	strbvs	r2, [fp, #-3939]!	; 0xfffff09d
     d6c:	6c656e72 	stclvs	14, cr6, [r5], #-456	; 0xfffffe38
     d70:	72702f00 	rsbsvc	r2, r0, #0, 30
     d74:	63656a6f 	cmnvs	r5, #454656	; 0x6f000
     d78:	63672f74 	cmnvs	r7, #116, 30	; 0x1d0
     d7c:	41412f63 	cmpmi	r1, r3, ror #30
     d80:	33686372 	cmncc	r8, #-939524095	; 0xc8000001
     d84:	61625f32 	cmnvs	r2, r2, lsr pc
     d88:	6d2d6572 	cfstr32vs	mvfx6, [sp, #-456]!	; 0xfffffe38
     d8c:	6c617465 	cfstrdvs	mvd7, [r1], #-404	; 0xfffffe6c
     d90:	6363672f 	cmnvs	r3, #12320768	; 0xbc0000
     d94:	6d72612d 	ldfvse	f6, [r2, #-180]!	; 0xffffff4c
     d98:	2e30312d 	rsfcssp	f3, f0, #5.0
     d9c:	30322d33 	eorscc	r2, r2, r3, lsr sp
     da0:	302e3132 	eorcc	r3, lr, r2, lsr r1
     da4:	38782d37 	ldmdacc	r8!, {r0, r1, r2, r4, r5, r8, sl, fp, sp}^
     da8:	34365f36 	ldrtcc	r5, [r6], #-3894	; 0xfffff0ca
     dac:	6d72612d 	ldfvse	f6, [r2, #-180]!	; 0xffffff4c
     db0:	6e6f6e2d 	cdpvs	14, 6, cr6, cr15, cr13, {1}
     db4:	61652d65 	cmnvs	r5, r5, ror #26
     db8:	612f6962 			; <UNDEFINED> instruction: 0x612f6962
     dbc:	6e2d6d72 	mcrvs	13, 1, r6, cr13, cr2, {3}
     dc0:	2d656e6f 	stclcs	14, cr6, [r5, #-444]!	; 0xfffffe44
     dc4:	69626165 	stmdbvs	r2!, {r0, r2, r5, r6, r8, sp, lr}^
     dc8:	636e692f 	cmnvs	lr, #770048	; 0xbc000
     dcc:	6564756c 	strbvs	r7, [r4, #-1388]!	; 0xfffffa94
     dd0:	63616d2f 	cmnvs	r1, #3008	; 0xbc0
     dd4:	656e6968 	strbvs	r6, [lr, #-2408]!	; 0xfffff698
     dd8:	72702f00 	rsbsvc	r2, r0, #0, 30
     ddc:	63656a6f 	cmnvs	r5, #454656	; 0x6f000
     de0:	63672f74 	cmnvs	r7, #116, 30	; 0x1d0
     de4:	41412f63 	cmpmi	r1, r3, ror #30
     de8:	33686372 	cmncc	r8, #-939524095	; 0xc8000001
     dec:	61625f32 	cmnvs	r2, r2, lsr pc
     df0:	6d2d6572 	cfstr32vs	mvfx6, [sp, #-456]!	; 0xfffffe38
     df4:	6c617465 	cfstrdvs	mvd7, [r1], #-404	; 0xfffffe6c
     df8:	6363672f 	cmnvs	r3, #12320768	; 0xbc0000
     dfc:	6d72612d 	ldfvse	f6, [r2, #-180]!	; 0xffffff4c
     e00:	2e30312d 	rsfcssp	f3, f0, #5.0
     e04:	30322d33 	eorscc	r2, r2, r3, lsr sp
     e08:	302e3132 	eorcc	r3, lr, r2, lsr r1
     e0c:	38782d37 	ldmdacc	r8!, {r0, r1, r2, r4, r5, r8, sl, fp, sp}^
     e10:	34365f36 	ldrtcc	r5, [r6], #-3894	; 0xfffff0ca
     e14:	6d72612d 	ldfvse	f6, [r2, #-180]!	; 0xffffff4c
     e18:	6e6f6e2d 	cdpvs	14, 6, cr6, cr15, cr13, {1}
     e1c:	61652d65 	cmnvs	r5, r5, ror #26
     e20:	612f6962 			; <UNDEFINED> instruction: 0x612f6962
     e24:	6e2d6d72 	mcrvs	13, 1, r6, cr13, cr2, {3}
     e28:	2d656e6f 	stclcs	14, cr6, [r5, #-444]!	; 0xfffffe44
     e2c:	69626165 	stmdbvs	r2!, {r0, r2, r5, r6, r8, sp, lr}^
     e30:	636e692f 	cmnvs	lr, #770048	; 0xbc000
     e34:	6564756c 	strbvs	r7, [r4, #-1388]!	; 0xfffffa94
     e38:	7379732f 	cmnvc	r9, #-1140850688	; 0xbc000000
     e3c:	63727300 	cmnvs	r2, #0, 6
     e40:	636e692f 	cmnvs	lr, #770048	; 0xbc000
     e44:	6564756c 	strbvs	r7, [r4, #-1388]!	; 0xfffffa94
     e48:	696c0000 	stmdbvs	ip!, {}^	; <UNPREDICTABLE>
     e4c:	00632e62 	rsbeq	r2, r3, r2, ror #28
     e50:	5f000001 	svcpl	0x00000001
     e54:	61666564 	cmnvs	r6, r4, ror #10
     e58:	5f746c75 	svcpl	0x00746c75
     e5c:	65707974 	ldrbvs	r7, [r0, #-2420]!	; 0xfffff68c
     e60:	00682e73 	rsbeq	r2, r8, r3, ror lr
     e64:	5f000002 	svcpl	0x00000002
     e68:	69647473 	stmdbvs	r4!, {r0, r1, r4, r5, r6, sl, ip, sp, lr}^
     e6c:	682e746e 	stmdavs	lr!, {r1, r2, r3, r5, r6, sl, ip, sp, lr}
     e70:	00000300 	andeq	r0, r0, r0, lsl #6
     e74:	2e62696c 	vnmulcs.f16	s13, s4, s25	; <UNPREDICTABLE>
     e78:	00040068 	andeq	r0, r4, r8, rrx
     e7c:	01050000 	mrseq	r0, (UNDEF: 5)
     e80:	94020500 	strls	r0, [r2], #-1280	; 0xfffffb00
     e84:	15000015 	strne	r0, [r0, #-21]	; 0xffffffeb
     e88:	054b1405 	strbeq	r1, [fp, #-1029]	; 0xfffffbfb
     e8c:	055b3d01 	ldrbeq	r3, [fp, #-3329]	; 0xfffff2ff
     e90:	01052f0c 	tsteq	r5, ip, lsl #30
     e94:	14054d21 	strne	r4, [r5], #-3361	; 0xfffff2df
     e98:	2e190559 	mrccs	5, 0, r0, cr9, cr9, {2}
     e9c:	054a1405 	strbeq	r1, [sl, #-1029]	; 0xfffffbfb
     ea0:	055b3d01 	ldrbeq	r3, [fp, #-3329]	; 0xfffff2ff
     ea4:	1b055914 	blne	1572fc <_etext+0x1543cf>
     ea8:	4a17052e 	bmi	5c2368 <_etext+0x5bf43b>
     eac:	05201405 	streq	r1, [r0, #-1029]!	; 0xfffffbfb
     eb0:	055b3d01 	ldrbeq	r3, [fp, #-3329]	; 0xfffff2ff
     eb4:	0f054b0e 	svceq	0x00054b0e
     eb8:	052e1503 	streq	r1, [lr, #-1283]!	; 0xfffffafd
     ebc:	08052e18 	stmdaeq	r5, {r3, r4, r9, sl, fp, sp}
     ec0:	2f210520 	svccs	0x00210520
     ec4:	052e2a05 	streq	r2, [lr, #-2565]!	; 0xfffff5fb
     ec8:	0d05201a 	stceq	0, cr2, [r5, #-104]	; 0xffffff98
     ecc:	2f16052e 	svccs	0x0016052e
     ed0:	052e1f05 	streq	r1, [lr, #-3845]!	; 0xfffff0fb
     ed4:	22052e0f 	andcs	r2, r5, #15, 28	; 0xf0
     ed8:	2e2b052f 	cfsh64cs	mvdx0, mvdx11, #31
     edc:	05203105 	streq	r3, [r0, #-261]!	; 0xfffffefb
     ee0:	3905201a 	stmdbcc	r5, {r1, r3, r4, sp}
     ee4:	200d052e 	andcs	r0, sp, lr, lsr #10
     ee8:	052f1605 	streq	r1, [pc, #-1541]!	; 8eb <printk+0x147>
     eec:	0f052e1f 	svceq	0x00052e1f
     ef0:	2f22052e 	svccs	0x0022052e
     ef4:	052e2b05 	streq	r2, [lr, #-2821]!	; 0xfffff4fb
     ef8:	1a052032 	bne	148fc8 <_etext+0x14609b>
     efc:	2e3a0520 	cfabs64cs	mvdx0, mvdx10
     f00:	05200d05 	streq	r0, [r0, #-3333]!	; 0xfffff2fb
     f04:	1f052f16 	svcne	0x00052f16
     f08:	2e0f052e 	cfsh32cs	mvfx0, mvfx15, #30
     f0c:	052f2205 	streq	r2, [pc, #-517]!	; d0f <task_init+0x25>
     f10:	1a052e2b 	bne	14c7c4 <_etext+0x149897>
     f14:	2e3a0520 	cfabs64cs	mvdx0, mvdx10
     f18:	05200d05 	streq	r0, [r0, #-3333]!	; 0xfffff2fb
     f1c:	0c05300f 	stceq	0, cr3, [r5], {15}
     f20:	2101053f 	tstcs	r1, pc, lsr r5
     f24:	4b080569 	blmi	2024d0 <_etext+0x1ff5a3>
     f28:	3d3d1405 	cfldrscc	mvf1, [sp, #-20]!	; 0xffffffec
     f2c:	5b3e0105 	blpl	f81348 <_etext+0xf7e41b>
     f30:	054c0805 	strbeq	r0, [ip, #-2053]	; 0xfffff7fb
     f34:	09053d1a 	stmdbeq	r5, {r1, r3, r4, r8, sl, fp, ip, sp}
     f38:	4c01053d 	cfstr32mi	mvfx0, [r1], {61}	; 0x3d
     f3c:	4b0e054d 	blmi	382478 <_etext+0x37f54b>
     f40:	052f0805 	streq	r0, [pc, #-2053]!	; 743 <printf_dec+0x21f>
     f44:	053e3d0c 	ldreq	r3, [lr, #-3340]!	; 0xfffff2f4
     f48:	055b2101 	ldrbeq	r2, [fp, #-257]	; 0xfffffeff
     f4c:	052f4b12 	streq	r4, [pc, #-2834]!	; 442 <printf_hex+0x6>
     f50:	08052f0d 	stmdaeq	r5, {r0, r2, r3, r8, r9, sl, fp, sp}
     f54:	2f0d052e 	svccs	0x000d052e
     f58:	053e0c05 	ldreq	r0, [lr, #-3077]!	; 0xfffff3fb
     f5c:	055b2101 	ldrbeq	r2, [fp, #-257]	; 0xfffffeff
     f60:	052f4b12 	streq	r4, [pc, #-2834]!	; 456 <printf_hex+0x1a>
     f64:	08052f0d 	stmdaeq	r5, {r0, r2, r3, r8, r9, sl, fp, sp}
     f68:	2f0d052e 	svccs	0x000d052e
     f6c:	053e0c05 	ldreq	r0, [lr, #-3077]!	; 0xfffff3fb
     f70:	055b2101 	ldrbeq	r2, [fp, #-257]	; 0xfffffeff
     f74:	08054b12 	stmdaeq	r5, {r1, r4, r8, r9, fp, lr}
     f78:	3d0d052f 	cfstr32cc	mvfx0, [sp, #-188]	; 0xffffff44
     f7c:	053e0c05 	ldreq	r0, [lr, #-3077]!	; 0xfffff3fb
     f80:	055b2101 	ldrbeq	r2, [fp, #-257]	; 0xfffffeff
     f84:	08054b12 	stmdaeq	r5, {r1, r4, r8, r9, fp, lr}
     f88:	3d0d052f 	cfstr32cc	mvfx0, [sp, #-188]	; 0xffffff44
     f8c:	053e0c05 	ldreq	r0, [lr, #-3077]!	; 0xfffff3fb
     f90:	055b2101 	ldrbeq	r2, [fp, #-257]	; 0xfffffeff
     f94:	2f2f4c12 	svccs	0x002f4c12
     f98:	052f0805 	streq	r0, [pc, #-2053]!	; 79b <no_printk+0x7>
     f9c:	0f05400a 	svceq	0x0005400a
     fa0:	3d10052f 	cfldr32cc	mvfx0, [r0, #-188]	; 0xffffff44
     fa4:	053c0505 	ldreq	r0, [ip, #-1285]!	; 0xfffffafb
     fa8:	13052112 	movwne	r2, #20754	; 0x5112
     fac:	3d18052f 	cfldr32cc	mvfx0, [r8, #-188]	; 0xffffff44
     fb0:	3835053d 	ldmdacc	r5!, {r0, r2, r3, r4, r5, r8, sl}
     fb4:	053c0505 	ldreq	r0, [ip, #-1285]!	; 0xfffffafb
     fb8:	053d4310 	ldreq	r4, [sp, #-784]!	; 0xfffffcf0
     fbc:	05053d16 	streq	r3, [r5, #-3350]	; 0xfffff2ea
     fc0:	0309053e 	movweq	r0, #38206	; 0x953e
     fc4:	05052070 	streq	r2, [r5, #-112]	; 0xffffff90
     fc8:	05201003 	streq	r1, [r0, #-3]!
     fcc:	054d2201 	strbeq	r2, [sp, #-513]	; 0xfffffdff
     fd0:	052f5912 	streq	r5, [pc, #-2322]!	; 6c6 <printf_dec+0x1a2>
     fd4:	0a052f08 	beq	14cbfc <_etext+0x149ccf>
     fd8:	10052f40 	andne	r2, r5, r0, asr #30
     fdc:	15053d3e 	strne	r3, [r5, #-3390]	; 0xfffff2c2
     fe0:	09053d3d 	stmdbeq	r5, {r0, r2, r3, r4, r5, r8, sl, fp, ip, sp}
     fe4:	2e15053d 	mrccs	5, 0, r0, cr5, cr13, {1}
     fe8:	053e0505 	ldreq	r0, [lr, #-1285]!	; 0xfffffafb
     fec:	20740309 	rsbscs	r0, r4, r9, lsl #6
     ff0:	0c030505 	cfstr32eq	mvfx0, [r3], {5}
     ff4:	21010520 	tstcs	r1, r0, lsr #10
     ff8:	5912054d 	ldmdbpl	r2, {r0, r2, r3, r6, r8, sl}
     ffc:	2f08052f 	svccs	0x0008052f
    1000:	2f400a05 	svccs	0x00400a05
    1004:	3d3e1505 	cfldr32cc	mvfx1, [lr, #-20]!	; 0xffffffec
    1008:	3d3d1005 	ldccc	0, cr1, [sp, #-20]!	; 0xffffffec
    100c:	053d0905 	ldreq	r0, [sp, #-2309]!	; 0xfffff6fb
    1010:	05052e15 	streq	r2, [r5, #-3605]	; 0xfffff1eb
    1014:	0309053e 	movweq	r0, #38206	; 0x953e
    1018:	05052074 	streq	r2, [r5, #-116]	; 0xffffff8c
    101c:	05200c03 	streq	r0, [r0, #-3075]!	; 0xfffff3fd
    1020:	054d2101 	strbeq	r2, [sp, #-257]	; 0xfffffeff
    1024:	2f2f4b12 	svccs	0x002f4b12
    1028:	05300805 	ldreq	r0, [r0, #-2053]!	; 0xfffff7fb
    102c:	0905400a 	stmdbeq	r5, {r1, r3, lr}
    1030:	3d08052f 	cfstr32cc	mvfx0, [r8, #-188]	; 0xffffff44
    1034:	054b0d05 	strbeq	r0, [fp, #-3333]	; 0xfffff2fb
    1038:	0a052f09 	beq	14cc64 <_etext+0x149d37>
    103c:	3d100523 	cfldr32cc	mvfx0, [r0, #-140]	; 0xffffff74
    1040:	3d0f053d 	cfstr32cc	mvfx0, [pc, #-244]	; f54 <task_system_tick_handler+0x6>
    1044:	3d09053d 	cfstr32cc	mvfx0, [r9, #-244]	; 0xffffff0c
    1048:	052e1505 	streq	r1, [lr, #-1285]!	; 0xfffffafb
    104c:	4a710309 	bmi	1c41c78 <_etext+0x1c3ed4b>
    1050:	11030c05 	tstne	r3, r5, lsl #24
    1054:	21010520 	tstcs	r1, r0, lsr #10
    1058:	5912055b 	ldmdbpl	r2, {r0, r1, r3, r4, r6, r8, sl}
    105c:	3008052f 	andcc	r0, r8, pc, lsr #10
    1060:	053c2105 	ldreq	r2, [ip, #-261]!	; 0xfffffefb
    1064:	053d400a 	ldreq	r4, [sp, #-10]!
    1068:	25053d08 	strcs	r3, [r5, #-3336]	; 0xfffff2f8
    106c:	4010053c 	andsmi	r0, r0, ip, lsr r5
    1070:	3d09053d 	cfstr32cc	mvfx0, [r9, #-244]	; 0xffffff0c
    1074:	052e1505 	streq	r1, [lr, #-1285]!	; 0xfffffafb
    1078:	09053e05 	stmdbeq	r5, {r0, r2, r9, sl, fp, ip, sp}
    107c:	34207303 	strtcc	r7, [r0], #-771	; 0xfffffcfd
    1080:	05270505 	streq	r0, [r7, #-1285]!	; 0xfffffafb
    1084:	04022101 	streq	r2, [r2], #-257	; 0xfffffeff
    1088:	50010100 	andpl	r0, r1, r0, lsl #2
    108c:	03000002 	movweq	r0, #2
    1090:	00014800 	andeq	r4, r1, r0, lsl #16
    1094:	fb010200 	blx	4189e <_etext+0x3e971>
    1098:	01000d0e 	tsteq	r0, lr, lsl #26
    109c:	00010101 	andeq	r0, r1, r1, lsl #2
    10a0:	00010000 	andeq	r0, r1, r0
    10a4:	72730100 	rsbsvc	r0, r3, #0, 2
    10a8:	656b2f63 	strbvs	r2, [fp, #-3939]!	; 0xfffff09d
    10ac:	6c656e72 	stclvs	14, cr6, [r5], #-456	; 0xfffffe38
    10b0:	72702f00 	rsbsvc	r2, r0, #0, 30
    10b4:	63656a6f 	cmnvs	r5, #454656	; 0x6f000
    10b8:	63672f74 	cmnvs	r7, #116, 30	; 0x1d0
    10bc:	41412f63 	cmpmi	r1, r3, ror #30
    10c0:	33686372 	cmncc	r8, #-939524095	; 0xc8000001
    10c4:	61625f32 	cmnvs	r2, r2, lsr pc
    10c8:	6d2d6572 	cfstr32vs	mvfx6, [sp, #-456]!	; 0xfffffe38
    10cc:	6c617465 	cfstrdvs	mvd7, [r1], #-404	; 0xfffffe6c
    10d0:	6363672f 	cmnvs	r3, #12320768	; 0xbc0000
    10d4:	6d72612d 	ldfvse	f6, [r2, #-180]!	; 0xffffff4c
    10d8:	2e30312d 	rsfcssp	f3, f0, #5.0
    10dc:	30322d33 	eorscc	r2, r2, r3, lsr sp
    10e0:	302e3132 	eorcc	r3, lr, r2, lsr r1
    10e4:	38782d37 	ldmdacc	r8!, {r0, r1, r2, r4, r5, r8, sl, fp, sp}^
    10e8:	34365f36 	ldrtcc	r5, [r6], #-3894	; 0xfffff0ca
    10ec:	6d72612d 	ldfvse	f6, [r2, #-180]!	; 0xffffff4c
    10f0:	6e6f6e2d 	cdpvs	14, 6, cr6, cr15, cr13, {1}
    10f4:	61652d65 	cmnvs	r5, r5, ror #26
    10f8:	612f6962 			; <UNDEFINED> instruction: 0x612f6962
    10fc:	6e2d6d72 	mcrvs	13, 1, r6, cr13, cr2, {3}
    1100:	2d656e6f 	stclcs	14, cr6, [r5, #-444]!	; 0xfffffe44
    1104:	69626165 	stmdbvs	r2!, {r0, r2, r5, r6, r8, sp, lr}^
    1108:	636e692f 	cmnvs	lr, #770048	; 0xbc000
    110c:	6564756c 	strbvs	r7, [r4, #-1388]!	; 0xfffffa94
    1110:	63616d2f 	cmnvs	r1, #3008	; 0xbc0
    1114:	656e6968 	strbvs	r6, [lr, #-2408]!	; 0xfffff698
    1118:	72702f00 	rsbsvc	r2, r0, #0, 30
    111c:	63656a6f 	cmnvs	r5, #454656	; 0x6f000
    1120:	63672f74 	cmnvs	r7, #116, 30	; 0x1d0
    1124:	41412f63 	cmpmi	r1, r3, ror #30
    1128:	33686372 	cmncc	r8, #-939524095	; 0xc8000001
    112c:	61625f32 	cmnvs	r2, r2, lsr pc
    1130:	6d2d6572 	cfstr32vs	mvfx6, [sp, #-456]!	; 0xfffffe38
    1134:	6c617465 	cfstrdvs	mvd7, [r1], #-404	; 0xfffffe6c
    1138:	6363672f 	cmnvs	r3, #12320768	; 0xbc0000
    113c:	6d72612d 	ldfvse	f6, [r2, #-180]!	; 0xffffff4c
    1140:	2e30312d 	rsfcssp	f3, f0, #5.0
    1144:	30322d33 	eorscc	r2, r2, r3, lsr sp
    1148:	302e3132 	eorcc	r3, lr, r2, lsr r1
    114c:	38782d37 	ldmdacc	r8!, {r0, r1, r2, r4, r5, r8, sl, fp, sp}^
    1150:	34365f36 	ldrtcc	r5, [r6], #-3894	; 0xfffff0ca
    1154:	6d72612d 	ldfvse	f6, [r2, #-180]!	; 0xffffff4c
    1158:	6e6f6e2d 	cdpvs	14, 6, cr6, cr15, cr13, {1}
    115c:	61652d65 	cmnvs	r5, r5, ror #26
    1160:	612f6962 			; <UNDEFINED> instruction: 0x612f6962
    1164:	6e2d6d72 	mcrvs	13, 1, r6, cr13, cr2, {3}
    1168:	2d656e6f 	stclcs	14, cr6, [r5, #-444]!	; 0xfffffe44
    116c:	69626165 	stmdbvs	r2!, {r0, r2, r5, r6, r8, sp, lr}^
    1170:	636e692f 	cmnvs	lr, #770048	; 0xbc000
    1174:	6564756c 	strbvs	r7, [r4, #-1388]!	; 0xfffffa94
    1178:	7379732f 	cmnvc	r9, #-1140850688	; 0xbc000000
    117c:	63727300 	cmnvs	r2, #0, 6
    1180:	636e692f 	cmnvs	lr, #770048	; 0xbc000
    1184:	6564756c 	strbvs	r7, [r4, #-1388]!	; 0xfffffa94
    1188:	76650000 	strbtvc	r0, [r5], -r0
    118c:	2e746e65 	cdpcs	14, 7, cr6, cr4, cr5, {3}
    1190:	00010063 	andeq	r0, r1, r3, rrx
    1194:	65645f00 	strbvs	r5, [r4, #-3840]!	; 0xfffff100
    1198:	6c756166 	ldfvse	f6, [r5], #-408	; 0xfffffe68
    119c:	79745f74 	ldmdbvc	r4!, {r2, r4, r5, r6, r8, r9, sl, fp, ip, lr}^
    11a0:	2e736570 	mrccs	5, 3, r6, cr3, cr0, {3}
    11a4:	00020068 	andeq	r0, r2, r8, rrx
    11a8:	74735f00 	ldrbtvc	r5, [r3], #-3840	; 0xfffff100
    11ac:	746e6964 	strbtvc	r6, [lr], #-2404	; 0xfffff69c
    11b0:	0300682e 	movweq	r6, #2094	; 0x82e
    11b4:	696c0000 	stmdbvs	ip!, {}^	; <UNPREDICTABLE>
    11b8:	00682e62 	rsbeq	r2, r8, r2, ror #28
    11bc:	74000004 	strvc	r0, [r0], #-4
    11c0:	2e6b7361 	cdpcs	3, 6, cr7, cr11, cr1, {3}
    11c4:	00040068 	andeq	r0, r4, r8, rrx
    11c8:	65766500 	ldrbvs	r6, [r6, #-1280]!	; 0xfffffb00
    11cc:	682e746e 	stmdavs	lr!, {r1, r2, r3, r5, r6, sl, ip, sp, lr}
    11d0:	00000400 	andeq	r0, r0, r0, lsl #8
    11d4:	682e736f 	stmdavs	lr!, {r0, r1, r2, r3, r5, r6, r8, r9, ip, sp, lr}
    11d8:	00000400 	andeq	r0, r0, r0, lsl #8
    11dc:	00010500 	andeq	r0, r1, r0, lsl #10
    11e0:	197c0205 	ldmdbne	ip!, {r0, r2, r9}^
    11e4:	05160000 	ldreq	r0, [r6, #-0]
    11e8:	05055911 	streq	r5, [r5, #-2321]	; 0xfffff6ef
    11ec:	5901053d 	stmdbpl	r1, {r0, r2, r3, r4, r5, r8, sl}
    11f0:	7517054d 	ldrvc	r0, [r7, #-1357]	; 0xfffffab3
    11f4:	053e1105 	ldreq	r1, [lr, #-261]!	; 0xfffffefb
    11f8:	1d056716 	stcne	7, cr6, [r5, #-88]	; 0xffffffa8
    11fc:	3e05053d 	mcrcc	5, 0, r0, cr5, cr13, {1}
    1200:	8308053d 	movwhi	r0, #34109	; 0x853d
    1204:	053d0905 	ldreq	r0, [sp, #-2309]!	; 0xfffff6fb
    1208:	01054d05 	tsteq	r5, r5, lsl #26
    120c:	12054d3d 	andne	r4, r5, #3904	; 0xf40
    1210:	2f0d0567 	svccs	0x000d0567
    1214:	05301705 	ldreq	r1, [r0, #-1797]!	; 0xfffff8fb
    1218:	08053e11 	stmdaeq	r5, {r0, r4, r9, sl, fp, ip, sp}
    121c:	3d1a0566 	cfldr32cc	mvfx0, [sl, #-408]	; 0xfffffe68
    1220:	052e0e05 	streq	r0, [lr, #-3589]!	; 0xfffff1fb
    1224:	1905211a 	stmdbne	r5, {r1, r3, r4, r8, sp}
    1228:	3d15053d 	cfldr32cc	mvfx0, [r5, #-244]	; 0xffffff0c
    122c:	05681105 	strbeq	r1, [r8, #-261]!	; 0xfffffefb
    1230:	0d052e0c 	stceq	14, cr2, [r5, #-48]	; 0xffffffd0
    1234:	3e09052f 	cfsh32cc	mvfx0, mvfx9, #31
    1238:	053f0505 	ldreq	r0, [pc, #-1285]!	; d3b <task_init+0x51>
    123c:	01053d0c 	tsteq	r5, ip, lsl #26
    1240:	17054d21 	strne	r4, [r5, -r1, lsr #26]
    1244:	3e050576 	cfrshl64cc	mvdx5, mvdx6, r0
    1248:	05831605 	streq	r1, [r3, #1541]	; 0x605
    124c:	11053d15 	tstne	r5, r5, lsl sp
    1250:	680d053d 	stmdavs	sp, {r0, r2, r3, r4, r5, r8, sl}
    1254:	052e0805 	streq	r0, [lr, #-2053]!	; 0xfffff7fb
    1258:	05052f09 	streq	r2, [r5, #-3849]	; 0xfffff0f7
    125c:	0c053e3e 	stceq	14, cr3, [r5], {62}	; 0x3e
    1260:	2101053d 	tstcs	r1, sp, lsr r5
    1264:	6717054d 	ldrvs	r0, [r7, -sp, asr #10]
    1268:	053e1605 	ldreq	r1, [lr, #-1541]!	; 0xfffff9fb
    126c:	16052e05 	strne	r2, [r5], -r5, lsl #28
    1270:	3d150575 	cfldr32cc	mvfx0, [r5, #-468]	; 0xfffffe2c
    1274:	053d1d05 	ldreq	r1, [sp, #-3333]!	; 0xfffff2fb
    1278:	05053d11 	streq	r3, [r5, #-3345]	; 0xfffff2ef
    127c:	3d010568 	cfstr32cc	mvfx0, [r1, #-416]	; 0xfffffe60
    1280:	6712054d 	ldrvs	r0, [r2, -sp, asr #10]
    1284:	052f0e05 	streq	r0, [pc, #-3589]!	; 487 <printf_hex+0x4b>
    1288:	05052f17 	streq	r2, [r5, #-3863]	; 0xfffff0e9
    128c:	4b0d053e 	blmi	34278c <_etext+0x33f85f>
    1290:	05670b05 	strbeq	r0, [r7, #-2821]!	; 0xfffff4fb
    1294:	22052109 	andcs	r2, r5, #1073741826	; 0x40000002
    1298:	2e11053d 	mrccs	5, 0, r0, cr1, cr13, {1}
    129c:	05211a05 	streq	r1, [r1, #-2565]!	; 0xfffff5fb
    12a0:	21053d19 	tstcs	r5, r9, lsl sp
    12a4:	3d15053d 	cfldr32cc	mvfx0, [r5, #-244]	; 0xffffff0c
    12a8:	05671105 	strbeq	r1, [r7, #-261]!	; 0xfffffefb
    12ac:	0d052e0c 	stceq	14, cr2, [r5, #-48]	; 0xffffffd0
    12b0:	3e09052f 	cfsh32cc	mvfx0, mvfx9, #31
    12b4:	76031405 	strvc	r1, [r3], -r5, lsl #8
    12b8:	660b053c 			; <UNDEFINED> instruction: 0x660b053c
    12bc:	0d030505 	cfstr32eq	mvfx0, [r3, #-20]	; 0xffffffec
    12c0:	3d0c053c 	cfstr32cc	mvfx0, [ip, #-240]	; 0xffffff10
    12c4:	af210105 	svcge	0x00210105
    12c8:	054b0e05 	strbeq	r0, [fp, #-3589]	; 0xfffff1fb
    12cc:	0d052f17 	stceq	15, cr2, [r5, #-92]	; 0xffffffa4
    12d0:	6805053e 	stmdavs	r5, {r1, r2, r3, r4, r5, r8, sl}
    12d4:	053d0c05 	ldreq	r0, [sp, #-3077]!	; 0xfffff3fb
    12d8:	04022101 	streq	r2, [r2], #-257	; 0xfffffeff
    12dc:	24010100 	strcs	r0, [r1], #-256	; 0xffffff00
    12e0:	03000002 	movweq	r0, #2
    12e4:	00014f00 	andeq	r4, r1, r0, lsl #30
    12e8:	fb010200 	blx	41af2 <_etext+0x3ebc5>
    12ec:	01000d0e 	tsteq	r0, lr, lsl #26
    12f0:	00010101 	andeq	r0, r1, r1, lsl #2
    12f4:	00010000 	andeq	r0, r1, r0
    12f8:	72730100 	rsbsvc	r0, r3, #0, 2
    12fc:	656b2f63 	strbvs	r2, [fp, #-3939]!	; 0xfffff09d
    1300:	6c656e72 	stclvs	14, cr6, [r5], #-456	; 0xfffffe38
    1304:	72702f00 	rsbsvc	r2, r0, #0, 30
    1308:	63656a6f 	cmnvs	r5, #454656	; 0x6f000
    130c:	63672f74 	cmnvs	r7, #116, 30	; 0x1d0
    1310:	41412f63 	cmpmi	r1, r3, ror #30
    1314:	33686372 	cmncc	r8, #-939524095	; 0xc8000001
    1318:	61625f32 	cmnvs	r2, r2, lsr pc
    131c:	6d2d6572 	cfstr32vs	mvfx6, [sp, #-456]!	; 0xfffffe38
    1320:	6c617465 	cfstrdvs	mvd7, [r1], #-404	; 0xfffffe6c
    1324:	6363672f 	cmnvs	r3, #12320768	; 0xbc0000
    1328:	6d72612d 	ldfvse	f6, [r2, #-180]!	; 0xffffff4c
    132c:	2e30312d 	rsfcssp	f3, f0, #5.0
    1330:	30322d33 	eorscc	r2, r2, r3, lsr sp
    1334:	302e3132 	eorcc	r3, lr, r2, lsr r1
    1338:	38782d37 	ldmdacc	r8!, {r0, r1, r2, r4, r5, r8, sl, fp, sp}^
    133c:	34365f36 	ldrtcc	r5, [r6], #-3894	; 0xfffff0ca
    1340:	6d72612d 	ldfvse	f6, [r2, #-180]!	; 0xffffff4c
    1344:	6e6f6e2d 	cdpvs	14, 6, cr6, cr15, cr13, {1}
    1348:	61652d65 	cmnvs	r5, r5, ror #26
    134c:	612f6962 			; <UNDEFINED> instruction: 0x612f6962
    1350:	6e2d6d72 	mcrvs	13, 1, r6, cr13, cr2, {3}
    1354:	2d656e6f 	stclcs	14, cr6, [r5, #-444]!	; 0xfffffe44
    1358:	69626165 	stmdbvs	r2!, {r0, r2, r5, r6, r8, sp, lr}^
    135c:	636e692f 	cmnvs	lr, #770048	; 0xbc000
    1360:	6564756c 	strbvs	r7, [r4, #-1388]!	; 0xfffffa94
    1364:	63616d2f 	cmnvs	r1, #3008	; 0xbc0
    1368:	656e6968 	strbvs	r6, [lr, #-2408]!	; 0xfffff698
    136c:	72702f00 	rsbsvc	r2, r0, #0, 30
    1370:	63656a6f 	cmnvs	r5, #454656	; 0x6f000
    1374:	63672f74 	cmnvs	r7, #116, 30	; 0x1d0
    1378:	41412f63 	cmpmi	r1, r3, ror #30
    137c:	33686372 	cmncc	r8, #-939524095	; 0xc8000001
    1380:	61625f32 	cmnvs	r2, r2, lsr pc
    1384:	6d2d6572 	cfstr32vs	mvfx6, [sp, #-456]!	; 0xfffffe38
    1388:	6c617465 	cfstrdvs	mvd7, [r1], #-404	; 0xfffffe6c
    138c:	6363672f 	cmnvs	r3, #12320768	; 0xbc0000
    1390:	6d72612d 	ldfvse	f6, [r2, #-180]!	; 0xffffff4c
    1394:	2e30312d 	rsfcssp	f3, f0, #5.0
    1398:	30322d33 	eorscc	r2, r2, r3, lsr sp
    139c:	302e3132 	eorcc	r3, lr, r2, lsr r1
    13a0:	38782d37 	ldmdacc	r8!, {r0, r1, r2, r4, r5, r8, sl, fp, sp}^
    13a4:	34365f36 	ldrtcc	r5, [r6], #-3894	; 0xfffff0ca
    13a8:	6d72612d 	ldfvse	f6, [r2, #-180]!	; 0xffffff4c
    13ac:	6e6f6e2d 	cdpvs	14, 6, cr6, cr15, cr13, {1}
    13b0:	61652d65 	cmnvs	r5, r5, ror #26
    13b4:	612f6962 			; <UNDEFINED> instruction: 0x612f6962
    13b8:	6e2d6d72 	mcrvs	13, 1, r6, cr13, cr2, {3}
    13bc:	2d656e6f 	stclcs	14, cr6, [r5, #-444]!	; 0xfffffe44
    13c0:	69626165 	stmdbvs	r2!, {r0, r2, r5, r6, r8, sp, lr}^
    13c4:	636e692f 	cmnvs	lr, #770048	; 0xbc000
    13c8:	6564756c 	strbvs	r7, [r4, #-1388]!	; 0xfffffa94
    13cc:	7379732f 	cmnvc	r9, #-1140850688	; 0xbc000000
    13d0:	63727300 	cmnvs	r2, #0, 6
    13d4:	636e692f 	cmnvs	lr, #770048	; 0xbc000
    13d8:	6564756c 	strbvs	r7, [r4, #-1388]!	; 0xfffffa94
    13dc:	65730000 	ldrbvs	r0, [r3, #-0]!
    13e0:	00632e6d 	rsbeq	r2, r3, sp, ror #28
    13e4:	5f000001 	svcpl	0x00000001
    13e8:	61666564 	cmnvs	r6, r4, ror #10
    13ec:	5f746c75 	svcpl	0x00746c75
    13f0:	65707974 	ldrbvs	r7, [r0, #-2420]!	; 0xfffff68c
    13f4:	00682e73 	rsbeq	r2, r8, r3, ror lr
    13f8:	5f000002 	svcpl	0x00000002
    13fc:	69647473 	stmdbvs	r4!, {r0, r1, r4, r5, r6, sl, ip, sp, lr}^
    1400:	682e746e 	stmdavs	lr!, {r1, r2, r3, r5, r6, sl, ip, sp, lr}
    1404:	00000300 	andeq	r0, r0, r0, lsl #6
    1408:	2e62696c 	vnmulcs.f16	s13, s4, s25	; <UNPREDICTABLE>
    140c:	00040068 	andeq	r0, r4, r8, rrx
    1410:	73617400 	cmnvc	r1, #0, 8
    1414:	00682e6b 	rsbeq	r2, r8, fp, ror #28
    1418:	65000004 	strvs	r0, [r0, #-4]
    141c:	746e6576 	strbtvc	r6, [lr], #-1398	; 0xfffffa8a
    1420:	0400682e 	streq	r6, [r0], #-2094	; 0xfffff7d2
    1424:	65730000 	ldrbvs	r0, [r3, #-0]!
    1428:	00682e6d 	rsbeq	r2, r8, sp, ror #28
    142c:	6f000004 	svcvs	0x00000004
    1430:	00682e73 	rsbeq	r2, r8, r3, ror lr
    1434:	00000004 	andeq	r0, r0, r4
    1438:	05000105 	streq	r0, [r0, #-261]	; 0xfffffefb
    143c:	001be802 	andseq	lr, fp, r2, lsl #16
    1440:	05051700 	streq	r1, [r5, #-1792]	; 0xfffff900
    1444:	68080567 	stmdavs	r8, {r0, r1, r2, r5, r6, r8, sl}
    1448:	053d1405 	ldreq	r1, [sp, #-1029]!	; 0xfffffbfb
    144c:	34054001 	strcc	r4, [r5], #-1
    1450:	5814051e 	ldmdapl	r4, {r1, r2, r3, r4, r8, sl}
    1454:	4d300105 	ldfmis	f0, [r0, #-20]!	; 0xffffffec
    1458:	05591705 	ldrbeq	r1, [r9, #-1797]	; 0xfffff8fb
    145c:	08053e0c 	stmdaeq	r5, {r2, r3, r9, sl, fp, ip, sp}
    1460:	2f0e052e 	svccs	0x000e052e
    1464:	3d2e0905 			; <UNDEFINED> instruction: 0x3d2e0905
    1468:	053d1005 	ldreq	r1, [sp, #-5]!
    146c:	3d9f3009 	ldccc	0, cr3, [pc, #36]	; 1498 <is_task_request_delete+0x1c>
    1470:	052f1e05 	streq	r1, [pc, #-3589]!	; 673 <printf_dec+0x14f>
    1474:	05693f01 	strbeq	r3, [r9, #-3841]!	; 0xfffff0ff
    1478:	0c054b17 			; <UNDEFINED> instruction: 0x0c054b17
    147c:	2e08053e 	mcrcs	5, 0, r0, cr8, cr14, {1}
    1480:	052f0e05 	streq	r0, [pc, #-3589]!	; 683 <printf_dec+0x15f>
    1484:	053d2e09 	ldreq	r2, [sp, #-3593]!	; 0xfffff1f7
    1488:	09053d10 	stmdbeq	r5, {r4, r8, sl, fp, ip, sp}
    148c:	3d1e0530 	cfldr32cc	mvfx0, [lr, #-192]	; 0xffffff40
    1490:	773e0105 	ldrvc	r0, [lr, -r5, lsl #2]!
    1494:	054b1705 	strbeq	r1, [fp, #-1797]	; 0xfffff8fb
    1498:	08053d09 	stmdaeq	r5, {r0, r3, r8, sl, fp, ip, sp}
    149c:	2f180558 	svccs	0x00180558
    14a0:	05751105 	ldrbeq	r1, [r5, #-261]!	; 0xfffffefb
    14a4:	0c052e28 	stceq	14, cr2, [r5], {40}	; 0x28
    14a8:	2f0d053c 	svccs	0x000d053c
    14ac:	053f0c05 	ldreq	r0, [pc, #-3077]!	; 8af <printk+0x10b>
    14b0:	11052e13 	tstne	r5, r3, lsl lr
    14b4:	2e0c053d 	mcrcs	5, 0, r0, cr12, cr13, {1}
    14b8:	052e2a05 	streq	r2, [lr, #-2565]!	; 0xfffff5fb
    14bc:	23052e37 	movwcs	r2, #24119	; 0x5e37
    14c0:	2f1d052e 	svccs	0x001d052e
    14c4:	052e1805 	streq	r1, [lr, #-2053]!	; 0xfffff7fb
    14c8:	01053105 	tsteq	r5, r5, lsl #2
    14cc:	1705773d 	smladxne	r5, sp, r7, r7
    14d0:	3d160559 	cfldr32cc	mvfx0, [r6, #-356]	; 0xfffffe9c
    14d4:	052e1105 	streq	r1, [lr, #-261]!	; 0xfffffefb
    14d8:	15052f1a 	strne	r2, [r5, #-3866]	; 0xfffff0e6
    14dc:	2f18052e 	svccs	0x0018052e
    14e0:	05581605 	ldrbeq	r1, [r8, #-1541]	; 0xfffff9fb
    14e4:	01052f05 	tsteq	r5, r5, lsl #30
    14e8:	17054d3d 	smladxne	r5, sp, sp, r4
    14ec:	3e16054b 	cfmac32cc	mvfx0, mvfx6, mvfx11
    14f0:	05751005 	ldrbeq	r1, [r5, #-5]!
    14f4:	08053d05 	stmdaeq	r5, {r0, r2, r8, sl, fp, ip, sp}
    14f8:	3d09053e 	cfstr32cc	mvfx0, [r9, #-248]	; 0xffffff08
    14fc:	05300c05 	ldreq	r0, [r0, #-3077]!	; 0xfffff3fb
    1500:	04022101 	streq	r2, [r2], #-257	; 0xfffffeff
    1504:	ba010100 	blt	4190c <_etext+0x3e9df>
    1508:	03000002 	movweq	r0, #2
    150c:	00015700 	andeq	r5, r1, r0, lsl #14
    1510:	fb010200 	blx	41d1a <_etext+0x3eded>
    1514:	01000d0e 	tsteq	r0, lr, lsl #26
    1518:	00010101 	andeq	r0, r1, r1, lsl #2
    151c:	00010000 	andeq	r0, r1, r0
    1520:	72730100 	rsbsvc	r0, r3, #0, 2
    1524:	656b2f63 	strbvs	r2, [fp, #-3939]!	; 0xfffff09d
    1528:	6c656e72 	stclvs	14, cr6, [r5], #-456	; 0xfffffe38
    152c:	72702f00 	rsbsvc	r2, r0, #0, 30
    1530:	63656a6f 	cmnvs	r5, #454656	; 0x6f000
    1534:	63672f74 	cmnvs	r7, #116, 30	; 0x1d0
    1538:	41412f63 	cmpmi	r1, r3, ror #30
    153c:	33686372 	cmncc	r8, #-939524095	; 0xc8000001
    1540:	61625f32 	cmnvs	r2, r2, lsr pc
    1544:	6d2d6572 	cfstr32vs	mvfx6, [sp, #-456]!	; 0xfffffe38
    1548:	6c617465 	cfstrdvs	mvd7, [r1], #-404	; 0xfffffe6c
    154c:	6363672f 	cmnvs	r3, #12320768	; 0xbc0000
    1550:	6d72612d 	ldfvse	f6, [r2, #-180]!	; 0xffffff4c
    1554:	2e30312d 	rsfcssp	f3, f0, #5.0
    1558:	30322d33 	eorscc	r2, r2, r3, lsr sp
    155c:	302e3132 	eorcc	r3, lr, r2, lsr r1
    1560:	38782d37 	ldmdacc	r8!, {r0, r1, r2, r4, r5, r8, sl, fp, sp}^
    1564:	34365f36 	ldrtcc	r5, [r6], #-3894	; 0xfffff0ca
    1568:	6d72612d 	ldfvse	f6, [r2, #-180]!	; 0xffffff4c
    156c:	6e6f6e2d 	cdpvs	14, 6, cr6, cr15, cr13, {1}
    1570:	61652d65 	cmnvs	r5, r5, ror #26
    1574:	612f6962 			; <UNDEFINED> instruction: 0x612f6962
    1578:	6e2d6d72 	mcrvs	13, 1, r6, cr13, cr2, {3}
    157c:	2d656e6f 	stclcs	14, cr6, [r5, #-444]!	; 0xfffffe44
    1580:	69626165 	stmdbvs	r2!, {r0, r2, r5, r6, r8, sp, lr}^
    1584:	636e692f 	cmnvs	lr, #770048	; 0xbc000
    1588:	6564756c 	strbvs	r7, [r4, #-1388]!	; 0xfffffa94
    158c:	63616d2f 	cmnvs	r1, #3008	; 0xbc0
    1590:	656e6968 	strbvs	r6, [lr, #-2408]!	; 0xfffff698
    1594:	72702f00 	rsbsvc	r2, r0, #0, 30
    1598:	63656a6f 	cmnvs	r5, #454656	; 0x6f000
    159c:	63672f74 	cmnvs	r7, #116, 30	; 0x1d0
    15a0:	41412f63 	cmpmi	r1, r3, ror #30
    15a4:	33686372 	cmncc	r8, #-939524095	; 0xc8000001
    15a8:	61625f32 	cmnvs	r2, r2, lsr pc
    15ac:	6d2d6572 	cfstr32vs	mvfx6, [sp, #-456]!	; 0xfffffe38
    15b0:	6c617465 	cfstrdvs	mvd7, [r1], #-404	; 0xfffffe6c
    15b4:	6363672f 	cmnvs	r3, #12320768	; 0xbc0000
    15b8:	6d72612d 	ldfvse	f6, [r2, #-180]!	; 0xffffff4c
    15bc:	2e30312d 	rsfcssp	f3, f0, #5.0
    15c0:	30322d33 	eorscc	r2, r2, r3, lsr sp
    15c4:	302e3132 	eorcc	r3, lr, r2, lsr r1
    15c8:	38782d37 	ldmdacc	r8!, {r0, r1, r2, r4, r5, r8, sl, fp, sp}^
    15cc:	34365f36 	ldrtcc	r5, [r6], #-3894	; 0xfffff0ca
    15d0:	6d72612d 	ldfvse	f6, [r2, #-180]!	; 0xffffff4c
    15d4:	6e6f6e2d 	cdpvs	14, 6, cr6, cr15, cr13, {1}
    15d8:	61652d65 	cmnvs	r5, r5, ror #26
    15dc:	612f6962 			; <UNDEFINED> instruction: 0x612f6962
    15e0:	6e2d6d72 	mcrvs	13, 1, r6, cr13, cr2, {3}
    15e4:	2d656e6f 	stclcs	14, cr6, [r5, #-444]!	; 0xfffffe44
    15e8:	69626165 	stmdbvs	r2!, {r0, r2, r5, r6, r8, sp, lr}^
    15ec:	636e692f 	cmnvs	lr, #770048	; 0xbc000
    15f0:	6564756c 	strbvs	r7, [r4, #-1388]!	; 0xfffffa94
    15f4:	7379732f 	cmnvc	r9, #-1140850688	; 0xbc000000
    15f8:	63727300 	cmnvs	r2, #0, 6
    15fc:	636e692f 	cmnvs	lr, #770048	; 0xbc000
    1600:	6564756c 	strbvs	r7, [r4, #-1388]!	; 0xfffffa94
    1604:	616d0000 	cmnvs	sp, r0
    1608:	6f626c69 	svcvs	0x00626c69
    160c:	00632e78 	rsbeq	r2, r3, r8, ror lr
    1610:	5f000001 	svcpl	0x00000001
    1614:	61666564 	cmnvs	r6, r4, ror #10
    1618:	5f746c75 	svcpl	0x00746c75
    161c:	65707974 	ldrbvs	r7, [r0, #-2420]!	; 0xfffff68c
    1620:	00682e73 	rsbeq	r2, r8, r3, ror lr
    1624:	5f000002 	svcpl	0x00000002
    1628:	69647473 	stmdbvs	r4!, {r0, r1, r4, r5, r6, sl, ip, sp, lr}^
    162c:	682e746e 	stmdavs	lr!, {r1, r2, r3, r5, r6, sl, ip, sp, lr}
    1630:	00000300 	andeq	r0, r0, r0, lsl #6
    1634:	2e62696c 	vnmulcs.f16	s13, s4, s25	; <UNPREDICTABLE>
    1638:	00040068 	andeq	r0, r4, r8, rrx
    163c:	73617400 	cmnvc	r1, #0, 8
    1640:	00682e6b 	rsbeq	r2, r8, fp, ror #28
    1644:	65000004 	strvs	r0, [r0, #-4]
    1648:	746e6576 	strbtvc	r6, [lr], #-1398	; 0xfffffa8a
    164c:	0400682e 	streq	r6, [r0], #-2094	; 0xfffff7d2
    1650:	616d0000 	cmnvs	sp, r0
    1654:	6f626c69 	svcvs	0x00626c69
    1658:	00682e78 	rsbeq	r2, r8, r8, ror lr
    165c:	6f000004 	svcvs	0x00000004
    1660:	00682e73 	rsbeq	r2, r8, r3, ror lr
    1664:	00000004 	andeq	r0, r0, r4
    1668:	05000105 	streq	r0, [r0, #-261]	; 0xfffffefb
    166c:	001db402 	andseq	fp, sp, r2, lsl #8
    1670:	05051700 	streq	r1, [r5, #-1792]	; 0xfffff900
    1674:	67160567 	ldrvs	r0, [r6, -r7, ror #10]
    1678:	053d1505 	ldreq	r1, [sp, #-1285]!	; 0xfffffafb
    167c:	11053d10 	tstne	r5, r0, lsl sp
    1680:	01053d3d 	tsteq	r5, sp, lsr sp
    1684:	17054d3d 	smladxne	r5, sp, sp, r4
    1688:	3e0d0567 	cfsh32cc	mvfx0, mvfx13, #55
    168c:	052e0805 	streq	r0, [lr, #-2053]!	; 0xfffff7fb
    1690:	1405300d 	strne	r3, [r5], #-13
    1694:	25053d2e 	strcs	r3, [r5, #-3374]	; 0xfffff2d2
    1698:	2e2b052e 	cfsh64cs	mvdx0, mvdx11, #30
    169c:	053c2005 	ldreq	r2, [ip, #-5]!
    16a0:	11053c0e 	tstne	r5, lr, lsl #24
    16a4:	2e1f052f 	cfmul64cs	mvdx0, mvdx15, mvdx15
    16a8:	052e0c05 	streq	r0, [lr, #-3077]!	; 0xfffff3fb
    16ac:	09052f18 	stmdbeq	r5, {r3, r4, r8, r9, sl, fp, sp}
    16b0:	3d10053e 	cfldr32cc	mvfx0, [r0, #-248]	; 0xffffff08
    16b4:	9f300905 	svcls	0x00300905
    16b8:	301e053d 	andscc	r0, lr, sp, lsr r5
    16bc:	053c0e05 	ldreq	r0, [ip, #-3589]!	; 0xfffff1fb
    16c0:	01052f1e 	tsteq	r5, lr, lsl pc
    16c4:	1705693e 	smladxne	r5, lr, r9, r6
    16c8:	3e0d0559 	cfrshl32cc	mvfx13, mvfx9, r0
    16cc:	052e0805 	streq	r0, [lr, #-2053]!	; 0xfffff7fb
    16d0:	1405300d 	strne	r3, [r5], #-13
    16d4:	25053d2e 	strcs	r3, [r5, #-3374]	; 0xfffff2d2
    16d8:	2e2b052e 	cfsh64cs	mvdx0, mvdx11, #30
    16dc:	053c2005 	ldreq	r2, [ip, #-5]!
    16e0:	11053c0e 	tstne	r5, lr, lsl #24
    16e4:	2e1f052f 	cfmul64cs	mvdx0, mvdx15, mvdx15
    16e8:	052e0c05 	streq	r0, [lr, #-3077]!	; 0xfffff3fb
    16ec:	09052f18 	stmdbeq	r5, {r3, r4, r8, r9, sl, fp, sp}
    16f0:	3d10053e 	cfldr32cc	mvfx0, [r0, #-248]	; 0xffffff08
    16f4:	05300905 	ldreq	r0, [r0, #-2309]!	; 0xfffff6fb
    16f8:	01053d1e 	tsteq	r5, lr, lsl sp
    16fc:	1705773e 	smladxne	r5, lr, r7, r7
    1700:	3d0d0567 	cfstr32cc	mvfx0, [sp, #-412]	; 0xfffffe64
    1704:	05300905 	ldreq	r0, [r0, #-2309]!	; 0xfffff6fb
    1708:	10055808 	andne	r5, r5, r8, lsl #16
    170c:	7511052f 	ldrvc	r0, [r1, #-1327]	; 0xfffffad1
    1710:	052e2805 	streq	r2, [lr, #-2053]!	; 0xfffff7fb
    1714:	0d053c0c 	stceq	12, cr3, [r5, #-48]	; 0xffffffd0
    1718:	3f11052f 	svccc	0x0011052f
    171c:	052e2005 	streq	r2, [lr, #-5]!
    1720:	0d052e0c 	stceq	14, cr2, [r5, #-48]	; 0xffffffd0
    1724:	3d14052f 	cfldr32cc	mvfx0, [r4, #-188]	; 0xffffff44
    1728:	05311c05 	ldreq	r1, [r1, #-3077]!	; 0xfffff3fb
    172c:	15053c0c 	strne	r3, [r5, #-3084]	; 0xfffff3f4
    1730:	2e10052f 	cfmul64cs	mvdx0, mvdx0, mvdx15
    1734:	052f2205 	streq	r2, [pc, #-517]!	; 1537 <task_get_info+0x43>
    1738:	1c052e2e 	stcne	14, cr2, [r5], {46}	; 0x2e
    173c:	3e150520 	cfmul64cc	mvdx0, mvdx5, mvdx0
    1740:	052e1b05 	streq	r1, [lr, #-2821]!	; 0xfffff4fb
    1744:	22053e11 	andcs	r3, r5, #272	; 0x110
    1748:	2e1d052e 	cfmul64cs	mvdx0, mvdx13, mvdx14
    174c:	052e2a05 	streq	r2, [lr, #-2565]!	; 0xfffff5fb
    1750:	22053e11 	andcs	r3, r5, #272	; 0x110
    1754:	2e29052e 	cfsh64cs	mvdx0, mvdx9, #30
    1758:	053c1d05 	ldreq	r1, [ip, #-3333]!	; 0xfffff2fb
    175c:	15052e2d 	strne	r2, [r5, #-3629]	; 0xfffff1d3
    1760:	2e24052f 	cfsh64cs	mvdx0, mvdx4, #31
    1764:	052e1005 	streq	r1, [lr, #-5]!
    1768:	0d052f1d 	stceq	15, cr2, [r5, #-116]	; 0xffffff8c
    176c:	2e140540 	cfmac32cs	mvfx0, mvfx4, mvfx0
    1770:	053e0505 	ldreq	r0, [lr, #-1285]!	; 0xfffffafb
    1774:	01053d0c 	tsteq	r5, ip, lsl #26
    1778:	17058521 	strne	r8, [r5, -r1, lsr #10]
    177c:	3e09054b 	cfsh32cc	mvfx0, mvfx9, #43
    1780:	05580805 	ldrbeq	r0, [r8, #-2053]	; 0xfffff7fb
    1784:	15052f14 	strne	r2, [r5, #-3860]	; 0xfffff0ec
    1788:	05053d3d 	streq	r3, [r5, #-3389]	; 0xfffff2c3
    178c:	3d01053f 	cfstr32cc	mvfx0, [r1, #-252]	; 0xffffff04
    1790:	4b17054d 	blmi	5c2ccc <_etext+0x5bfd9f>
    1794:	053e1605 	ldreq	r1, [lr, #-1541]!	; 0xfffff9fb
    1798:	08057605 	stmdaeq	r5, {r0, r2, r9, sl, ip, sp, lr}
    179c:	3d09053d 	cfstr32cc	mvfx0, [r9, #-244]	; 0xffffff0c
    17a0:	05310c05 	ldreq	r0, [r1, #-3077]!	; 0xfffff3fb
    17a4:	054d2101 	strbeq	r2, [sp, #-257]	; 0xfffffeff
    17a8:	053d5917 	ldreq	r5, [sp, #-2327]!	; 0xfffff6e9
    17ac:	1b052e11 	blne	14cff8 <_etext+0x14a0cb>
    17b0:	2e15052f 	cfmul64cs	mvdx0, mvdx5, mvdx15
    17b4:	052f1805 	streq	r1, [pc, #-2053]!	; fb7 <task_system_tick_handler+0x69>
    17b8:	05055816 	streq	r5, [r5, #-2070]	; 0xfffff7ea
    17bc:	3d01052f 	cfstr32cc	mvfx0, [r1, #-188]	; 0xffffff44
    17c0:	01000402 	tsteq	r0, r2, lsl #8
    17c4:	00024601 	andeq	r4, r2, r1, lsl #12
    17c8:	59000300 	stmdbpl	r0, {r8, r9}
    17cc:	02000001 	andeq	r0, r0, #1
    17d0:	0d0efb01 	vstreq	d15, [lr, #-4]
    17d4:	01010100 	mrseq	r0, (UNDEF: 17)
    17d8:	00000001 	andeq	r0, r0, r1
    17dc:	01000001 	tsteq	r0, r1
    17e0:	2f637273 	svccs	0x00637273
    17e4:	6e72656b 	cdpvs	5, 7, cr6, cr2, cr11, {3}
    17e8:	2f006c65 	svccs	0x00006c65
    17ec:	6a6f7270 	bvs	1bde1b4 <_etext+0x1bdb287>
    17f0:	2f746365 	svccs	0x00746365
    17f4:	2f636367 	svccs	0x00636367
    17f8:	63724141 	cmnvs	r2, #1073741840	; 0x40000010
    17fc:	5f323368 	svcpl	0x00323368
    1800:	65726162 	ldrbvs	r6, [r2, #-354]!	; 0xfffffe9e
    1804:	74656d2d 	strbtvc	r6, [r5], #-3373	; 0xfffff2d3
    1808:	672f6c61 	strvs	r6, [pc, -r1, ror #24]!
    180c:	612d6363 			; <UNDEFINED> instruction: 0x612d6363
    1810:	312d6d72 			; <UNDEFINED> instruction: 0x312d6d72
    1814:	2d332e30 	ldccs	14, cr2, [r3, #-192]!	; 0xffffff40
    1818:	31323032 	teqcc	r2, r2, lsr r0
    181c:	2d37302e 	ldccs	0, cr3, [r7, #-184]!	; 0xffffff48
    1820:	5f363878 	svcpl	0x00363878
    1824:	612d3436 			; <UNDEFINED> instruction: 0x612d3436
    1828:	6e2d6d72 	mcrvs	13, 1, r6, cr13, cr2, {3}
    182c:	2d656e6f 	stclcs	14, cr6, [r5, #-444]!	; 0xfffffe44
    1830:	69626165 	stmdbvs	r2!, {r0, r2, r5, r6, r8, sp, lr}^
    1834:	6d72612f 	ldfvse	f6, [r2, #-188]!	; 0xffffff44
    1838:	6e6f6e2d 	cdpvs	14, 6, cr6, cr15, cr13, {1}
    183c:	61652d65 	cmnvs	r5, r5, ror #26
    1840:	692f6962 	stmdbvs	pc!, {r1, r5, r6, r8, fp, sp, lr}	; <UNPREDICTABLE>
    1844:	756c636e 	strbvc	r6, [ip, #-878]!	; 0xfffffc92
    1848:	6d2f6564 	cfstr32vs	mvfx6, [pc, #-400]!	; 16c0 <list_init+0x4>
    184c:	69686361 	stmdbvs	r8!, {r0, r5, r6, r8, r9, sp, lr}^
    1850:	2f00656e 	svccs	0x0000656e
    1854:	6a6f7270 	bvs	1bde21c <_etext+0x1bdb2ef>
    1858:	2f746365 	svccs	0x00746365
    185c:	2f636367 	svccs	0x00636367
    1860:	63724141 	cmnvs	r2, #1073741840	; 0x40000010
    1864:	5f323368 	svcpl	0x00323368
    1868:	65726162 	ldrbvs	r6, [r2, #-354]!	; 0xfffffe9e
    186c:	74656d2d 	strbtvc	r6, [r5], #-3373	; 0xfffff2d3
    1870:	672f6c61 	strvs	r6, [pc, -r1, ror #24]!
    1874:	612d6363 			; <UNDEFINED> instruction: 0x612d6363
    1878:	312d6d72 			; <UNDEFINED> instruction: 0x312d6d72
    187c:	2d332e30 	ldccs	14, cr2, [r3, #-192]!	; 0xffffff40
    1880:	31323032 	teqcc	r2, r2, lsr r0
    1884:	2d37302e 	ldccs	0, cr3, [r7, #-184]!	; 0xffffff48
    1888:	5f363878 	svcpl	0x00363878
    188c:	612d3436 			; <UNDEFINED> instruction: 0x612d3436
    1890:	6e2d6d72 	mcrvs	13, 1, r6, cr13, cr2, {3}
    1894:	2d656e6f 	stclcs	14, cr6, [r5, #-444]!	; 0xfffffe44
    1898:	69626165 	stmdbvs	r2!, {r0, r2, r5, r6, r8, sp, lr}^
    189c:	6d72612f 	ldfvse	f6, [r2, #-188]!	; 0xffffff44
    18a0:	6e6f6e2d 	cdpvs	14, 6, cr6, cr15, cr13, {1}
    18a4:	61652d65 	cmnvs	r5, r5, ror #26
    18a8:	692f6962 	stmdbvs	pc!, {r1, r5, r6, r8, fp, sp, lr}	; <UNPREDICTABLE>
    18ac:	756c636e 	strbvc	r6, [ip, #-878]!	; 0xfffffc92
    18b0:	732f6564 			; <UNDEFINED> instruction: 0x732f6564
    18b4:	73007379 	movwvc	r7, #889	; 0x379
    18b8:	692f6372 	stmdbvs	pc!, {r1, r4, r5, r6, r8, r9, sp, lr}	; <UNPREDICTABLE>
    18bc:	756c636e 	strbvc	r6, [ip, #-878]!	; 0xfffffc92
    18c0:	00006564 	andeq	r6, r0, r4, ror #10
    18c4:	626d656d 	rsbvs	r6, sp, #457179136	; 0x1b400000
    18c8:	6b636f6c 	blvs	18dd680 <_etext+0x18da753>
    18cc:	0100632e 	tsteq	r0, lr, lsr #6
    18d0:	645f0000 	ldrbvs	r0, [pc], #-0	; 18d8 <list_remove_first+0x26>
    18d4:	75616665 	strbvc	r6, [r1, #-1637]!	; 0xfffff99b
    18d8:	745f746c 	ldrbvc	r7, [pc], #-1132	; 18e0 <list_remove_first+0x2e>
    18dc:	73657079 	cmnvc	r5, #121	; 0x79
    18e0:	0200682e 	andeq	r6, r0, #3014656	; 0x2e0000
    18e4:	735f0000 	cmpvc	pc, #0
    18e8:	6e696474 	mcrvs	4, 3, r6, cr9, cr4, {3}
    18ec:	00682e74 	rsbeq	r2, r8, r4, ror lr
    18f0:	6c000003 	stcvs	0, cr0, [r0], {3}
    18f4:	682e6269 	stmdavs	lr!, {r0, r3, r5, r6, r9, sp, lr}
    18f8:	00000400 	andeq	r0, r0, r0, lsl #8
    18fc:	6b736174 	blvs	1cd9ed4 <_etext+0x1cd6fa7>
    1900:	0400682e 	streq	r6, [r0], #-2094	; 0xfffff7d2
    1904:	76650000 	strbtvc	r0, [r5], -r0
    1908:	2e746e65 	cdpcs	14, 7, cr6, cr4, cr5, {3}
    190c:	00040068 	andeq	r0, r4, r8, rrx
    1910:	6d656d00 	stclvs	13, cr6, [r5, #-0]
    1914:	636f6c62 	cmnvs	pc, #25088	; 0x6200
    1918:	00682e6b 	rsbeq	r2, r8, fp, ror #28
    191c:	6f000004 	svcvs	0x00000004
    1920:	00682e73 	rsbeq	r2, r8, r3, ror lr
    1924:	00000004 	andeq	r0, r0, r4
    1928:	05000105 	streq	r0, [r0, #-261]	; 0xfffffefb
    192c:	00208402 	eoreq	r8, r0, r2, lsl #8
    1930:	0e051600 	cfmadd32eq	mvax0, mvfx1, mvfx5, mvfx0
    1934:	2f3b0575 	svccs	0x003b0575
    1938:	054a0e05 	strbeq	r0, [sl, #-3589]	; 0xfffff1fb
    193c:	05053e08 	streq	r3, [r5, #-3592]	; 0xfffff1f8
    1940:	68160540 	ldmdavs	r6, {r6, r8, sl}
    1944:	053d1b05 	ldreq	r1, [sp, #-2821]!	; 0xfffff4fb
    1948:	05053d1a 	streq	r3, [r5, #-3354]	; 0xfffff2e6
    194c:	5b0b053d 	blpl	2c2e48 <_etext+0x2bff1b>
    1950:	3d210905 			; <UNDEFINED> instruction: 0x3d210905
    1954:	05671905 	strbeq	r1, [r7, #-2309]!	; 0xfffff6fb
    1958:	0105470b 	tsteq	r5, fp, lsl #14
    195c:	0309054f 	movweq	r0, #38223	; 0x954f
    1960:	05052070 	streq	r2, [r5, #-112]	; 0xffffff90
    1964:	05201103 	streq	r1, [r0, #-259]!	; 0xfffffefd
    1968:	053f2201 	ldreq	r2, [pc, #-513]!	; 176f <node_prev+0x17>
    196c:	09056717 	stmdbeq	r5, {r0, r1, r2, r4, r8, r9, sl, sp, lr}
    1970:	6608053e 			; <UNDEFINED> instruction: 0x6608053e
    1974:	052f1b05 	streq	r1, [pc, #-2821]!	; e77 <task_sched+0x1b>
    1978:	0905660e 	stmdbeq	r5, {r1, r2, r3, r9, sl, sp, lr}
    197c:	3d10052f 	cfldr32cc	mvfx0, [r0, #-188]	; 0xffffff44
    1980:	9f300905 	svcls	0x00300905
    1984:	2f1e053d 	svccs	0x001e053d
    1988:	053c0e05 	ldreq	r0, [ip, #-3589]!	; 0xfffff1fb
    198c:	01052f1e 	tsteq	r5, lr, lsl pc
    1990:	1705693e 	smladxne	r5, lr, r9, r6
    1994:	3e090559 	cfrshl32cc	mvfx9, mvfx9, r0
    1998:	05660805 	strbeq	r0, [r6, #-2053]!	; 0xfffff7fb
    199c:	0e052f1b 	mcreq	15, 0, r2, cr5, cr11, {0}
    19a0:	2f090566 	svccs	0x00090566
    19a4:	053d1005 	ldreq	r1, [sp, #-5]!
    19a8:	10053009 	andne	r3, r5, r9
    19ac:	2301053d 	movwcs	r0, #5437	; 0x153d
    19b0:	5917054d 	ldmdbpl	r7, {r0, r2, r3, r6, r8, sl}
    19b4:	053d0905 	ldreq	r0, [sp, #-2309]!	; 0xfffff6fb
    19b8:	18055808 	stmdane	r5, {r3, fp, ip, lr}
    19bc:	7511052f 	ldrvc	r0, [r1, #-1327]	; 0xfffffad1
    19c0:	052e2805 	streq	r2, [lr, #-2053]!	; 0xfffff7fb
    19c4:	0d053c0c 	stceq	12, cr3, [r5, #-48]	; 0xffffffd0
    19c8:	3f09052f 	svccc	0x0009052f
    19cc:	05690505 	strbeq	r0, [r9, #-1285]!	; 0xfffffafb
    19d0:	05693d01 	strbeq	r3, [r9, #-3329]!	; 0xfffff2ff
    19d4:	13055917 	movwne	r5, #22807	; 0x5917
    19d8:	6611053e 			; <UNDEFINED> instruction: 0x6611053e
    19dc:	052f2005 	streq	r2, [pc, #-5]!	; 19df <event_wait+0x41>
    19e0:	21052e15 	tstcs	r5, r5, lsl lr
    19e4:	2e16052f 	cfmul64cs	mvdx0, mvdx6, mvdx15
    19e8:	052f1805 	streq	r1, [pc, #-2053]!	; 11eb <task_unready+0x3>
    19ec:	05055816 	streq	r5, [r5, #-2070]	; 0xfffff7ea
    19f0:	3d01052f 	cfstr32cc	mvfx0, [r1, #-188]	; 0xffffff44
    19f4:	4b17054c 	blmi	5c2f2c <_etext+0x5bffff>
    19f8:	053e1605 	ldreq	r1, [lr, #-1541]!	; 0xfffff9fb
    19fc:	08057605 	stmdaeq	r5, {r0, r2, r9, sl, ip, sp, lr}
    1a00:	3d09053e 	cfstr32cc	mvfx0, [r9, #-248]	; 0xffffff08
    1a04:	05300c05 	ldreq	r0, [r0, #-3077]!	; 0xfffff3fb
    1a08:	04022101 	streq	r2, [r2], #-257	; 0xfffffeff
    1a0c:	5f010100 	svcpl	0x00010100
    1a10:	03000002 	movweq	r0, #2
    1a14:	00015400 	andeq	r5, r1, r0, lsl #8
    1a18:	fb010200 	blx	42222 <_etext+0x3f2f5>
    1a1c:	01000d0e 	tsteq	r0, lr, lsl #26
    1a20:	00010101 	andeq	r0, r1, r1, lsl #2
    1a24:	00010000 	andeq	r0, r1, r0
    1a28:	72730100 	rsbsvc	r0, r3, #0, 2
    1a2c:	656b2f63 	strbvs	r2, [fp, #-3939]!	; 0xfffff09d
    1a30:	6c656e72 	stclvs	14, cr6, [r5], #-456	; 0xfffffe38
    1a34:	72702f00 	rsbsvc	r2, r0, #0, 30
    1a38:	63656a6f 	cmnvs	r5, #454656	; 0x6f000
    1a3c:	63672f74 	cmnvs	r7, #116, 30	; 0x1d0
    1a40:	41412f63 	cmpmi	r1, r3, ror #30
    1a44:	33686372 	cmncc	r8, #-939524095	; 0xc8000001
    1a48:	61625f32 	cmnvs	r2, r2, lsr pc
    1a4c:	6d2d6572 	cfstr32vs	mvfx6, [sp, #-456]!	; 0xfffffe38
    1a50:	6c617465 	cfstrdvs	mvd7, [r1], #-404	; 0xfffffe6c
    1a54:	6363672f 	cmnvs	r3, #12320768	; 0xbc0000
    1a58:	6d72612d 	ldfvse	f6, [r2, #-180]!	; 0xffffff4c
    1a5c:	2e30312d 	rsfcssp	f3, f0, #5.0
    1a60:	30322d33 	eorscc	r2, r2, r3, lsr sp
    1a64:	302e3132 	eorcc	r3, lr, r2, lsr r1
    1a68:	38782d37 	ldmdacc	r8!, {r0, r1, r2, r4, r5, r8, sl, fp, sp}^
    1a6c:	34365f36 	ldrtcc	r5, [r6], #-3894	; 0xfffff0ca
    1a70:	6d72612d 	ldfvse	f6, [r2, #-180]!	; 0xffffff4c
    1a74:	6e6f6e2d 	cdpvs	14, 6, cr6, cr15, cr13, {1}
    1a78:	61652d65 	cmnvs	r5, r5, ror #26
    1a7c:	612f6962 			; <UNDEFINED> instruction: 0x612f6962
    1a80:	6e2d6d72 	mcrvs	13, 1, r6, cr13, cr2, {3}
    1a84:	2d656e6f 	stclcs	14, cr6, [r5, #-444]!	; 0xfffffe44
    1a88:	69626165 	stmdbvs	r2!, {r0, r2, r5, r6, r8, sp, lr}^
    1a8c:	636e692f 	cmnvs	lr, #770048	; 0xbc000
    1a90:	6564756c 	strbvs	r7, [r4, #-1388]!	; 0xfffffa94
    1a94:	63616d2f 	cmnvs	r1, #3008	; 0xbc0
    1a98:	656e6968 	strbvs	r6, [lr, #-2408]!	; 0xfffff698
    1a9c:	72702f00 	rsbsvc	r2, r0, #0, 30
    1aa0:	63656a6f 	cmnvs	r5, #454656	; 0x6f000
    1aa4:	63672f74 	cmnvs	r7, #116, 30	; 0x1d0
    1aa8:	41412f63 	cmpmi	r1, r3, ror #30
    1aac:	33686372 	cmncc	r8, #-939524095	; 0xc8000001
    1ab0:	61625f32 	cmnvs	r2, r2, lsr pc
    1ab4:	6d2d6572 	cfstr32vs	mvfx6, [sp, #-456]!	; 0xfffffe38
    1ab8:	6c617465 	cfstrdvs	mvd7, [r1], #-404	; 0xfffffe6c
    1abc:	6363672f 	cmnvs	r3, #12320768	; 0xbc0000
    1ac0:	6d72612d 	ldfvse	f6, [r2, #-180]!	; 0xffffff4c
    1ac4:	2e30312d 	rsfcssp	f3, f0, #5.0
    1ac8:	30322d33 	eorscc	r2, r2, r3, lsr sp
    1acc:	302e3132 	eorcc	r3, lr, r2, lsr r1
    1ad0:	38782d37 	ldmdacc	r8!, {r0, r1, r2, r4, r5, r8, sl, fp, sp}^
    1ad4:	34365f36 	ldrtcc	r5, [r6], #-3894	; 0xfffff0ca
    1ad8:	6d72612d 	ldfvse	f6, [r2, #-180]!	; 0xffffff4c
    1adc:	6e6f6e2d 	cdpvs	14, 6, cr6, cr15, cr13, {1}
    1ae0:	61652d65 	cmnvs	r5, r5, ror #26
    1ae4:	612f6962 			; <UNDEFINED> instruction: 0x612f6962
    1ae8:	6e2d6d72 	mcrvs	13, 1, r6, cr13, cr2, {3}
    1aec:	2d656e6f 	stclcs	14, cr6, [r5, #-444]!	; 0xfffffe44
    1af0:	69626165 	stmdbvs	r2!, {r0, r2, r5, r6, r8, sp, lr}^
    1af4:	636e692f 	cmnvs	lr, #770048	; 0xbc000
    1af8:	6564756c 	strbvs	r7, [r4, #-1388]!	; 0xfffffa94
    1afc:	7379732f 	cmnvc	r9, #-1140850688	; 0xbc000000
    1b00:	63727300 	cmnvs	r2, #0, 6
    1b04:	636e692f 	cmnvs	lr, #770048	; 0xbc000
    1b08:	6564756c 	strbvs	r7, [r4, #-1388]!	; 0xfffffa94
    1b0c:	69740000 	ldmdbvs	r4!, {}^	; <UNPREDICTABLE>
    1b10:	2e72656d 	cdpcs	5, 7, cr6, cr2, cr13, {3}
    1b14:	00010063 	andeq	r0, r1, r3, rrx
    1b18:	65645f00 	strbvs	r5, [r4, #-3840]!	; 0xfffff100
    1b1c:	6c756166 	ldfvse	f6, [r5], #-408	; 0xfffffe68
    1b20:	79745f74 	ldmdbvc	r4!, {r2, r4, r5, r6, r8, r9, sl, fp, ip, lr}^
    1b24:	2e736570 	mrccs	5, 3, r6, cr3, cr0, {3}
    1b28:	00020068 	andeq	r0, r2, r8, rrx
    1b2c:	74735f00 	ldrbtvc	r5, [r3], #-3840	; 0xfffff100
    1b30:	746e6964 	strbtvc	r6, [lr], #-2404	; 0xfffff69c
    1b34:	0300682e 	movweq	r6, #2094	; 0x82e
    1b38:	696c0000 	stmdbvs	ip!, {}^	; <UNPREDICTABLE>
    1b3c:	00682e62 	rsbeq	r2, r8, r2, ror #28
    1b40:	74000004 	strvc	r0, [r0], #-4
    1b44:	2e6b7361 	cdpcs	3, 6, cr7, cr11, cr1, {3}
    1b48:	00040068 	andeq	r0, r4, r8, rrx
    1b4c:	65766500 	ldrbvs	r6, [r6, #-1280]!	; 0xfffffb00
    1b50:	682e746e 	stmdavs	lr!, {r1, r2, r3, r5, r6, sl, ip, sp, lr}
    1b54:	00000400 	andeq	r0, r0, r0, lsl #8
    1b58:	656d6974 	strbvs	r6, [sp, #-2420]!	; 0xfffff68c
    1b5c:	00682e72 	rsbeq	r2, r8, r2, ror lr
    1b60:	73000004 	movwvc	r0, #4
    1b64:	682e6d65 	stmdavs	lr!, {r0, r2, r5, r6, r8, sl, fp, sp, lr}
    1b68:	00000400 	andeq	r0, r0, r0, lsl #8
    1b6c:	00010500 	andeq	r0, r1, r0, lsl #10
    1b70:	22a40205 	adccs	r0, r4, #1342177280	; 0x50000000
    1b74:	0b030000 	bleq	c1b7c <_etext+0xbec4f>
    1b78:	75050501 	strvc	r0, [r5, #-1281]	; 0xfffffaff
    1b7c:	054b1e05 	strbeq	r1, [fp, #-3589]	; 0xfffff1fb
    1b80:	17053d1c 	smladne	r5, ip, sp, r3
    1b84:	3d10053d 	cfldr32cc	mvfx0, [r0, #-244]	; 0xffffff0c
    1b88:	053d1305 	ldreq	r1, [sp, #-773]!	; 0xfffffcfb
    1b8c:	1c053e08 	stcne	14, cr3, [r5], {8}
    1b90:	4c23053d 	cfstr32mi	mvfx0, [r3], #-244	; 0xffffff0c
    1b94:	052e1c05 	streq	r1, [lr, #-3077]!	; 0xfffff3fb
    1b98:	01053112 	tsteq	r5, r2, lsl r1
    1b9c:	1105514b 	tstne	r5, fp, asr #2
    1ba0:	3c05054b 	cfstr32cc	mvfx0, [r5], {75}	; 0x4b
    1ba4:	054d2305 	strbeq	r2, [sp, #-773]	; 0xfffffcfb
    1ba8:	2e062e52 	mcrcs	14, 0, r2, cr6, cr2, {2}
    1bac:	061c053c 			; <UNDEFINED> instruction: 0x061c053c
    1bb0:	2f16052e 	svccs	0x0016052e
    1bb4:	054c1205 	strbeq	r1, [ip, #-517]	; 0xfffffdfb
    1bb8:	0c052e1b 	stceq	14, cr2, [r5], {27}
    1bbc:	2f1f052e 	svccs	0x001f052e
    1bc0:	593d0d05 	ldmdbpl	sp!, {r0, r2, r8, sl, fp}
    1bc4:	05420905 	strbeq	r0, [r2, #-2309]	; 0xfffff6fb
    1bc8:	594b1c0d 	stmdbpl	fp, {r0, r2, r3, sl, fp, ip}^
    1bcc:	223e0905 	eorscs	r0, lr, #81920	; 0x14000
    1bd0:	af220105 	svcge	0x00220105
    1bd4:	054b1105 	strbeq	r1, [fp, #-261]	; 0xfffffefb
    1bd8:	12054a05 	andne	r4, r5, #20480	; 0x5000
    1bdc:	2e1b0531 	mrccs	5, 0, r0, cr11, cr1, {1}
    1be0:	052e0c05 	streq	r0, [lr, #-3077]!	; 0xfffff3fb
    1be4:	0d052f1f 	stceq	15, cr2, [r5, #-124]	; 0xffffff84
    1be8:	4b4c593d 	blmi	13180e4 <_etext+0x13151b7>
    1bec:	3e160559 	mrccc	5, 0, r0, cr6, cr9, {2}
    1bf0:	224b0905 	subcs	r0, fp, #81920	; 0x14000
    1bf4:	a1220105 			; <UNDEFINED> instruction: 0xa1220105
    1bf8:	054e0f05 	strbeq	r0, [lr, #-3845]	; 0xfffff0fb
    1bfc:	0f053c05 	svceq	0x00053c05
    1c00:	2f130521 	svccs	0x00130521
    1c04:	052e0c05 	streq	r0, [lr, #-3077]!	; 0xfffff3fb
    1c08:	2b052e32 	blcs	14d4d8 <_etext+0x14a5ab>
    1c0c:	2027052e 	eorcs	r0, r7, lr, lsr #10
    1c10:	052e3205 	streq	r3, [lr, #-517]!	; 0xfffffdfb
    1c14:	1a052e27 	bne	14d4b8 <_etext+0x14a58b>
    1c18:	4b12052f 	blmi	4830dc <_etext+0x4801af>
    1c1c:	052e0d05 	streq	r0, [lr, #-3333]!	; 0xfffff2fb
    1c20:	16054b1a 			; <UNDEFINED> instruction: 0x16054b1a
    1c24:	2e10054b 	cfmac32cs	mvfx0, mvfx0, mvfx11
    1c28:	052f2b05 	streq	r2, [pc, #-2821]!	; 112b <task_sched_disable+0x2f>
    1c2c:	11052e24 	tstne	r5, r4, lsr #28
    1c30:	034a053e 	movteq	r0, #42302	; 0xa53e
    1c34:	30053c77 	andcc	r3, r5, r7, ror ip
    1c38:	2005053c 	andcs	r0, r5, ip, lsr r5
    1c3c:	0d030105 	stfeqs	f0, [r3, #-20]	; 0xffffffec
    1c40:	05055b3c 	streq	r5, [r5, #-2876]	; 0xfffff4c4
    1c44:	3d12054b 	cfldr32cc	mvfx0, [r2, #-300]	; 0xfffffed4
    1c48:	4d4b0105 	stfmie	f0, [fp, #-20]	; 0xffffffec
    1c4c:	4b4c0905 	blmi	1304068 <_etext+0x130113b>
    1c50:	05383d4c 	ldreq	r3, [r8, #-3404]!	; 0xfffff2b4
    1c54:	82090301 	andhi	r0, r9, #67108864	; 0x4000000
    1c58:	053d1705 	ldreq	r1, [sp, #-1797]!	; 0xfffff8fb
    1c5c:	3d3d3e05 	ldccc	14, cr3, [sp, #-20]!	; 0xffffffec
    1c60:	933d0105 	teqls	sp, #1073741825	; 0x40000001
    1c64:	3d3d0505 	cfldr32cc	mvfx0, [sp, #-20]!	; 0xffffffec
    1c68:	055a593d 	ldrbeq	r5, [sl, #-2365]	; 0xfffff6c3
    1c6c:	00088501 	andeq	r8, r8, r1, lsl #10
    1c70:	03240101 			; <UNDEFINED> instruction: 0x03240101
    1c74:	00030000 	andeq	r0, r3, r0
    1c78:	00000153 	andeq	r0, r0, r3, asr r1
    1c7c:	0efb0102 	cdpeq	1, 15, cr0, cr11, cr2, {0}
    1c80:	0101000d 	tsteq	r1, sp
    1c84:	00000101 	andeq	r0, r0, r1, lsl #2
    1c88:	00000100 	andeq	r0, r0, r0, lsl #2
    1c8c:	63727301 	cmnvs	r2, #67108864	; 0x4000000
    1c90:	72656b2f 	rsbvc	r6, r5, #48128	; 0xbc00
    1c94:	006c656e 	rsbeq	r6, ip, lr, ror #10
    1c98:	6f72702f 	svcvs	0x0072702f
    1c9c:	7463656a 	strbtvc	r6, [r3], #-1386	; 0xfffffa96
    1ca0:	6363672f 	cmnvs	r3, #12320768	; 0xbc0000
    1ca4:	7241412f 	subvc	r4, r1, #-1073741813	; 0xc000000b
    1ca8:	32336863 	eorscc	r6, r3, #6488064	; 0x630000
    1cac:	7261625f 	rsbvc	r6, r1, #-268435451	; 0xf0000005
    1cb0:	656d2d65 	strbvs	r2, [sp, #-3429]!	; 0xfffff29b
    1cb4:	2f6c6174 	svccs	0x006c6174
    1cb8:	2d636367 	stclcs	3, cr6, [r3, #-412]!	; 0xfffffe64
    1cbc:	2d6d7261 	sfmcs	f7, 2, [sp, #-388]!	; 0xfffffe7c
    1cc0:	332e3031 			; <UNDEFINED> instruction: 0x332e3031
    1cc4:	3230322d 	eorscc	r3, r0, #-805306366	; 0xd0000002
    1cc8:	37302e31 			; <UNDEFINED> instruction: 0x37302e31
    1ccc:	3638782d 	ldrtcc	r7, [r8], -sp, lsr #16
    1cd0:	2d34365f 	ldccs	6, cr3, [r4, #-380]!	; 0xfffffe84
    1cd4:	2d6d7261 	sfmcs	f7, 2, [sp, #-388]!	; 0xfffffe7c
    1cd8:	656e6f6e 	strbvs	r6, [lr, #-3950]!	; 0xfffff092
    1cdc:	6261652d 	rsbvs	r6, r1, #188743680	; 0xb400000
    1ce0:	72612f69 	rsbvc	r2, r1, #420	; 0x1a4
    1ce4:	6f6e2d6d 	svcvs	0x006e2d6d
    1ce8:	652d656e 	strvs	r6, [sp, #-1390]!	; 0xfffffa92
    1cec:	2f696261 	svccs	0x00696261
    1cf0:	6c636e69 	stclvs	14, cr6, [r3], #-420	; 0xfffffe5c
    1cf4:	2f656475 	svccs	0x00656475
    1cf8:	6863616d 	stmdavs	r3!, {r0, r2, r3, r5, r6, r8, sp, lr}^
    1cfc:	00656e69 	rsbeq	r6, r5, r9, ror #28
    1d00:	6f72702f 	svcvs	0x0072702f
    1d04:	7463656a 	strbtvc	r6, [r3], #-1386	; 0xfffffa96
    1d08:	6363672f 	cmnvs	r3, #12320768	; 0xbc0000
    1d0c:	7241412f 	subvc	r4, r1, #-1073741813	; 0xc000000b
    1d10:	32336863 	eorscc	r6, r3, #6488064	; 0x630000
    1d14:	7261625f 	rsbvc	r6, r1, #-268435451	; 0xf0000005
    1d18:	656d2d65 	strbvs	r2, [sp, #-3429]!	; 0xfffff29b
    1d1c:	2f6c6174 	svccs	0x006c6174
    1d20:	2d636367 	stclcs	3, cr6, [r3, #-412]!	; 0xfffffe64
    1d24:	2d6d7261 	sfmcs	f7, 2, [sp, #-388]!	; 0xfffffe7c
    1d28:	332e3031 			; <UNDEFINED> instruction: 0x332e3031
    1d2c:	3230322d 	eorscc	r3, r0, #-805306366	; 0xd0000002
    1d30:	37302e31 			; <UNDEFINED> instruction: 0x37302e31
    1d34:	3638782d 	ldrtcc	r7, [r8], -sp, lsr #16
    1d38:	2d34365f 	ldccs	6, cr3, [r4, #-380]!	; 0xfffffe84
    1d3c:	2d6d7261 	sfmcs	f7, 2, [sp, #-388]!	; 0xfffffe7c
    1d40:	656e6f6e 	strbvs	r6, [lr, #-3950]!	; 0xfffff092
    1d44:	6261652d 	rsbvs	r6, r1, #188743680	; 0xb400000
    1d48:	72612f69 	rsbvc	r2, r1, #420	; 0x1a4
    1d4c:	6f6e2d6d 	svcvs	0x006e2d6d
    1d50:	652d656e 	strvs	r6, [sp, #-1390]!	; 0xfffffa92
    1d54:	2f696261 	svccs	0x00696261
    1d58:	6c636e69 	stclvs	14, cr6, [r3], #-420	; 0xfffffe5c
    1d5c:	2f656475 	svccs	0x00656475
    1d60:	00737973 	rsbseq	r7, r3, r3, ror r9
    1d64:	2f637273 	svccs	0x00637273
    1d68:	6c636e69 	stclvs	14, cr6, [r3], #-420	; 0xfffffe5c
    1d6c:	00656475 	rsbeq	r6, r5, r5, ror r4
    1d70:	74756d00 	ldrbtvc	r6, [r5], #-3328	; 0xfffff300
    1d74:	632e7865 			; <UNDEFINED> instruction: 0x632e7865
    1d78:	00000100 	andeq	r0, r0, r0, lsl #2
    1d7c:	6665645f 			; <UNDEFINED> instruction: 0x6665645f
    1d80:	746c7561 	strbtvc	r7, [ip], #-1377	; 0xfffffa9f
    1d84:	7079745f 	rsbsvc	r7, r9, pc, asr r4
    1d88:	682e7365 	stmdavs	lr!, {r0, r2, r5, r6, r8, r9, ip, sp, lr}
    1d8c:	00000200 	andeq	r0, r0, r0, lsl #4
    1d90:	6474735f 	ldrbtvs	r7, [r4], #-863	; 0xfffffca1
    1d94:	2e746e69 	cdpcs	14, 7, cr6, cr4, cr9, {3}
    1d98:	00030068 	andeq	r0, r3, r8, rrx
    1d9c:	62696c00 	rsbvs	r6, r9, #0, 24
    1da0:	0400682e 	streq	r6, [r0], #-2094	; 0xfffff7d2
    1da4:	61740000 	cmnvs	r4, r0
    1da8:	682e6b73 	stmdavs	lr!, {r0, r1, r4, r5, r6, r8, r9, fp, sp, lr}
    1dac:	00000400 	andeq	r0, r0, r0, lsl #8
    1db0:	6e657665 	cdpvs	6, 6, cr7, cr5, cr5, {3}
    1db4:	00682e74 	rsbeq	r2, r8, r4, ror lr
    1db8:	6d000004 	stcvs	0, cr0, [r0, #-16]
    1dbc:	78657475 	stmdavc	r5!, {r0, r2, r4, r5, r6, sl, ip, sp, lr}^
    1dc0:	0400682e 	streq	r6, [r0], #-2094	; 0xfffff7d2
    1dc4:	736f0000 	cmnvc	pc, #0
    1dc8:	0400682e 	streq	r6, [r0], #-2094	; 0xfffff7d2
    1dcc:	05000000 	streq	r0, [r0, #-0]
    1dd0:	02050001 	andeq	r0, r5, #1
    1dd4:	0000254c 	andeq	r2, r0, ip, asr #10
    1dd8:	4b050517 	blmi	14323c <_etext+0x14030f>
    1ddc:	05671205 	strbeq	r1, [r7, #-517]!	; 0xfffffdfb
    1de0:	17053d20 	strne	r3, [r5, -r0, lsr #26]
    1de4:	3d01053d 	cfstr32cc	mvfx0, [r1, #-244]	; 0xffffff0c
    1de8:	5917054d 	ldmdbpl	r7, {r0, r2, r3, r6, r8, sl}
    1dec:	053f0e05 	ldreq	r0, [pc, #-3589]!	; fef <task_system_tick_handler+0xa1>
    1df0:	16052e08 	strne	r2, [r5], -r8, lsl #28
    1df4:	4b340530 	blmi	d032bc <_etext+0xd0038f>
    1df8:	053c2405 	ldreq	r2, [ip, #-1029]!	; 0xfffffbfb
    1dfc:	1a052f0e 	bne	14da3c <_etext+0x14ab0f>
    1e00:	3d09052e 	cfstr32cc	mvfx0, [r9, #-184]	; 0xffffff48
    1e04:	053d1005 	ldreq	r1, [sp, #-5]!
    1e08:	1a053012 	bne	14de58 <_etext+0x14af2b>
    1e0c:	2e0c052e 	cfsh32cs	mvfx0, mvfx12, #30
    1e10:	052f1205 	streq	r1, [pc, #-517]!	; 1c13 <sem_init+0x2b>
    1e14:	0d052e1e 	stceq	14, cr2, [r5, #-120]	; 0xffffff88
    1e18:	3d14053d 	cfldr32cc	mvfx0, [r4, #-244]	; 0xffffff0c
    1e1c:	05301f05 	ldreq	r1, [r0, #-3845]!	; 0xfffff0fb
    1e20:	34053c2d 	strcc	r3, [r5], #-3117	; 0xfffff3d3
    1e24:	2010052e 	andscs	r0, r0, lr, lsr #10
    1e28:	052f1705 	streq	r1, [pc, #-1797]!	; 172b <list_head+0x27>
    1e2c:	14053d1a 	strne	r3, [r5], #-3354	; 0xfffff2e6
    1e30:	3015052e 	andscc	r0, r5, lr, lsr #10
    1e34:	053d3105 	ldreq	r3, [sp, #-261]!	; 0xfffffefb
    1e38:	15053c21 	strne	r3, [r5, #-3105]	; 0xfffff3df
    1e3c:	4c31052f 	cfldr32mi	mvfx0, [r1], #-188	; 0xffffff44
    1e40:	053c2105 	ldreq	r2, [ip, #-261]!	; 0xfffffefb
    1e44:	3d9f310d 	ldfccs	f3, [pc, #52]	; 1e80 <mbox_get+0x8e>
    1e48:	052f2205 	streq	r2, [pc, #-517]!	; 1c4b <sem_acquire+0x27>
    1e4c:	05693f01 	strbeq	r3, [r9, #-3841]!	; 0xfffff0ff
    1e50:	0e054b17 	vmoveq.32	d5[0], r4
    1e54:	2e08053e 	mcrcs	5, 0, r0, cr8, cr14, {1}
    1e58:	05301605 	ldreq	r1, [r0, #-1541]!	; 0xfffff9fb
    1e5c:	24054b34 	strcs	r4, [r5], #-2868	; 0xfffff4cc
    1e60:	2f0e053c 	svccs	0x000e053c
    1e64:	052e1a05 	streq	r1, [lr, #-2565]!	; 0xfffff5fb
    1e68:	10053d09 	andne	r3, r5, r9, lsl #26
    1e6c:	3012053d 	andscc	r0, r2, sp, lsr r5
    1e70:	052e1a05 	streq	r1, [lr, #-2565]!	; 0xfffff5fb
    1e74:	12052e0c 	andne	r2, r5, #12, 28	; 0xc0
    1e78:	2e1e052f 	cfmul64cs	mvdx0, mvdx14, mvdx15
    1e7c:	053d0d05 	ldreq	r0, [sp, #-3333]!	; 0xfffff2fb
    1e80:	09053d14 	stmdbeq	r5, {r2, r4, r8, sl, fp, ip, sp}
    1e84:	3d100530 	cfldr32cc	mvfx0, [r0, #-192]	; 0xffffff40
    1e88:	69220105 	stmdbvs	r2!, {r0, r2, r8}
    1e8c:	054b1705 	strbeq	r1, [fp, #-1797]	; 0xfffff8fb
    1e90:	08053e0e 	stmdaeq	r5, {r1, r2, r3, r9, sl, fp, ip, sp}
    1e94:	2f09052e 	svccs	0x0009052e
    1e98:	053d1005 	ldreq	r1, [sp, #-5]!
    1e9c:	1605310e 	strne	r3, [r5], -lr, lsl #2
    1ea0:	2e08052e 	cfsh32cs	mvfx0, mvfx8, #30
    1ea4:	052f0905 	streq	r0, [pc, #-2309]!	; 15a7 <bitmap_init+0x13>
    1ea8:	05313d10 	ldreq	r3, [r1, #-3344]!	; 0xfffff2f0
    1eac:	08052e09 	stmdaeq	r5, {r0, r3, r9, sl, fp, sp}
    1eb0:	2e100520 	cfmul64cs	mvdx0, mvdx0, mvdx0
    1eb4:	052e0805 	streq	r0, [lr, #-2053]!	; 0xfffff7fb
    1eb8:	10052f09 	andne	r2, r5, r9, lsl #30
    1ebc:	310e053d 	tstcc	lr, sp, lsr r5
    1ec0:	052e2c05 	streq	r2, [lr, #-3077]!	; 0xfffff3fb
    1ec4:	08052e33 	stmdaeq	r5, {r0, r1, r4, r5, r9, sl, fp, sp}
    1ec8:	2f120520 	svccs	0x00120520
    1ecc:	052e1905 	streq	r1, [lr, #-2309]!	; 0xfffff6fb
    1ed0:	0d05200c 	stceq	0, cr2, [r5, #-48]	; 0xffffffd0
    1ed4:	591b052f 	ldmdbpl	fp, {r0, r1, r2, r3, r5, r8, sl}
    1ed8:	052e2905 	streq	r2, [lr, #-2309]!	; 0xfffff6fb
    1edc:	0d052e22 	stceq	14, cr2, [r5, #-136]	; 0xffffff78
    1ee0:	681b0521 	ldmdavs	fp, {r0, r5, r8, sl}
    1ee4:	052e2905 	streq	r2, [lr, #-2309]!	; 0xfffff6fb
    1ee8:	09052e22 	stmdbeq	r5, {r1, r5, r9, sl, fp, sp}
    1eec:	58080524 	stmdapl	r8, {r2, r5, r8, sl}
    1ef0:	052f1805 	streq	r1, [pc, #-2053]!	; 16f3 <list_count+0x13>
    1ef4:	2a057516 	bcs	15f354 <_etext+0x15c427>
    1ef8:	2e24053d 	mcrcs	5, 1, r0, cr4, cr13, {1}
    1efc:	052f0e05 	streq	r0, [pc, #-3589]!	; 10ff <task_sched_disable+0x3>
    1f00:	11052e1a 	tstne	r5, sl, lsl lr
    1f04:	2e28053d 	mcrcs	5, 1, r0, cr8, cr13, {1}
    1f08:	053c0c05 	ldreq	r0, [ip, #-3077]!	; 0xfffff3fb
    1f0c:	05052f0d 	streq	r2, [r5, #-3853]	; 0xfffff0f3
    1f10:	3d0c0532 	cfstr32cc	mvfx0, [ip, #-200]	; 0xffffff38
    1f14:	77210105 	strvc	r0, [r1, -r5, lsl #2]!
    1f18:	054b0e05 	strbeq	r0, [fp, #-3589]	; 0xfffff1fb
    1f1c:	0e052f17 	mcreq	15, 0, r2, cr5, cr7, {0}
    1f20:	2e08053e 	mcrcs	5, 0, r0, cr8, cr14, {1}
    1f24:	052f1205 	streq	r1, [pc, #-517]!	; 1d27 <sem_release+0x63>
    1f28:	37052e30 	smladxcc	r5, r0, lr, r2
    1f2c:	200c052e 	andcs	r0, ip, lr, lsr #10
    1f30:	052f1605 	streq	r1, [pc, #-1541]!	; 1933 <list_remove+0x17>
    1f34:	10052e1d 	andne	r2, r5, sp, lsl lr
    1f38:	2f110520 	svccs	0x00110520
    1f3c:	05591605 	ldrbeq	r1, [r9, #-1541]	; 0xfffff9fb
    1f40:	24052e2b 	strcs	r2, [r5], #-3627	; 0xfffff1d5
    1f44:	2111052e 	tstcs	r1, lr, lsr #10
    1f48:	05681605 	strbeq	r1, [r8, #-1541]!	; 0xfffff9fb
    1f4c:	24052e2b 	strcs	r2, [r5], #-3627	; 0xfffff1d5
    1f50:	250d052e 	strcs	r0, [sp, #-1326]	; 0xfffffad2
    1f54:	05750805 	ldrbeq	r0, [r5, #-2053]!	; 0xfffff7fb
    1f58:	05053d09 	streq	r3, [r5, #-3337]	; 0xfffff2f7
    1f5c:	3d0c0531 	cfstr32cc	mvfx0, [ip, #-196]	; 0xffffff3c
    1f60:	4d210105 	stfmis	f0, [r1, #-20]!	; 0xffffffec
    1f64:	05591705 	ldrbeq	r1, [r9, #-1797]	; 0xfffff8fb
    1f68:	16053e18 			; <UNDEFINED> instruction: 0x16053e18
    1f6c:	2f1d0558 	svccs	0x001d0558
    1f70:	052e1605 	streq	r1, [lr, #-1541]!	; 0xfffff9fb
    1f74:	08052f0e 	stmdaeq	r5, {r1, r2, r3, r8, r9, sl, fp, sp}
    1f78:	2f20052e 	svccs	0x0020052e
    1f7c:	052e2705 	streq	r2, [lr, #-1797]!	; 0xfffff8fb
    1f80:	053e2019 	ldreq	r2, [lr, #-25]!	; 0xffffffe7
    1f84:	11053f18 	tstne	r5, r8, lsl pc
    1f88:	2f1f052e 	svccs	0x001f052e
    1f8c:	052e1805 	streq	r1, [lr, #-2053]!	; 0xfffff7fb
    1f90:	01052f05 	tsteq	r5, r5, lsl #30
    1f94:	0004023d 	andeq	r0, r4, sp, lsr r2
    1f98:	02840101 	addeq	r0, r4, #1073741824	; 0x40000000
    1f9c:	00030000 	andeq	r0, r3, r0
    1fa0:	0000015d 	andeq	r0, r0, sp, asr r1
    1fa4:	0efb0102 	cdpeq	1, 15, cr0, cr11, cr2, {0}
    1fa8:	0101000d 	tsteq	r1, sp
    1fac:	00000101 	andeq	r0, r0, r1, lsl #2
    1fb0:	00000100 	andeq	r0, r0, r0, lsl #2
    1fb4:	63727301 	cmnvs	r2, #67108864	; 0x4000000
    1fb8:	72656b2f 	rsbvc	r6, r5, #48128	; 0xbc00
    1fbc:	006c656e 	rsbeq	r6, ip, lr, ror #10
    1fc0:	6f72702f 	svcvs	0x0072702f
    1fc4:	7463656a 	strbtvc	r6, [r3], #-1386	; 0xfffffa96
    1fc8:	6363672f 	cmnvs	r3, #12320768	; 0xbc0000
    1fcc:	7241412f 	subvc	r4, r1, #-1073741813	; 0xc000000b
    1fd0:	32336863 	eorscc	r6, r3, #6488064	; 0x630000
    1fd4:	7261625f 	rsbvc	r6, r1, #-268435451	; 0xf0000005
    1fd8:	656d2d65 	strbvs	r2, [sp, #-3429]!	; 0xfffff29b
    1fdc:	2f6c6174 	svccs	0x006c6174
    1fe0:	2d636367 	stclcs	3, cr6, [r3, #-412]!	; 0xfffffe64
    1fe4:	2d6d7261 	sfmcs	f7, 2, [sp, #-388]!	; 0xfffffe7c
    1fe8:	332e3031 			; <UNDEFINED> instruction: 0x332e3031
    1fec:	3230322d 	eorscc	r3, r0, #-805306366	; 0xd0000002
    1ff0:	37302e31 			; <UNDEFINED> instruction: 0x37302e31
    1ff4:	3638782d 	ldrtcc	r7, [r8], -sp, lsr #16
    1ff8:	2d34365f 	ldccs	6, cr3, [r4, #-380]!	; 0xfffffe84
    1ffc:	2d6d7261 	sfmcs	f7, 2, [sp, #-388]!	; 0xfffffe7c
    2000:	656e6f6e 	strbvs	r6, [lr, #-3950]!	; 0xfffff092
    2004:	6261652d 	rsbvs	r6, r1, #188743680	; 0xb400000
    2008:	72612f69 	rsbvc	r2, r1, #420	; 0x1a4
    200c:	6f6e2d6d 	svcvs	0x006e2d6d
    2010:	652d656e 	strvs	r6, [sp, #-1390]!	; 0xfffffa92
    2014:	2f696261 	svccs	0x00696261
    2018:	6c636e69 	stclvs	14, cr6, [r3], #-420	; 0xfffffe5c
    201c:	2f656475 	svccs	0x00656475
    2020:	6863616d 	stmdavs	r3!, {r0, r2, r3, r5, r6, r8, sp, lr}^
    2024:	00656e69 	rsbeq	r6, r5, r9, ror #28
    2028:	6f72702f 	svcvs	0x0072702f
    202c:	7463656a 	strbtvc	r6, [r3], #-1386	; 0xfffffa96
    2030:	6363672f 	cmnvs	r3, #12320768	; 0xbc0000
    2034:	7241412f 	subvc	r4, r1, #-1073741813	; 0xc000000b
    2038:	32336863 	eorscc	r6, r3, #6488064	; 0x630000
    203c:	7261625f 	rsbvc	r6, r1, #-268435451	; 0xf0000005
    2040:	656d2d65 	strbvs	r2, [sp, #-3429]!	; 0xfffff29b
    2044:	2f6c6174 	svccs	0x006c6174
    2048:	2d636367 	stclcs	3, cr6, [r3, #-412]!	; 0xfffffe64
    204c:	2d6d7261 	sfmcs	f7, 2, [sp, #-388]!	; 0xfffffe7c
    2050:	332e3031 			; <UNDEFINED> instruction: 0x332e3031
    2054:	3230322d 	eorscc	r3, r0, #-805306366	; 0xd0000002
    2058:	37302e31 			; <UNDEFINED> instruction: 0x37302e31
    205c:	3638782d 	ldrtcc	r7, [r8], -sp, lsr #16
    2060:	2d34365f 	ldccs	6, cr3, [r4, #-380]!	; 0xfffffe84
    2064:	2d6d7261 	sfmcs	f7, 2, [sp, #-388]!	; 0xfffffe7c
    2068:	656e6f6e 	strbvs	r6, [lr, #-3950]!	; 0xfffff092
    206c:	6261652d 	rsbvs	r6, r1, #188743680	; 0xb400000
    2070:	72612f69 	rsbvc	r2, r1, #420	; 0x1a4
    2074:	6f6e2d6d 	svcvs	0x006e2d6d
    2078:	652d656e 	strvs	r6, [sp, #-1390]!	; 0xfffffa92
    207c:	2f696261 	svccs	0x00696261
    2080:	6c636e69 	stclvs	14, cr6, [r3], #-420	; 0xfffffe5c
    2084:	2f656475 	svccs	0x00656475
    2088:	00737973 	rsbseq	r7, r3, r3, ror r9
    208c:	2f637273 	svccs	0x00637273
    2090:	6c636e69 	stclvs	14, cr6, [r3], #-420	; 0xfffffe5c
    2094:	00656475 	rsbeq	r6, r5, r5, ror r4
    2098:	616c6600 	cmnvs	ip, r0, lsl #12
    209c:	72675f67 	rsbvc	r5, r7, #412	; 0x19c
    20a0:	2e70756f 	cdpcs	5, 7, cr7, cr0, cr15, {3}
    20a4:	00010063 	andeq	r0, r1, r3, rrx
    20a8:	65645f00 	strbvs	r5, [r4, #-3840]!	; 0xfffff100
    20ac:	6c756166 	ldfvse	f6, [r5], #-408	; 0xfffffe68
    20b0:	79745f74 	ldmdbvc	r4!, {r2, r4, r5, r6, r8, r9, sl, fp, ip, lr}^
    20b4:	2e736570 	mrccs	5, 3, r6, cr3, cr0, {3}
    20b8:	00020068 	andeq	r0, r2, r8, rrx
    20bc:	74735f00 	ldrbtvc	r5, [r3], #-3840	; 0xfffff100
    20c0:	746e6964 	strbtvc	r6, [lr], #-2404	; 0xfffff69c
    20c4:	0300682e 	movweq	r6, #2094	; 0x82e
    20c8:	696c0000 	stmdbvs	ip!, {}^	; <UNPREDICTABLE>
    20cc:	00682e62 	rsbeq	r2, r8, r2, ror #28
    20d0:	74000004 	strvc	r0, [r0], #-4
    20d4:	2e6b7361 	cdpcs	3, 6, cr7, cr11, cr1, {3}
    20d8:	00040068 	andeq	r0, r4, r8, rrx
    20dc:	65766500 	ldrbvs	r6, [r6, #-1280]!	; 0xfffffb00
    20e0:	682e746e 	stmdavs	lr!, {r1, r2, r3, r5, r6, sl, ip, sp, lr}
    20e4:	00000400 	andeq	r0, r0, r0, lsl #8
    20e8:	67616c66 	strbvs	r6, [r1, -r6, ror #24]!
    20ec:	6f72675f 	svcvs	0x0072675f
    20f0:	682e7075 	stmdavs	lr!, {r0, r2, r4, r5, r6, ip, sp, lr}
    20f4:	00000400 	andeq	r0, r0, r0, lsl #8
    20f8:	682e736f 	stmdavs	lr!, {r0, r1, r2, r3, r5, r6, r8, r9, ip, sp, lr}
    20fc:	00000400 	andeq	r0, r0, r0, lsl #8
    2100:	00010500 	andeq	r0, r1, r0, lsl #10
    2104:	288c0205 	stmcs	ip, {r0, r2, r9}
    2108:	05170000 	ldreq	r0, [r7, #-0]
    210c:	16055905 	strne	r5, [r5], -r5, lsl #18
    2110:	3d010567 	cfstr32cc	mvfx0, [r1, #-412]	; 0xfffffe64
    2114:	670e054e 	strvs	r0, [lr, -lr, asr #10]
    2118:	054b4b3d 	strbeq	r4, [fp, #-2877]	; 0xfffff4c3
    211c:	2d054c40 	stccs	12, cr4, [r5, #-256]	; 0xffffff00
    2120:	2e40053c 	mcrcs	5, 2, r0, cr0, cr12, {1}
    2124:	053c4e05 	ldreq	r4, [ip, #-3589]!	; 0xfffff1fb
    2128:	40052e43 	andmi	r2, r5, r3, asr #28
    212c:	2e0e0520 	cfsh32cs	mvfx0, mvfx14, #16
    2130:	05220805 	streq	r0, [r2, #-2053]!	; 0xfffff7fb
    2134:	33053c18 	movwcc	r3, #23576	; 0x5c18
    2138:	3c45054a 	cfstr64cc	mvdx0, [r5], {74}	; 0x4a
    213c:	053d0c05 	ldreq	r0, [sp, #-3077]!	; 0xfffff3fb
    2140:	22053d10 	andcs	r3, r5, #16, 26	; 0x400
    2144:	2e25053d 	mcrcs	5, 1, r0, cr5, cr13, {1}
    2148:	4c2e2205 	sfmmi	f2, 4, [lr], #-20	; 0xffffffec
    214c:	056a0f05 	strbeq	r0, [sl, #-3845]!	; 0xfffff0fb
    2150:	0b053d10 	bleq	151598 <_etext+0x14e66b>
    2154:	3d0c0531 	cfstr32cc	mvfx0, [ip, #-196]	; 0xffffff3c
    2158:	5c210105 	stfpls	f0, [r1], #-20	; 0xffffffec
    215c:	05760e05 	ldrbeq	r0, [r6, #-3589]!	; 0xfffff1fb
    2160:	0e052f17 	mcreq	15, 0, r2, cr5, cr7, {0}
    2164:	8408053e 	strhi	r0, [r8], #-1342	; 0xfffffac2
    2168:	053d1705 	ldreq	r1, [sp, #-1797]!	; 0xfffff8fb
    216c:	17052e28 	strne	r2, [r5, -r8, lsr #28]
    2170:	2e24052f 	cfsh64cs	mvdx0, mvdx4, #31
    2174:	9f2f0905 	svcls	0x002f0905
    2178:	3026053e 	eorcc	r0, r6, lr, lsr r5
    217c:	3e3c1605 	cfmsuba32cc	mvax0, mvax1, mvfx12, mvfx5
    2180:	053d0905 	ldreq	r0, [sp, #-2309]!	; 0xfffff6fb
    2184:	01053f0c 	tsteq	r5, ip, lsl #30
    2188:	0e057821 	cdpeq	8, 0, cr7, cr5, cr1, {1}
    218c:	31170576 	tstcc	r7, r6, ror r5
    2190:	053d0e05 	ldreq	r0, [sp, #-3589]!	; 0xfffff1fb
    2194:	12057505 	andne	r7, r5, #20971520	; 0x1400000
    2198:	3d0c053e 	cfstr32cc	mvfx0, [ip, #-248]	; 0xffffff08
    219c:	4d210105 	stfmis	f0, [r1, #-20]!	; 0xffffffec
    21a0:	05781705 	ldrbeq	r1, [r8, #-1797]!	; 0xfffff8fb
    21a4:	08053d0d 	stmdaeq	r5, {r0, r2, r3, r8, sl, fp, ip, sp}
    21a8:	3d1a053f 	cfldr32cc	mvfx0, [sl, #-252]	; 0xffffff04
    21ac:	2e1d0576 	mrccs	5, 0, r0, cr13, cr6, {3}
    21b0:	052e1a05 	streq	r1, [lr, #-2565]!	; 0xfffff5fb
    21b4:	053d3f0f 	ldreq	r3, [sp, #-3855]!	; 0xfffff0f1
    21b8:	18053c05 	stmdane	r5, {r0, r2, sl, fp, ip, sp}
    21bc:	2e110521 	cfmul64cs	mvdx0, mvdx1, mvdx1
    21c0:	05211e05 	streq	r1, [r1, #-3589]!	; 0xfffff1fb
    21c4:	13052e12 	movwne	r2, #24082	; 0x5e12
    21c8:	3d120521 	cfldr32cc	mvfx0, [r2, #-132]	; 0xffffff7c
    21cc:	05910c05 	ldreq	r0, [r1, #3077]	; 0xc05
    21d0:	0d053d1e 	stceq	13, cr3, [r5, #-120]	; 0xffffff88
    21d4:	6713053d 			; <UNDEFINED> instruction: 0x6713053d
    21d8:	78034805 	stmdavc	r3, {r0, r2, fp, lr}
    21dc:	2e2f053c 	mcrcs	5, 1, r0, cr15, cr12, {1}
    21e0:	05200505 	streq	r0, [r0, #-1285]!	; 0xfffffafb
    21e4:	3c0c0308 	stccc	3, cr0, [ip], {8}
    21e8:	054b0905 	strbeq	r0, [fp, #-2309]	; 0xfffff6fb
    21ec:	01053105 	tsteq	r5, r5, lsl #2
    21f0:	17054d3d 	smladxne	r5, sp, sp, r4
    21f4:	3e1d0559 	mrccc	5, 0, r0, cr13, cr9, {2}
    21f8:	052e1105 	streq	r1, [lr, #-261]!	; 0xfffffefb
    21fc:	16052f18 			; <UNDEFINED> instruction: 0x16052f18
    2200:	30050558 	andcc	r0, r5, r8, asr r5
    2204:	4d3d0105 	ldfmis	f0, [sp, #-20]!	; 0xffffffec
    2208:	054b1705 	strbeq	r1, [fp, #-1797]	; 0xfffff8fb
    220c:	05053d16 	streq	r3, [r5, #-3350]	; 0xfffff2ea
    2210:	3e080575 	cfrshl64cc	mvdx8, mvdx5, r0
    2214:	053d0905 	ldreq	r0, [sp, #-2309]!	; 0xfffff6fb
    2218:	0105300c 	tsteq	r5, ip
    221c:	00040221 	andeq	r0, r4, r1, lsr #4
    2220:	01bb0101 			; <UNDEFINED> instruction: 0x01bb0101
    2224:	00030000 	andeq	r0, r3, r0
    2228:	00000148 	andeq	r0, r0, r8, asr #2
    222c:	0efb0102 	cdpeq	1, 15, cr0, cr11, cr2, {0}
    2230:	0101000d 	tsteq	r1, sp
    2234:	00000101 	andeq	r0, r0, r1, lsl #2
    2238:	00000100 	andeq	r0, r0, r0, lsl #2
    223c:	63727301 	cmnvs	r2, #67108864	; 0x4000000
    2240:	72702f00 	rsbsvc	r2, r0, #0, 30
    2244:	63656a6f 	cmnvs	r5, #454656	; 0x6f000
    2248:	63672f74 	cmnvs	r7, #116, 30	; 0x1d0
    224c:	41412f63 	cmpmi	r1, r3, ror #30
    2250:	33686372 	cmncc	r8, #-939524095	; 0xc8000001
    2254:	61625f32 	cmnvs	r2, r2, lsr pc
    2258:	6d2d6572 	cfstr32vs	mvfx6, [sp, #-456]!	; 0xfffffe38
    225c:	6c617465 	cfstrdvs	mvd7, [r1], #-404	; 0xfffffe6c
    2260:	6363672f 	cmnvs	r3, #12320768	; 0xbc0000
    2264:	6d72612d 	ldfvse	f6, [r2, #-180]!	; 0xffffff4c
    2268:	2e30312d 	rsfcssp	f3, f0, #5.0
    226c:	30322d33 	eorscc	r2, r2, r3, lsr sp
    2270:	302e3132 	eorcc	r3, lr, r2, lsr r1
    2274:	38782d37 	ldmdacc	r8!, {r0, r1, r2, r4, r5, r8, sl, fp, sp}^
    2278:	34365f36 	ldrtcc	r5, [r6], #-3894	; 0xfffff0ca
    227c:	6d72612d 	ldfvse	f6, [r2, #-180]!	; 0xffffff4c
    2280:	6e6f6e2d 	cdpvs	14, 6, cr6, cr15, cr13, {1}
    2284:	61652d65 	cmnvs	r5, r5, ror #26
    2288:	612f6962 			; <UNDEFINED> instruction: 0x612f6962
    228c:	6e2d6d72 	mcrvs	13, 1, r6, cr13, cr2, {3}
    2290:	2d656e6f 	stclcs	14, cr6, [r5, #-444]!	; 0xfffffe44
    2294:	69626165 	stmdbvs	r2!, {r0, r2, r5, r6, r8, sp, lr}^
    2298:	636e692f 	cmnvs	lr, #770048	; 0xbc000
    229c:	6564756c 	strbvs	r7, [r4, #-1388]!	; 0xfffffa94
    22a0:	63616d2f 	cmnvs	r1, #3008	; 0xbc0
    22a4:	656e6968 	strbvs	r6, [lr, #-2408]!	; 0xfffff698
    22a8:	72702f00 	rsbsvc	r2, r0, #0, 30
    22ac:	63656a6f 	cmnvs	r5, #454656	; 0x6f000
    22b0:	63672f74 	cmnvs	r7, #116, 30	; 0x1d0
    22b4:	41412f63 	cmpmi	r1, r3, ror #30
    22b8:	33686372 	cmncc	r8, #-939524095	; 0xc8000001
    22bc:	61625f32 	cmnvs	r2, r2, lsr pc
    22c0:	6d2d6572 	cfstr32vs	mvfx6, [sp, #-456]!	; 0xfffffe38
    22c4:	6c617465 	cfstrdvs	mvd7, [r1], #-404	; 0xfffffe6c
    22c8:	6363672f 	cmnvs	r3, #12320768	; 0xbc0000
    22cc:	6d72612d 	ldfvse	f6, [r2, #-180]!	; 0xffffff4c
    22d0:	2e30312d 	rsfcssp	f3, f0, #5.0
    22d4:	30322d33 	eorscc	r2, r2, r3, lsr sp
    22d8:	302e3132 	eorcc	r3, lr, r2, lsr r1
    22dc:	38782d37 	ldmdacc	r8!, {r0, r1, r2, r4, r5, r8, sl, fp, sp}^
    22e0:	34365f36 	ldrtcc	r5, [r6], #-3894	; 0xfffff0ca
    22e4:	6d72612d 	ldfvse	f6, [r2, #-180]!	; 0xffffff4c
    22e8:	6e6f6e2d 	cdpvs	14, 6, cr6, cr15, cr13, {1}
    22ec:	61652d65 	cmnvs	r5, r5, ror #26
    22f0:	612f6962 			; <UNDEFINED> instruction: 0x612f6962
    22f4:	6e2d6d72 	mcrvs	13, 1, r6, cr13, cr2, {3}
    22f8:	2d656e6f 	stclcs	14, cr6, [r5, #-444]!	; 0xfffffe44
    22fc:	69626165 	stmdbvs	r2!, {r0, r2, r5, r6, r8, sp, lr}^
    2300:	636e692f 	cmnvs	lr, #770048	; 0xbc000
    2304:	6564756c 	strbvs	r7, [r4, #-1388]!	; 0xfffffa94
    2308:	7379732f 	cmnvc	r9, #-1140850688	; 0xbc000000
    230c:	63727300 	cmnvs	r2, #0, 6
    2310:	636e692f 	cmnvs	lr, #770048	; 0xbc000
    2314:	6564756c 	strbvs	r7, [r4, #-1388]!	; 0xfffffa94
    2318:	616d0000 	cmnvs	sp, r0
    231c:	632e6e69 			; <UNDEFINED> instruction: 0x632e6e69
    2320:	00000100 	andeq	r0, r0, r0, lsl #2
    2324:	6665645f 			; <UNDEFINED> instruction: 0x6665645f
    2328:	746c7561 	strbtvc	r7, [ip], #-1377	; 0xfffffa9f
    232c:	7079745f 	rsbsvc	r7, r9, pc, asr r4
    2330:	682e7365 	stmdavs	lr!, {r0, r2, r5, r6, r8, r9, ip, sp, lr}
    2334:	00000200 	andeq	r0, r0, r0, lsl #4
    2338:	6474735f 	ldrbtvs	r7, [r4], #-863	; 0xfffffca1
    233c:	2e746e69 	cdpcs	14, 7, cr6, cr4, cr9, {3}
    2340:	00030068 	andeq	r0, r3, r8, rrx
    2344:	62696c00 	rsbvs	r6, r9, #0, 24
    2348:	0400682e 	streq	r6, [r0], #-2094	; 0xfffff7d2
    234c:	61740000 	cmnvs	r4, r0
    2350:	682e6b73 	stmdavs	lr!, {r0, r1, r4, r5, r6, r8, r9, fp, sp, lr}
    2354:	00000400 	andeq	r0, r0, r0, lsl #8
    2358:	6e657665 	cdpvs	6, 6, cr7, cr5, cr5, {3}
    235c:	00682e74 	rsbeq	r2, r8, r4, ror lr
    2360:	66000004 	strvs	r0, [r0], -r4
    2364:	5f67616c 	svcpl	0x0067616c
    2368:	756f7267 	strbvc	r7, [pc, #-615]!	; 2109 <mem_block_alloc+0x7>
    236c:	00682e70 	rsbeq	r2, r8, r0, ror lr
    2370:	00000004 	andeq	r0, r0, r4
    2374:	05000105 	streq	r0, [r0, #-261]	; 0xfffffefb
    2378:	002b3002 	eoreq	r3, fp, r2
    237c:	010f0300 	mrseq	r0, SP_hyp
    2380:	053d1605 	ldreq	r1, [sp, #-1541]!	; 0xfffff9fb
    2384:	0b052e0e 	bleq	14dbc4 <_etext+0x14ac97>
    2388:	21100521 	tstcs	r0, r1, lsr #10
    238c:	053d0e05 	ldreq	r0, [sp, #-3589]!	; 0xfffff1fb
    2390:	1c053a0c 			; <UNDEFINED> instruction: 0x1c053a0c
    2394:	2e0b0520 	cfsh32cs	mvfx0, mvfx11, #16
    2398:	03320105 	teqeq	r2, #1073741825	; 0x40000001
    239c:	05059e0e 	streq	r9, [r5, #-3598]	; 0xfffff1f2
    23a0:	09053e4b 	stmdbeq	r5, {r0, r1, r3, r6, r9, sl, fp, ip, sp}
    23a4:	563d4b4c 	ldrtpl	r4, [sp], -ip, asr #22
    23a8:	057b0105 	ldrbeq	r0, [fp, #-261]!	; 0xfffffefb
    23ac:	09054b0e 	stmdbeq	r5, {r1, r2, r3, r8, r9, fp, lr}
    23b0:	05499f30 	strbeq	r9, [r9, #-3888]	; 0xfffff0d0
    23b4:	09058801 	stmdbeq	r5, {r0, fp, pc}
    23b8:	053b4b4c 	ldreq	r4, [fp, #-2892]!	; 0xfffff4b4
    23bc:	09055f01 	stmdbeq	r5, {r0, r8, r9, sl, fp, ip, lr}
    23c0:	4b2f4b4c 	blmi	bd50f8 <_etext+0xbd21cb>
    23c4:	60010539 	andvs	r0, r1, r9, lsr r5
    23c8:	303e0505 	eorscc	r0, lr, r5, lsl #10
    23cc:	2f76753e 	svccs	0x0076753e
    23d0:	13059430 	movwne	r9, #21552	; 0x5430
    23d4:	3c110592 	cfldr32cc	mvfx0, [r1], {146}	; 0x92
    23d8:	302f0505 	eorcc	r0, pc, r5, lsl #10
    23dc:	01001502 	tsteq	r0, r2, lsl #10
    23e0:	00004901 	andeq	r4, r0, r1, lsl #18
    23e4:	2e000300 	cdpcs	3, 0, cr0, cr0, cr0, {0}
    23e8:	02000000 	andeq	r0, r0, #0
    23ec:	0d0efb01 	vstreq	d15, [lr, #-4]
    23f0:	01010100 	mrseq	r0, (UNDEF: 17)
    23f4:	00000001 	andeq	r0, r0, r1
    23f8:	01000001 	tsteq	r0, r1
    23fc:	2f637273 	svccs	0x00637273
    2400:	74736574 	ldrbtvc	r6, [r3], #-1396	; 0xfffffa8c
    2404:	65736163 	ldrbvs	r6, [r3, #-355]!	; 0xfffffe9d
    2408:	65740000 	ldrbvs	r0, [r4, #-0]!
    240c:	61637473 	smcvs	14147	; 0x3743
    2410:	632e6573 			; <UNDEFINED> instruction: 0x632e6573
    2414:	00000100 	andeq	r0, r0, r0, lsl #2
    2418:	00010500 	andeq	r0, r1, r0, lsl #10
    241c:	2cb80205 	lfmcs	f0, 4, [r8], #20
    2420:	05150000 	ldreq	r0, [r5, #-0]
    2424:	01052f09 	tsteq	r5, r9, lsl #30
    2428:	0006024b 	andeq	r0, r6, fp, asr #4
    242c:	Address 0x000000000000242c is out of bounds.


Disassembly of section .debug_str:

00000000 <.debug_str>:
       0:	66705f67 	ldrbtvs	r5, [r0], -r7, ror #30
       4:	6365566e 	cmnvs	r5, #115343360	; 0x6e00000
       8:	73726f74 	cmnvc	r2, #116, 30	; 0x1d0
       c:	736e7500 	cmnvc	lr, #0, 10
      10:	656e6769 	strbvs	r6, [lr, #-1897]!	; 0xfffff897
      14:	68632064 	stmdavs	r3!, {r2, r5, r6, sp}^
      18:	73007261 	movwvc	r7, #609	; 0x261
      1c:	74726f68 	ldrbtvc	r6, [r2], #-3944	; 0xfffff098
      20:	736e7520 	cmnvc	lr, #32, 10	; 0x8000000
      24:	656e6769 	strbvs	r6, [lr, #-1897]!	; 0xfffff897
      28:	6e692064 	cdpvs	0, 6, cr2, cr9, cr4, {3}
      2c:	6e490074 	mcrvs	0, 2, r0, cr9, cr4, {3}
      30:	66654474 			; <UNDEFINED> instruction: 0x66654474
      34:	746c7561 	strbtvc	r7, [ip], #-1377	; 0xfffffa9f
      38:	646e6148 	strbtvs	r6, [lr], #-328	; 0xfffffeb8
      3c:	0072656c 	rsbseq	r6, r2, ip, ror #10
      40:	6f72702f 	svcvs	0x0072702f
      44:	7463656a 	strbtvc	r6, [r3], #-1386	; 0xfffffa96
      48:	6c65662f 	stclvs	6, cr6, [r5], #-188	; 0xffffff44
      4c:	612f7869 			; <UNDEFINED> instruction: 0x612f7869
      50:	612f6d72 			; <UNDEFINED> instruction: 0x612f6d72
      54:	37766d72 			; <UNDEFINED> instruction: 0x37766d72
      58:	6c2f336d 	stcvs	3, cr3, [pc], #-436	; fffffeac <_heap_top+0xdffbfeac>
      5c:	3673336d 	ldrbtcc	r3, [r3], -sp, ror #6
      60:	65353639 	ldrvs	r3, [r5, #-1593]!	; 0xfffff9c7
      64:	46006276 			; <UNDEFINED> instruction: 0x46006276
      68:	746c7561 	strbtvc	r7, [ip], #-1377	; 0xfffffa9f
      6c:	00525349 	subseq	r5, r2, r9, asr #6
      70:	2f637273 	svccs	0x00637273
      74:	6e72656b 	cdpvs	5, 7, cr6, cr2, cr11, {3}
      78:	692f6c65 	stmdbvs	pc!, {r0, r2, r5, r6, sl, fp, sp, lr}	; <UNPREDICTABLE>
      7c:	765f746e 	ldrbvc	r7, [pc], -lr, ror #8
      80:	6f746365 	svcvs	0x00746365
      84:	00632e72 	rsbeq	r2, r3, r2, ror lr
      88:	676e6f6c 	strbvs	r6, [lr, -ip, ror #30]!
      8c:	6e6f6c20 	cdpvs	12, 6, cr6, cr15, cr0, {1}
      90:	6e752067 	cdpvs	0, 7, cr2, cr5, cr7, {3}
      94:	6e676973 			; <UNDEFINED> instruction: 0x6e676973
      98:	69206465 	stmdbvs	r0!, {r0, r2, r5, r6, sl, sp, lr}
      9c:	6c00746e 	cfstrsvs	mvf7, [r0], {110}	; 0x6e
      a0:	20676e6f 	rsbcs	r6, r7, pc, ror #28
      a4:	676e6f6c 	strbvs	r6, [lr, -ip, ror #30]!
      a8:	746e6920 	strbtvc	r6, [lr], #-2336	; 0xfffff6e0
      ac:	554e4700 	strbpl	r4, [lr, #-1792]	; 0xfffff900
      b0:	31314320 	teqcc	r1, r0, lsr #6
      b4:	2e303120 	rsfcssp	f3, f0, f0
      b8:	20312e33 	eorscs	r2, r1, r3, lsr lr
      bc:	31323032 	teqcc	r2, r2, lsr r0
      c0:	31323630 	teqcc	r2, r0, lsr r6
      c4:	636d2d20 	cmnvs	sp, #32, 26	; 0x800
      c8:	633d7570 	teqvs	sp, #112, 10	; 0x1c000000
      cc:	6574726f 	ldrbvs	r7, [r4, #-623]!	; 0xfffffd91
      d0:	336d2d78 	cmncc	sp, #120, 26	; 0x1e00
      d4:	746d2d20 	strbtvc	r2, [sp], #-3360	; 0xfffff2e0
      d8:	626d7568 	rsbvs	r7, sp, #104, 10	; 0x1a000000
      dc:	666d2d20 	strbtvs	r2, [sp], -r0, lsr #26
      e0:	74616f6c 	strbtvc	r6, [r1], #-3948	; 0xfffff094
      e4:	6962612d 	stmdbvs	r2!, {r0, r2, r3, r5, r8, sp, lr}^
      e8:	666f733d 			; <UNDEFINED> instruction: 0x666f733d
      ec:	6d2d2074 	stcvs	0, cr2, [sp, #-464]!	; 0xfffffe30
      f0:	68637261 	stmdavs	r3!, {r0, r5, r6, r9, ip, sp, lr}^
      f4:	6d72613d 	ldfvse	f6, [r2, #-244]!	; 0xffffff0c
      f8:	6d2d3776 	stcvs	7, cr3, [sp, #-472]!	; 0xfffffe28
      fc:	20672d20 	rsbcs	r2, r7, r0, lsr #26
     100:	7764672d 	strbvc	r6, [r4, -sp, lsr #14]!
     104:	2d667261 	sfmcs	f7, 2, [r6, #-388]!	; 0xfffffe7c
     108:	672d2032 			; <UNDEFINED> instruction: 0x672d2032
     10c:	69727473 	ldmdbvs	r2!, {r0, r1, r4, r5, r6, sl, ip, sp, lr}^
     110:	642d7463 	strtvs	r7, [sp], #-1123	; 0xfffffb9d
     114:	66726177 			; <UNDEFINED> instruction: 0x66726177
     118:	304f2d20 	subcc	r2, pc, r0, lsr #26
     11c:	74732d20 	ldrbtvc	r2, [r3], #-3360	; 0xfffff2e0
     120:	31633d64 	cmncc	r3, r4, ror #26
     124:	662d2031 			; <UNDEFINED> instruction: 0x662d2031
     128:	622d6f6e 	eorvs	r6, sp, #440	; 0x1b8
     12c:	746c6975 	strbtvc	r6, [ip], #-2421	; 0xfffff68b
     130:	73006e69 	movwvc	r6, #3689	; 0xe69
     134:	74726f68 	ldrbtvc	r6, [r2], #-3944	; 0xfffff098
     138:	746e6920 	strbtvc	r6, [lr], #-2336	; 0xfffff6e0
     13c:	696d4e00 	stmdbvs	sp!, {r9, sl, fp, lr}^
     140:	73005253 	movwvc	r5, #595	; 0x253
     144:	69747379 	ldmdbvs	r4!, {r0, r3, r4, r5, r6, r8, r9, ip, sp, lr}^
     148:	745f6b63 	ldrbvc	r6, [pc], #-2915	; 150 <g_pfnVectors+0x150>
     14c:	5f006761 	svcpl	0x00006761
     150:	6e69755f 	mcrvs	5, 3, r7, cr9, cr15, {2}
     154:	5f323374 	svcpl	0x00323374
     158:	6f6c0074 	svcvs	0x006c0074
     15c:	5f006461 	svcpl	0x00006461
     160:	6e69755f 	mcrvs	5, 3, r7, cr9, cr15, {2}
     164:	745f3874 	ldrbvc	r3, [pc], #-2164	; 16c <g_pfnVectors+0x16c>
     168:	63727300 	cmnvs	r2, #0, 6
     16c:	72656b2f 	rsbvc	r6, r5, #48128	; 0xbc00
     170:	2f6c656e 	svccs	0x006c656e
     174:	2e336d63 	cdpcs	13, 3, cr6, cr3, cr3, {3}
     178:	6e690063 	cdpvs	0, 6, cr0, cr9, cr3, {3}
     17c:	735f7469 	cmpvc	pc, #1761607680	; 0x69000000
     180:	69747379 	ldmdbvs	r4!, {r0, r3, r4, r5, r6, r8, r9, ip, sp, lr}^
     184:	73006b63 	movwvc	r6, #2915	; 0xb63
     188:	69747379 	ldmdbvs	r4!, {r0, r3, r4, r5, r6, r8, r9, ip, sp, lr}^
     18c:	685f6b63 	ldmdavs	pc, {r0, r1, r5, r6, r8, r9, fp, sp, lr}^	; <UNPREDICTABLE>
     190:	6c646e61 	stclvs	14, cr6, [r4], #-388	; 0xfffffe7c
     194:	73007265 	movwvc	r7, #613	; 0x265
     198:	705f7379 	subsvc	r7, pc, r9, ror r3	; <UNPREDICTABLE>
     19c:	5f6f6972 	svcpl	0x006f6972
     1a0:	61630070 	smcvs	12288	; 0x3000
     1a4:	0062726c 	rsbeq	r7, r2, ip, ror #4
     1a8:	6c727463 	cfldrdvs	mvd7, [r2], #-396	; 0xfffffe74
     1ac:	73797300 	cmnvc	r9, #0, 6
     1b0:	6b636974 	blvs	18da788 <_etext+0x18d785b>
     1b4:	7400705f 	strvc	r7, [r0], #-95	; 0xffffffa1
     1b8:	67676972 			; <UNDEFINED> instruction: 0x67676972
     1bc:	705f7265 	subsvc	r7, pc, r5, ror #4
     1c0:	5f646e65 	svcpl	0x00646e65
     1c4:	73007673 	movwvc	r7, #1651	; 0x673
     1c8:	69747379 	ldmdbvs	r4!, {r0, r3, r4, r5, r6, r8, r9, ip, sp, lr}^
     1cc:	745f6b63 	ldrbvc	r6, [pc], #-2915	; 1d4 <g_pfnVectors+0x1d4>
     1d0:	72747300 	rsbsvc	r7, r4, #0, 6
     1d4:	74730031 	ldrbtvc	r0, [r3], #-49	; 0xffffffcf
     1d8:	6d003272 	sfmvs	f3, 4, [r0, #-456]	; 0xfffffe38
     1dc:	69746c75 	ldmdbvs	r4!, {r0, r2, r4, r5, r6, sl, fp, sp, lr}^
     1e0:	65696c70 	strbvs	r6, [r9, #-3184]!	; 0xfffff390
     1e4:	41550072 	cmpmi	r5, r2, ror r0
     1e8:	44305452 	ldrtmi	r5, [r0], #-1106	; 0xfffffbae
     1ec:	656d0052 	strbvs	r0, [sp, #-82]!	; 0xffffffae
     1f0:	7970636d 	ldmdbvc	r0!, {r0, r2, r3, r5, r6, r8, r9, sp, lr}^
     1f4:	69727000 	ldmdbvs	r2!, {ip, sp, lr}^
     1f8:	5f66746e 	svcpl	0x0066746e
     1fc:	00727473 	rsbseq	r7, r2, r3, ror r4
     200:	74646977 	strbtvc	r6, [r4], #-2423	; 0xfffff689
     204:	656d0068 	strbvs	r0, [sp, #-104]!	; 0xffffff98
     208:	706d636d 	rsbvc	r6, sp, sp, ror #6
     20c:	5f6f6e00 	svcpl	0x006f6e00
     210:	6e697270 	mcrvs	2, 3, r7, cr9, cr0, {3}
     214:	5f006b74 	svcpl	0x00006b74
     218:	5f61765f 	svcpl	0x0061765f
     21c:	7473696c 	ldrbtvc	r6, [r3], #-2412	; 0xfffff694
     220:	6d656d00 	stclvs	13, cr6, [r5, #-0]
     224:	00746573 	rsbseq	r6, r4, r3, ror r5
     228:	74727473 	ldrbtvc	r7, [r2], #-1139	; 0xfffffb8d
     22c:	75006c6f 	strvc	r6, [r0, #-3183]	; 0xfffff391
     230:	72657070 	rsbvc	r7, r5, #112	; 0x70
     234:	7865685f 	stmdavc	r5!, {r0, r1, r2, r3, r4, r6, fp, sp, lr}^
     238:	6373615f 	cmnvs	r3, #-1073741801	; 0xc0000017
     23c:	6261745f 	rsbvs	r7, r1, #1593835520	; 0x5f000000
     240:	7000656c 	andvc	r6, r0, ip, ror #10
     244:	746e6972 	strbtvc	r6, [lr], #-2418	; 0xfffff68e
     248:	65685f66 	strbvs	r5, [r8, #-3942]!	; 0xfffff09a
     24c:	5f700078 	svcpl	0x00700078
     250:	00637273 	rsbeq	r7, r3, r3, ror r2
     254:	74727473 	ldrbtvc	r7, [r2], #-1139	; 0xfffffb8d
     258:	006c756f 	rsbeq	r7, ip, pc, ror #10
     25c:	73645f70 	cmnvc	r4, #112, 30	; 0x1c0
     260:	6d740074 	ldclvs	0, cr0, [r4, #-464]!	; 0xfffffe30
     264:	00775f70 	rsbseq	r5, r7, r0, ror pc
     268:	5f786568 	svcpl	0x00786568
     26c:	67696577 			; <UNDEFINED> instruction: 0x67696577
     270:	765f7468 	ldrbvc	r7, [pc], -r8, ror #8
     274:	65756c61 	ldrbvs	r6, [r5, #-3169]!	; 0xfffff39f
     278:	6261745f 	rsbvs	r7, r1, #1593835520	; 0x5f000000
     27c:	6800656c 	stmdavs	r0, {r2, r3, r5, r6, r8, sl, sp, lr}
     280:	765f7865 	ldrbvc	r7, [pc], -r5, ror #16
     284:	5f006c61 	svcpl	0x00006c61
     288:	0070615f 	rsbseq	r6, r0, pc, asr r1
     28c:	6c727473 	cfldrdvs	mvd7, [r2], #-460	; 0xfffffe34
     290:	73006e65 	movwvc	r6, #3685	; 0xe65
     294:	70637274 	rsbvc	r7, r3, r4, ror r2
     298:	72700079 	rsbsvc	r0, r0, #121	; 0x79
     29c:	66746e69 	ldrbtvs	r6, [r4], -r9, ror #28
     2a0:	6168635f 	cmnvs	r8, pc, asr r3
     2a4:	5f700072 	svcpl	0x00700072
     2a8:	316d656d 	cmncc	sp, sp, ror #10
     2ac:	6d5f7000 	ldclvs	0, cr7, [pc, #-0]	; 2b4 <init_systick+0x2c>
     2b0:	00326d65 	eorseq	r6, r2, r5, ror #26
     2b4:	646e6573 	strbtvs	r6, [lr], #-1395	; 0xfffffa8d
     2b8:	6168635f 	cmnvs	r8, pc, asr r3
     2bc:	72730072 	rsbsvc	r0, r3, #114	; 0x72
     2c0:	656b2f63 	strbvs	r2, [fp, #-3939]!	; 0xfffff09d
     2c4:	6c656e72 	stclvs	14, cr6, [r5], #-456	; 0xfffffe38
     2c8:	5f736f2f 	svcpl	0x00736f2f
     2cc:	69647473 	stmdbvs	r4!, {r0, r1, r4, r5, r6, sl, ip, sp, lr}^
     2d0:	00632e6f 	rsbeq	r2, r3, pc, ror #28
     2d4:	70677261 	rsbvc	r7, r7, r1, ror #4
     2d8:	73007274 	movwvc	r7, #628	; 0x274
     2dc:	6d637274 	sfmvs	f7, 2, [r3, #-464]!	; 0xfffffe30
     2e0:	5f5f0070 	svcpl	0x005f0070
     2e4:	63756e67 	cmnvs	r5, #1648	; 0x670
     2e8:	5f61765f 	svcpl	0x0061765f
     2ec:	7473696c 	ldrbtvc	r6, [r3], #-2412	; 0xfffff694
     2f0:	5f736900 	svcpl	0x00736900
     2f4:	00637361 	rsbeq	r7, r3, r1, ror #6
     2f8:	6e727473 	mrcvs	4, 3, r7, cr2, cr3, {3}
     2fc:	00706d63 	rsbseq	r6, r0, r3, ror #26
     300:	645f7369 	ldrbvs	r7, [pc], #-873	; 308 <send_char+0xc>
     304:	615f6365 	cmpvs	pc, r5, ror #6
     308:	70006373 	andvc	r6, r0, r3, ror r3
     30c:	746e6972 	strbtvc	r6, [lr], #-2418	; 0xfffff68e
     310:	65645f66 	strbvs	r5, [r4, #-3942]!	; 0xfffff09a
     314:	73690063 	cmnvc	r9, #99	; 0x63
     318:	7865685f 	stmdavc	r5!, {r0, r1, r2, r3, r4, r6, fp, sp, lr}^
     31c:	6373615f 	cmnvs	r3, #-1073741801	; 0xc0000017
     320:	69727000 	ldmdbvs	r2!, {ip, sp, lr}^
     324:	5f66746e 	svcpl	0x0066746e
     328:	5f786568 	svcpl	0x00786568
     32c:	65707075 	ldrbvs	r7, [r0, #-117]!	; 0xffffff8b
     330:	72730072 	rsbsvc	r0, r3, #114	; 0x72
     334:	656b2f63 	strbvs	r2, [fp, #-3939]!	; 0xfffff09d
     338:	6c656e72 	stclvs	14, cr6, [r5], #-456	; 0xfffffe38
     33c:	336d632f 	cmncc	sp, #-1140850688	; 0xbc000000
     340:	732e735f 			; <UNDEFINED> instruction: 0x732e735f
     344:	554e4700 	strbpl	r4, [lr, #-1792]	; 0xfffff900
     348:	20534120 	subscs	r4, r3, r0, lsr #2
     34c:	36332e32 			; <UNDEFINED> instruction: 0x36332e32
     350:	6900312e 	stmdbvs	r0, {r1, r2, r3, r5, r8, ip, sp}
     354:	5f656c64 	svcpl	0x00656c64
     358:	6b736174 	blvs	1cd8930 <_etext+0x1cd5a03>
     35c:	746e655f 	strbtvc	r6, [lr], #-1375	; 0xfffffaa1
     360:	63007972 	movwvs	r7, #2418	; 0x972
     364:	6e61656c 	cdpvs	5, 6, cr6, cr1, cr12, {3}
     368:	7261705f 	rsbvc	r7, r1, #95	; 0x5f
     36c:	64006d61 	strvs	r6, [r0], #-3425	; 0xfffff29f
     370:	79616c65 	stmdbvc	r1!, {r0, r2, r5, r6, sl, fp, sp, lr}^
     374:	646f6e5f 	strbtvs	r6, [pc], #-3679	; 37c <is_asc+0x1c>
     378:	61740065 	cmnvs	r4, r5, rrx
     37c:	645f6b73 	ldrbvs	r6, [pc], #-2931	; 384 <is_asc+0x24>
     380:	79616c65 	stmdbvc	r1!, {r0, r2, r5, r6, sl, fp, sp, lr}^
     384:	6961775f 	stmdbvs	r1!, {r0, r1, r2, r3, r4, r6, r8, r9, sl, ip, sp, lr}^
     388:	61770074 	cmnvs	r7, r4, ror r0
     38c:	655f7469 	ldrbvs	r7, [pc, #-1129]	; ffffff2b <_heap_top+0xdffbff2b>
     390:	746e6576 	strbtvc	r6, [lr], #-1398	; 0xfffffa8a
     394:	65766500 	ldrbvs	r6, [r6, #-1280]!	; 0xfffffb00
     398:	745f746e 	ldrbvc	r7, [pc], #-1134	; 3a0 <is_hex_asc+0xe>
     39c:	69006761 	stmdbvs	r0, {r0, r5, r6, r8, r9, sl, sp, lr}
     3a0:	61745f73 	cmnvs	r4, r3, ror pc
     3a4:	725f6b73 	subsvc	r6, pc, #117760	; 0x1cc00
     3a8:	65757165 	ldrbvs	r7, [r5, #-357]!	; 0xfffffe9b
     3ac:	645f7473 	ldrbvs	r7, [pc], #-1139	; 3b4 <is_hex_asc+0x22>
     3b0:	74656c65 	strbtvc	r6, [r5], #-3173	; 0xfffff39b
     3b4:	5f670065 	svcpl	0x00670065
     3b8:	65686373 	strbvs	r6, [r8, #-883]!	; 0xfffffc8d
     3bc:	6f6c5f64 	svcvs	0x006c5f64
     3c0:	67006b63 	strvs	r6, [r0, -r3, ror #22]
     3c4:	6c64695f 			; <UNDEFINED> instruction: 0x6c64695f
     3c8:	61745f65 	cmnvs	r4, r5, ror #30
     3cc:	735f6b73 	cmpvc	pc, #117760	; 0x1cc00
     3d0:	4e006b74 	vmovmi.16	d0[1], r6
     3d4:	52455f4f 	subpl	r5, r5, #316	; 0x13c
     3d8:	00524f52 	subseq	r4, r2, r2, asr pc
     3dc:	6b736174 	blvs	1cd89b4 <_etext+0x1cd5a87>
     3e0:	7375735f 	cmnvc	r5, #2080374785	; 0x7c000001
     3e4:	646e6570 	strbtvs	r6, [lr], #-1392	; 0xfffffa90
     3e8:	73696c00 	cmnvc	r9, #0, 24
     3ec:	00745f74 	rsbseq	r5, r4, r4, ror pc
     3f0:	74696177 	strbtvc	r6, [r9], #-375	; 0xfffffe89
     3f4:	6576655f 	ldrbvs	r6, [r6, #-1375]!	; 0xfffffaa1
     3f8:	725f746e 	subsvc	r7, pc, #1845493760	; 0x6e000000
     3fc:	6c757365 	ldclvs	3, cr7, [r5], #-404	; 0xfffffe6c
     400:	696c0074 	stmdbvs	ip!, {r2, r4, r5, r6}^
     404:	6e5f7473 	mrcvs	4, 2, r7, cr15, cr3, {3}
     408:	5f65646f 	svcpl	0x0065646f
     40c:	696c0074 	stmdbvs	ip!, {r2, r4, r5, r6}^
     410:	745f7473 	ldrbvc	r7, [pc], #-1139	; 418 <printf_str+0xe>
     414:	67006761 	strvs	r6, [r0, -r1, ror #14]
     418:	6c64695f 			; <UNDEFINED> instruction: 0x6c64695f
     41c:	61745f65 	cmnvs	r4, r5, ror #30
     420:	74006b73 	strvc	r6, [r0], #-2931	; 0xfffff48d
     424:	5f6b7361 	svcpl	0x006b7361
     428:	63726f66 	cmnvs	r2, #408	; 0x198
     42c:	65645f65 	strbvs	r5, [r4, #-3941]!	; 0xfffff09b
     430:	6574656c 	ldrbvs	r6, [r4, #-1388]!	; 0xfffffa94
     434:	73617400 	cmnvc	r1, #0, 8
     438:	6e695f6b 	cdpvs	15, 6, cr5, cr9, cr11, {3}
     43c:	745f6f66 	ldrbvc	r6, [pc], #-3942	; 444 <printf_hex+0x8>
     440:	6e006761 	cdpvs	7, 0, cr6, cr0, cr1, {3}
     444:	5f65646f 	svcpl	0x0065646f
     448:	6e756f63 	cdpvs	15, 7, cr6, cr5, cr3, {3}
     44c:	76650074 			; <UNDEFINED> instruction: 0x76650074
     450:	5f746e65 	svcpl	0x00746e65
     454:	67616c66 	strbvs	r6, [r1, -r6, ror #24]!
     458:	73696c00 	cmnvc	r9, #0, 24
     45c:	6f6e5f74 	svcvs	0x006e5f74
     460:	745f6564 	ldrbvc	r6, [pc], #-1380	; 468 <printf_hex+0x2c>
     464:	45006761 	strmi	r6, [r0, #-1889]	; 0xfffff89f
     468:	524f5252 	subpl	r5, pc, #536870917	; 0x20000005
     46c:	544f4e5f 	strbpl	r4, [pc], #-3679	; 474 <printf_hex+0x38>
     470:	4e574f5f 	mrcmi	15, 2, r4, cr7, cr15, {2}
     474:	68005245 	stmdavs	r0, {r0, r2, r6, r9, ip, lr}
     478:	65686769 	strbvs	r6, [r8, #-1897]!	; 0xfffff897
     47c:	705f7473 	subsvc	r7, pc, r3, ror r4	; <UNPREDICTABLE>
     480:	006f6972 	rsbeq	r6, pc, r2, ror r9	; <UNPREDICTABLE>
     484:	6b736174 	blvs	1cd8a5c <_etext+0x1cd5b2f>
     488:	7465735f 	strbtvc	r7, [r5], #-863	; 0xfffffca1
     48c:	656c635f 	strbvs	r6, [ip, #-863]!	; 0xfffffca1
     490:	635f6e61 	cmpvs	pc, #1552	; 0x610
     494:	626c6c61 	rsbvs	r6, ip, #24832	; 0x6100
     498:	6174006b 	cmnvs	r4, fp, rrx
     49c:	735f6b73 	cmpvc	pc, #117760	; 0x1cc00
     4a0:	65747379 	ldrbvs	r7, [r4, #-889]!	; 0xfffffc87
     4a4:	69745f6d 	ldmdbvs	r4!, {r0, r2, r3, r5, r6, r8, r9, sl, fp, ip, lr}^
     4a8:	685f6b63 	ldmdavs	pc, {r0, r1, r5, r6, r8, r9, fp, sp, lr}^	; <UNPREDICTABLE>
     4ac:	6c646e61 	stclvs	14, cr6, [r4], #-388	; 0xfffffe7c
     4b0:	74007265 	strvc	r7, [r0], #-613	; 0xfffffd9b
     4b4:	5f6b7361 	svcpl	0x006b7361
     4b8:	5f670074 	svcpl	0x00670074
     4bc:	656c6469 	strbvs	r6, [ip, #-1129]!	; 0xfffffb97
     4c0:	7361745f 	cmnvc	r1, #1593835520	; 0x5f000000
     4c4:	626f5f6b 	rsbvs	r5, pc, #428	; 0x1ac
     4c8:	6962006a 	stmdbvs	r2!, {r1, r3, r5, r6}^
     4cc:	70616d74 	rsbvc	r6, r1, r4, ror sp
     4d0:	7400745f 	strvc	r7, [r0], #-1119	; 0xfffffba1
     4d4:	5f6b7361 	svcpl	0x006b7361
     4d8:	616c6564 	cmnvs	ip, r4, ror #10
     4dc:	61740079 	cmnvs	r4, r9, ror r0
     4e0:	655f6b73 	ldrbvs	r6, [pc, #-2931]	; fffff975 <_heap_top+0xdffbf975>
     4e4:	5f746978 	svcpl	0x00746978
     4e8:	74697263 	strbtvc	r7, [r9], #-611	; 0xfffffd9d
     4ec:	6c616369 	stclvs	3, cr6, [r1], #-420	; 0xfffffe5c
     4f0:	656c6300 	strbvs	r6, [ip, #-768]!	; 0xfffffd00
     4f4:	74006e61 	strvc	r6, [r0], #-3681	; 0xfffff19f
     4f8:	5f6b7361 	svcpl	0x006b7361
     4fc:	00676174 	rsbeq	r6, r7, r4, ror r1
     500:	4f525245 	svcmi	0x00525245
     504:	45525f52 	ldrbmi	r5, [r2, #-3922]	; 0xfffff0ae
     508:	52554f53 	subspl	r4, r5, #332	; 0x14c
     50c:	465f4543 	ldrbmi	r4, [pc], -r3, asr #10
     510:	004c4c55 	subeq	r4, ip, r5, asr ip
     514:	6b736174 	blvs	1cd8aec <_etext+0x1cd5bbf>
     518:	746e655f 	strbtvc	r6, [lr], #-1375	; 0xfffffaa1
     51c:	635f7265 	cmpvs	pc, #1342177286	; 0x50000006
     520:	69746972 	ldmdbvs	r4!, {r1, r4, r5, r6, r8, fp, sp, lr}^
     524:	006c6163 	rsbeq	r6, ip, r3, ror #2
     528:	706d6574 	rsbvc	r6, sp, r4, ror r5
     52c:	646f6e5f 	strbtvs	r6, [pc], #-3679	; 534 <printf_dec+0x10>
     530:	75640065 	strbvc	r0, [r4, #-101]!	; 0xffffff9b
     534:	745f706d 	ldrbvc	r7, [pc], #-109	; 53c <printf_dec+0x18>
     538:	5f6b7361 	svcpl	0x006b7361
     53c:	6f666e69 	svcvs	0x00666e69
     540:	52524500 	subspl	r4, r2, #0, 10
     544:	445f524f 	ldrbmi	r5, [pc], #-591	; 54c <printf_dec+0x28>
     548:	67004c45 	strvs	r4, [r0, -r5, asr #24]
     54c:	7361745f 	cmnvc	r1, #1593835520	; 0x5f000000
     550:	61745f6b 	cmnvs	r4, fp, ror #30
     554:	00656c62 	rsbeq	r6, r5, r2, ror #24
     558:	6b736174 	blvs	1cd8b30 <_etext+0x1cd5c03>
     55c:	6d65725f 	sfmvs	f7, 2, [r5, #-380]!	; 0xfffffe84
     560:	5f65766f 	svcpl	0x0065766f
     564:	6d6f7266 	sfmvs	f7, 2, [pc, #-408]!	; 3d4 <printf_char+0x4>
     568:	6972705f 	ldmdbvs	r2!, {r0, r1, r2, r3, r4, r6, ip, sp, lr}^
     56c:	61745f6f 	cmnvs	r4, pc, ror #30
     570:	00656c62 	rsbeq	r6, r5, r2, ror #24
     574:	74696e69 	strbtvc	r6, [r9], #-3689	; 0xfffff197
     578:	7361745f 	cmnvc	r1, #1593835520	; 0x5f000000
     57c:	6f6d5f6b 	svcvs	0x006d5f6b
     580:	656c7564 	strbvs	r7, [ip, #-1380]!	; 0xfffffa9c
     584:	65766500 	ldrbvs	r6, [r6, #-1280]!	; 0xfffffb00
     588:	745f746e 	ldrbvc	r7, [pc], #-1134	; 590 <printf_dec+0x6c>
     58c:	5f657079 	svcpl	0x00657079
     590:	61740065 	cmnvs	r4, r5, rrx
     594:	725f6b73 	subsvc	r6, pc, #117760	; 0x1cc00
     598:	665f6e75 			; <UNDEFINED> instruction: 0x665f6e75
     59c:	74737269 	ldrbtvc	r7, [r3], #-617	; 0xfffffd97
     5a0:	696c7300 	stmdbvs	ip!, {r8, r9, ip, sp, lr}^
     5a4:	74006563 	strvc	r6, [r0], #-1379	; 0xfffffa9d
     5a8:	5f6b7361 	svcpl	0x006b7361
     5ac:	5f746567 	svcpl	0x00746567
     5b0:	6f666e69 	svcvs	0x00666e69
     5b4:	73617400 	cmnvc	r1, #0, 8
     5b8:	6e695f6b 	cdpvs	15, 6, cr5, cr9, cr11, {3}
     5bc:	77007469 	strvc	r7, [r0, -r9, ror #8]
     5c0:	5f746961 	svcpl	0x00746961
     5c4:	67616c66 	strbvs	r6, [r1, -r6, ror #24]!
     5c8:	7079745f 	rsbsvc	r7, r9, pc, asr r4
     5cc:	72730065 	rsbsvc	r0, r3, #101	; 0x65
     5d0:	656b2f63 	strbvs	r2, [fp, #-3939]!	; 0xfffff09d
     5d4:	6c656e72 	stclvs	14, cr6, [r5], #-456	; 0xfffffe38
     5d8:	7361742f 	cmnvc	r1, #788529152	; 0x2f000000
     5dc:	00632e6b 	rsbeq	r2, r3, fp, ror #28
     5e0:	656e5f67 	strbvs	r5, [lr, #-3943]!	; 0xfffff099
     5e4:	745f7478 	ldrbvc	r7, [pc], #-1144	; 5ec <printf_dec+0xc8>
     5e8:	006b7361 	rsbeq	r7, fp, r1, ror #6
     5ec:	6b736174 	blvs	1cd8bc4 <_etext+0x1cd5c97>
     5f0:	666e695f 			; <UNDEFINED> instruction: 0x666e695f
     5f4:	00745f6f 	rsbseq	r5, r4, pc, ror #30
     5f8:	74617473 	strbtvc	r7, [r1], #-1139	; 0xfffffb8d
     5fc:	73007375 	movwvc	r7, #885	; 0x375
     600:	6e6f6365 	cdpvs	3, 6, cr6, cr15, cr5, {3}
     604:	65007364 	strvs	r7, [r0, #-868]	; 0xfffffc9c
     608:	746e6576 	strbtvc	r6, [lr], #-1398	; 0xfffffa8a
     60c:	67736d5f 			; <UNDEFINED> instruction: 0x67736d5f
     610:	73617400 	cmnvc	r1, #0, 8
     614:	65645f6b 	strbvs	r5, [r4, #-3947]!	; 0xfffff095
     618:	5f79616c 	svcpl	0x0079616c
     61c:	656b6177 	strbvs	r6, [fp, #-375]!	; 0xfffffe89
     620:	74007075 	strvc	r7, [r0], #-117	; 0xffffff8b
     624:	5f6b7361 	svcpl	0x006b7361
     628:	65686373 	strbvs	r6, [r8, #-883]!	; 0xfffffc8d
     62c:	6e655f64 	cdpvs	15, 6, cr5, cr5, cr4, {3}
     630:	656c6261 	strbvs	r6, [ip, #-609]!	; 0xfffffd9f
     634:	73617400 	cmnvc	r1, #0, 8
     638:	65725f6b 	ldrbvs	r5, [r2, #-3947]!	; 0xfffff095
     63c:	00796461 	rsbseq	r6, r9, r1, ror #8
     640:	706d6574 	rsbvc	r6, sp, r4, ror r5
     644:	7361745f 	cmnvc	r1, #1593835520	; 0x5f000000
     648:	00705f6b 	rsbseq	r5, r0, fp, ror #30
     64c:	6b736174 	blvs	1cd8c24 <_etext+0x1cd5cf7>
     650:	6769685f 			; <UNDEFINED> instruction: 0x6769685f
     654:	74736568 	ldrbtvc	r6, [r3], #-1384	; 0xfffffa98
     658:	6165725f 	cmnvs	r5, pc, asr r2
     65c:	72007964 	andvc	r7, r0, #100, 18	; 0x190000
     660:	65757165 	ldrbvs	r7, [r5, #-357]!	; 0xfffffe9b
     664:	645f7473 	ldrbvs	r7, [pc], #-1139	; 66c <printf_dec+0x148>
     668:	665f6c65 	ldrbvs	r6, [pc], -r5, ror #24
     66c:	0067616c 	rsbeq	r6, r7, ip, ror #2
     670:	6b736174 	blvs	1cd8c48 <_etext+0x1cd5d1b>
     674:	6c65645f 	cfstrdvs	mvd6, [r5], #-380	; 0xfffffe84
     678:	5f657465 	svcpl	0x00657465
     67c:	666c6573 			; <UNDEFINED> instruction: 0x666c6573
     680:	73617400 	cmnvc	r1, #0, 8
     684:	63735f6b 	cmnvs	r3, #428	; 0x1ac
     688:	5f646568 	svcpl	0x00646568
     68c:	61736964 	cmnvs	r3, r4, ror #18
     690:	00656c62 	rsbeq	r6, r5, r2, ror #24
     694:	6b736174 	blvs	1cd8c6c <_etext+0x1cd5d3f>
     698:	7365725f 	cmnvc	r5, #-268435451	; 0xf0000005
     69c:	00656d75 	rsbeq	r6, r5, r5, ror sp
     6a0:	70737573 	rsbsvc	r7, r3, r3, ror r5
     6a4:	5f646e65 	svcpl	0x00646e65
     6a8:	00746e63 	rsbseq	r6, r4, r3, ror #28
     6ac:	6b736174 	blvs	1cd8c84 <_etext+0x1cd5d57>
     6b0:	6174735f 	cmnvs	r4, pc, asr r3
     6b4:	745f6b63 	ldrbvc	r6, [pc], #-2915	; 6bc <printf_dec+0x198>
     6b8:	635f6700 	cmpvs	pc, #0, 14
     6bc:	65727275 	ldrbvs	r7, [r2, #-629]!	; 0xfffffd8b
     6c0:	745f746e 	ldrbvc	r7, [pc], #-1134	; 6c8 <printf_dec+0x1a4>
     6c4:	006b7361 	rsbeq	r7, fp, r1, ror #6
     6c8:	6f727265 	svcvs	0x00727265
     6cc:	79745f72 	ldmdbvc	r4!, {r1, r4, r5, r6, r8, r9, sl, fp, ip, lr}^
     6d0:	655f6570 	ldrbvs	r6, [pc, #-1392]	; 168 <g_pfnVectors+0x168>
     6d4:	006d756e 	rsbeq	r7, sp, lr, ror #10
     6d8:	6b736174 	blvs	1cd8cb0 <_etext+0x1cd5d83>
     6dc:	6d65725f 	sfmvs	f7, 2, [r5, #-380]!	; 0xfffffe84
     6e0:	5f65766f 	svcpl	0x0065766f
     6e4:	6d6f7266 	sfmvs	f7, 2, [pc, #-408]!	; 554 <printf_dec+0x30>
     6e8:	6c65645f 	cfstrdvs	mvd6, [r5], #-380	; 0xfffffe84
     6ec:	6c5f7961 	mrrcvs	9, 6, r7, pc, cr1	; <UNPREDICTABLE>
     6f0:	00747369 	rsbseq	r7, r4, r9, ror #6
     6f4:	6e657665 	cdpvs	6, 6, cr7, cr5, cr5, {3}
     6f8:	00745f74 	rsbseq	r5, r4, r4, ror pc
     6fc:	75665f5f 	strbvc	r5, [r6, #-3935]!	; 0xfffff0a1
     700:	5f5f636e 	svcpl	0x005f636e
     704:	69617700 	stmdbvs	r1!, {r8, r9, sl, ip, sp, lr}^
     708:	696c5f74 	stmdbvs	ip!, {r2, r4, r5, r6, r8, r9, sl, fp, ip, lr}^
     70c:	74007473 	strvc	r7, [r0], #-1139	; 0xfffffb8d
     710:	5f6b7361 	svcpl	0x006b7361
     714:	65686373 	strbvs	r6, [r8, #-883]!	; 0xfffffc8d
     718:	5f670064 	svcpl	0x00670064
     71c:	6b736174 	blvs	1cd8cf4 <_etext+0x1cd5dc7>
     720:	6c65645f 	cfstrdvs	mvd6, [r5], #-380	; 0xfffffe84
     724:	6c5f7961 	mrrcvs	9, 6, r7, pc, cr1	; <UNPREDICTABLE>
     728:	00747369 	rsbseq	r7, r4, r9, ror #6
     72c:	6f697270 	svcvs	0x00697270
     730:	73696c5f 	cmnvc	r9, #24320	; 0x5f00
     734:	6f6e5f74 	svcvs	0x006e5f74
     738:	74006564 	strvc	r6, [r0], #-1380	; 0xfffffa9c
     73c:	5f6b7361 	svcpl	0x006b7361
     740:	65726e75 	ldrbvs	r6, [r2, #-3701]!	; 0xfffff18b
     744:	00796461 	rsbseq	r6, r9, r1, ror #8
     748:	4f525245 	svcmi	0x00525245
     74c:	49545f52 	ldmdbmi	r4, {r1, r4, r6, r8, r9, sl, fp, ip, lr}^
     750:	554f454d 	strbpl	r4, [pc, #-1357]	; 20b <g_pfnVectors+0x20b>
     754:	5f670054 	svcpl	0x00670054
     758:	6b736174 	blvs	1cd8d30 <_etext+0x1cd5e03>
     75c:	6972705f 	ldmdbvs	r2!, {r0, r1, r2, r3, r4, r6, ip, sp, lr}^
     760:	69625f6f 	stmdbvs	r2!, {r0, r1, r2, r3, r5, r6, r8, r9, sl, fp, ip, lr}^
     764:	70616d74 	rsbvc	r6, r1, r4, ror sp
     768:	73617400 	cmnvc	r1, #0, 8
     76c:	77735f6b 	ldrbvc	r5, [r3, -fp, ror #30]!
     770:	68637469 	stmdavs	r3!, {r0, r3, r5, r6, sl, ip, sp, lr}^
     774:	73617400 	cmnvc	r1, #0, 8
     778:	65645f6b 	strbvs	r5, [r4, #-3947]!	; 0xfffff095
     77c:	5f79616c 	svcpl	0x0079616c
     780:	6f6e0073 	svcvs	0x006e0073
     784:	65656e5f 	strbvs	r6, [r5, #-3679]!	; 0xfffff1a1
     788:	63735f64 	cmnvs	r3, #100, 30	; 0x190
     78c:	00646568 	rsbeq	r6, r4, r8, ror #10
     790:	6d746962 			; <UNDEFINED> instruction: 0x6d746962
     794:	745f7061 	ldrbvc	r7, [pc], #-97	; 79c <no_printk+0x8>
     798:	6e006761 	cdpvs	7, 0, cr6, cr0, cr1, {3}
     79c:	5f65646f 	svcpl	0x0065646f
     7a0:	76657270 			; <UNDEFINED> instruction: 0x76657270
     7a4:	73696c00 	cmnvc	r9, #0, 24
     7a8:	65685f74 	strbvs	r5, [r8, #-3956]!	; 0xfffff08c
     7ac:	71006461 	tstvc	r0, r1, ror #8
     7b0:	6b636975 	blvs	18dad8c <_etext+0x18d7e5f>
     7b4:	6261745f 	rsbvs	r7, r1, #1593835520	; 0x5f000000
     7b8:	7300656c 	movwvc	r6, #1388	; 0x56c
     7bc:	6b2f6372 	blvs	bd958c <_etext+0xbd665f>
     7c0:	656e7265 	strbvs	r7, [lr, #-613]!	; 0xfffffd9b
     7c4:	696c2f6c 	stmdbvs	ip!, {r2, r3, r5, r6, r8, r9, sl, fp, sp}^
     7c8:	00632e62 	rsbeq	r2, r3, r2, ror #28
     7cc:	6d746962 			; <UNDEFINED> instruction: 0x6d746962
     7d0:	735f7061 	cmpvc	pc, #97	; 0x61
     7d4:	62007465 	andvs	r7, r0, #1694498816	; 0x65000000
     7d8:	616d7469 	cmnvs	sp, r9, ror #8
     7dc:	65675f70 	strbvs	r5, [r7, #-3952]!	; 0xfffff090
     7e0:	69665f74 	stmdbvs	r6!, {r2, r4, r5, r6, r8, r9, sl, fp, ip, lr}^
     7e4:	5f747372 	svcpl	0x00747372
     7e8:	00746573 	rsbseq	r6, r4, r3, ror r5
     7ec:	6d746962 			; <UNDEFINED> instruction: 0x6d746962
     7f0:	635f7061 	cmpvs	pc, #97	; 0x61
     7f4:	7261656c 	rsbvc	r6, r1, #108, 10	; 0x1b000000
     7f8:	73696c00 	cmnvc	r9, #0, 24
     7fc:	65725f74 	ldrbvs	r5, [r2, #-3956]!	; 0xfffff08c
     800:	65766f6d 	ldrbvs	r6, [r6, #-3949]!	; 0xfffff093
     804:	74696200 	strbtvc	r6, [r9], #-512	; 0xfffffe00
     808:	5f70616d 	svcpl	0x0070616d
     80c:	6e756f63 	cdpvs	15, 7, cr6, cr5, cr3, {3}
     810:	75630074 	strbvc	r0, [r3, #-116]!	; 0xffffff8c
     814:	6f6e5f72 	svcvs	0x006e5f72
     818:	6c006564 	cfstr32vs	mvfx6, [r0], {100}	; 0x64
     81c:	5f747369 	svcpl	0x00747369
     820:	74696e69 	strbtvc	r6, [r9], #-3689	; 0xfffff197
     824:	656c6300 	strbvs	r6, [ip, #-768]!	; 0xfffffd00
     828:	70756e61 	rsbsvc	r6, r5, r1, ror #28
     82c:	74696200 	strbtvc	r6, [r9], #-512	; 0xfffffe00
     830:	5f70616d 	svcpl	0x0070616d
     834:	74696e69 	strbtvc	r6, [r9], #-3689	; 0xfffff197
     838:	73696c00 	cmnvc	r9, #0, 24
     83c:	70615f74 	rsbvc	r5, r1, r4, ror pc
     840:	646e6570 	strbtvs	r6, [lr], #-1392	; 0xfffffa90
     844:	73616c5f 	cmnvc	r1, #24320	; 0x5f00
     848:	696c0074 	stmdbvs	ip!, {r2, r4, r5, r6}^
     84c:	725f7473 	subsvc	r7, pc, #1929379840	; 0x73000000
     850:	766f6d65 	strbtvc	r6, [pc], -r5, ror #26
     854:	69665f65 	stmdbvs	r6!, {r0, r2, r5, r6, r8, r9, sl, fp, ip, lr}^
     858:	00747372 	rsbseq	r7, r4, r2, ror r3
     85c:	7473696c 	ldrbtvc	r6, [r3], #-2412	; 0xfffff694
     860:	646f6e5f 	strbtvs	r6, [pc], #-3679	; 868 <printk+0xc4>
     864:	6e695f65 	cdpvs	15, 6, cr5, cr9, cr5, {3}
     868:	6e007469 	cdpvs	4, 0, cr7, cr0, cr9, {3}
     86c:	5f747865 	svcpl	0x00747865
     870:	65646f6e 	strbvs	r6, [r4, #-3950]!	; 0xfffff092
     874:	73696c00 	cmnvc	r9, #0, 24
     878:	61745f74 	cmnvs	r4, r4, ror pc
     87c:	6c006c69 	stcvs	12, cr6, [r0], {105}	; 0x69
     880:	5f747369 	svcpl	0x00747369
     884:	6f6d6572 	svcvs	0x006d6572
     888:	615f6576 	cmpvs	pc, r6, ror r5	; <UNPREDICTABLE>
     88c:	6c006c6c 	stcvs	12, cr6, [r0], {108}	; 0x6c
     890:	5f747369 	svcpl	0x00747369
     894:	65736e69 	ldrbvs	r6, [r3, #-3689]!	; 0xfffff197
     898:	685f7472 	ldmdavs	pc, {r1, r4, r5, r6, sl, ip, sp, lr}^	; <UNPREDICTABLE>
     89c:	00646165 	rsbeq	r6, r4, r5, ror #2
     8a0:	65646f6e 	strbvs	r6, [r4, #-3950]!	; 0xfffff092
     8a4:	78656e5f 	stmdavc	r5!, {r0, r1, r2, r3, r4, r6, r9, sl, fp, sp, lr}^
     8a8:	696c0074 	stmdbvs	ip!, {r2, r4, r5, r6}^
     8ac:	635f7473 	cmpvs	pc, #1929379840	; 0x73000000
     8b0:	746e756f 	strbtvc	r7, [lr], #-1391	; 0xfffffa91
     8b4:	65766500 	ldrbvs	r6, [r6, #-1280]!	; 0xfffffb00
     8b8:	775f746e 	ldrbvc	r7, [pc, -lr, ror #8]
     8bc:	00746961 	rsbseq	r6, r4, r1, ror #18
     8c0:	6e657665 	cdpvs	6, 6, cr7, cr5, cr5, {3}
     8c4:	61775f74 	cmnvs	r7, r4, ror pc
     8c8:	635f7469 	cmpvs	pc, #1761607680	; 0x69000000
     8cc:	746e756f 	strbtvc	r7, [lr], #-1391	; 0xfffffa91
     8d0:	65766500 	ldrbvs	r6, [r6, #-1280]!	; 0xfffffb00
     8d4:	775f746e 	ldrbvc	r7, [pc, -lr, ror #8]
     8d8:	75656b61 	strbvc	r6, [r5, #-2913]!	; 0xfffff49f
     8dc:	61745f70 	cmnvs	r4, r0, ror pc
     8e0:	65006b73 	strvs	r6, [r0, #-2931]	; 0xfffff48d
     8e4:	746e6576 	strbtvc	r6, [lr], #-1398	; 0xfffffa8a
     8e8:	6d65725f 	sfmvs	f7, 2, [r5, #-380]!	; 0xfffffe84
     8ec:	5f65766f 	svcpl	0x0065766f
     8f0:	006c6c61 	rsbeq	r6, ip, r1, ror #24
     8f4:	6e657665 	cdpvs	6, 6, cr7, cr5, cr5, {3}
     8f8:	61775f74 	cmnvs	r7, r4, ror pc
     8fc:	7075656b 	rsbsvc	r6, r5, fp, ror #10
     900:	63727300 	cmnvs	r2, #0, 6
     904:	72656b2f 	rsbvc	r6, r5, #48128	; 0xbc00
     908:	2f6c656e 	svccs	0x006c656e
     90c:	6e657665 	cdpvs	6, 6, cr7, cr5, cr5, {3}
     910:	00632e74 	rsbeq	r2, r3, r4, ror lr
     914:	6e657665 	cdpvs	6, 6, cr7, cr5, cr5, {3}
     918:	65725f74 	ldrbvs	r5, [r2, #-3956]!	; 0xfffff08c
     91c:	65766f6d 	ldrbvs	r6, [r6, #-3949]!	; 0xfffff093
     920:	7361745f 	cmnvc	r1, #1593835520	; 0x5f000000
     924:	7665006b 	strbtvc	r0, [r5], -fp, rrx
     928:	5f746e65 	svcpl	0x00746e65
     92c:	74696e69 	strbtvc	r6, [r9], #-3689	; 0xfffff197
     930:	6d697400 	cfstrdvs	mvd7, [r9, #-0]
     934:	74756f65 	ldrbtvc	r6, [r5], #-3941	; 0xfffff09b
     938:	73617400 	cmnvc	r1, #0, 8
     93c:	6f635f6b 	svcvs	0x00635f6b
     940:	00746e75 	rsbseq	r6, r4, r5, ror lr
     944:	5f6d6573 	svcpl	0x006d6573
     948:	74696e69 	strbtvc	r6, [r9], #-3689	; 0xfffff197
     94c:	6d657300 	stclvs	3, cr7, [r5, #-0]
     950:	7465675f 	strbtvc	r6, [r5], #-1887	; 0xfffff8a1
     954:	666e695f 			; <UNDEFINED> instruction: 0x666e695f
     958:	6573006f 	ldrbvs	r0, [r3, #-111]!	; 0xffffff91
     95c:	63615f6d 	cmnvs	r1, #436	; 0x1b4
     960:	72697571 	rsbvc	r7, r9, #473956352	; 0x1c400000
     964:	6f6e5f65 	svcvs	0x006e5f65
     968:	6961775f 	stmdbvs	r1!, {r0, r1, r2, r3, r4, r6, r8, r9, sl, ip, sp, lr}^
     96c:	65730074 	ldrbvs	r0, [r3, #-116]!	; 0xffffff8c
     970:	65725f6d 	ldrbvs	r5, [r2, #-3949]!	; 0xfffff093
     974:	7361656c 	cmnvc	r1, #108, 10	; 0x1b000000
     978:	65730065 	ldrbvs	r0, [r3, #-101]!	; 0xffffff9b
     97c:	63615f6d 	cmnvs	r1, #436	; 0x1b4
     980:	72697571 	rsbvc	r7, r9, #473956352	; 0x1c400000
     984:	65730065 	ldrbvs	r0, [r3, #-101]!	; 0xffffff9b
     988:	00745f6d 	rsbseq	r5, r4, sp, ror #30
     98c:	5f6d6573 	svcpl	0x006d6573
     990:	6f666e69 	svcvs	0x00666e69
     994:	7700745f 	smlsdvc	r0, pc, r4, r7	; <UNPREDICTABLE>
     998:	5f746961 	svcpl	0x00746961
     99c:	6b636974 	blvs	18daf74 <_etext+0x18d8047>
     9a0:	72730073 	rsbsvc	r0, r3, #115	; 0x73
     9a4:	656b2f63 	strbvs	r2, [fp, #-3939]!	; 0xfffff09d
     9a8:	6c656e72 	stclvs	14, cr6, [r5], #-456	; 0xfffffe38
     9ac:	6d65732f 	stclvs	3, cr7, [r5, #-188]!	; 0xffffff44
     9b0:	7300632e 	movwvc	r6, #814	; 0x32e
     9b4:	745f6d65 	ldrbvc	r6, [pc], #-3429	; 9bc <memcmp+0xc>
     9b8:	6d006761 	stcvs	7, cr6, [r0, #-388]	; 0xfffffe7c
     9bc:	635f7861 	cmpvs	pc, #6356992	; 0x610000
     9c0:	746e756f 	strbtvc	r7, [lr], #-1391	; 0xfffffa91
     9c4:	6d657300 	stclvs	3, cr7, [r5, #-0]
     9c8:	666e695f 			; <UNDEFINED> instruction: 0x666e695f
     9cc:	61745f6f 	cmnvs	r4, pc, ror #30
     9d0:	65730067 	ldrbvs	r0, [r3, #-103]!	; 0xffffff99
     9d4:	65645f6d 	strbvs	r5, [r4, #-3949]!	; 0xfffff093
     9d8:	726f7473 	rsbvc	r7, pc, #1929379840	; 0x73000000
     9dc:	626d0079 	rsbvs	r0, sp, #121	; 0x79
     9e0:	675f786f 	ldrbvs	r7, [pc, -pc, ror #16]
     9e4:	6d007465 	cfstrsvs	mvf7, [r0, #-404]	; 0xfffffe6c
     9e8:	5f786f62 	svcpl	0x00786f62
     9ec:	5f746567 	svcpl	0x00746567
     9f0:	775f6f6e 	ldrbvc	r6, [pc, -lr, ror #30]
     9f4:	00746961 	rsbseq	r6, r4, r1, ror #18
     9f8:	2f637273 	svccs	0x00637273
     9fc:	6e72656b 	cdpvs	5, 7, cr6, cr2, cr11, {3}
     a00:	6d2f6c65 	stcvs	12, cr6, [pc, #-404]!	; 874 <printk+0xd0>
     a04:	626c6961 	rsbvs	r6, ip, #1589248	; 0x184000
     a08:	632e786f 			; <UNDEFINED> instruction: 0x632e786f
     a0c:	61657200 	cmnvs	r5, r0, lsl #4
     a10:	626d0064 	rsbvs	r0, sp, #100	; 0x64
     a14:	745f786f 	ldrbvc	r7, [pc], #-2159	; a1c <strcmp+0xc>
     a18:	6d006761 	stcvs	7, cr6, [r0, #-388]	; 0xfffffe7c
     a1c:	5f786f62 	svcpl	0x00786f62
     a20:	5f746567 	svcpl	0x00746567
     a24:	6f666e69 	svcvs	0x00666e69
     a28:	6f626d00 	svcvs	0x00626d00
     a2c:	6e695f78 	mcrvs	15, 3, r5, cr9, cr8, {3}
     a30:	745f6f66 	ldrbvc	r6, [pc], #-3942	; a38 <strcmp+0x28>
     a34:	6d006761 	stcvs	7, cr6, [r0, #-388]	; 0xfffffe7c
     a38:	5f786f62 	svcpl	0x00786f62
     a3c:	74736564 	ldrbtvc	r6, [r3], #-1380	; 0xfffffa9c
     a40:	0079726f 	rsbseq	r7, r9, pc, ror #4
     a44:	786f626d 	stmdavc	pc!, {r0, r2, r3, r5, r6, r9, sp, lr}^	; <UNPREDICTABLE>
     a48:	666e695f 			; <UNDEFINED> instruction: 0x666e695f
     a4c:	00745f6f 	rsbseq	r5, r4, pc, ror #30
     a50:	786f626d 	stmdavc	pc!, {r0, r2, r3, r5, r6, r9, sp, lr}^	; <UNPREDICTABLE>
     a54:	6d00745f 	cfstrsvs	mvf7, [r0, #-380]	; 0xfffffe84
     a58:	00786f62 	rsbseq	r6, r8, r2, ror #30
     a5c:	69746f6e 	ldmdbvs	r4!, {r1, r2, r3, r5, r6, r8, r9, sl, fp, sp, lr}^
     a60:	6f5f7966 	svcvs	0x005f7966
     a64:	69746970 	ldmdbvs	r4!, {r4, r5, r6, r8, fp, sp, lr}^
     a68:	6d006e6f 	stcvs	14, cr6, [r0, #-444]	; 0xfffffe44
     a6c:	5f786f62 	svcpl	0x00786f62
     a70:	646e6573 	strbtvs	r6, [lr], #-1395	; 0xfffffa8d
     a74:	69727700 	ldmdbvs	r2!, {r8, r9, sl, ip, sp, lr}^
     a78:	6d006574 	cfstr32vs	mvfx6, [r0, #-464]	; 0xfffffe30
     a7c:	5f786f62 	svcpl	0x00786f62
     a80:	74696e69 	strbtvc	r6, [r9], #-3689	; 0xfffff197
     a84:	6f626d00 	svcvs	0x00626d00
     a88:	6c665f78 	stclvs	15, cr5, [r6], #-480	; 0xfffffe20
     a8c:	00687375 	rsbeq	r7, r8, r5, ror r3
     a90:	5f67736d 	svcpl	0x0067736d
     a94:	66667562 	strbtvs	r7, [r6], -r2, ror #10
     a98:	6d007265 	sfmvs	f7, 4, [r0, #-404]	; 0xfffffe6c
     a9c:	625f6d65 	subsvs	r6, pc, #6464	; 0x1940
     aa0:	6b636f6c 	blvs	18dc858 <_etext+0x18d992b>
     aa4:	6761745f 			; <UNDEFINED> instruction: 0x6761745f
     aa8:	6d656d00 	stclvs	13, cr6, [r5, #-0]
     aac:	6f6c625f 	svcvs	0x006c625f
     ab0:	615f6b63 	cmpvs	pc, r3, ror #22
     ab4:	636f6c6c 	cmnvs	pc, #108, 24	; 0x6c00
     ab8:	5f6f6e5f 	svcpl	0x006f6e5f
     abc:	74696177 	strbtvc	r6, [r9], #-375	; 0xfffffe89
     ac0:	6d656d00 	stclvs	13, cr6, [r5, #-0]
     ac4:	6f6c625f 	svcvs	0x006c625f
     ac8:	695f6b63 	ldmdbvs	pc, {r0, r1, r5, r6, r8, r9, fp, sp, lr}^	; <UNPREDICTABLE>
     acc:	5f6f666e 	svcpl	0x006f666e
     ad0:	00676174 	rsbeq	r6, r7, r4, ror r1
     ad4:	5f6d656d 	svcpl	0x006d656d
     ad8:	636f6c62 	cmnvs	pc, #25088	; 0x6200
     adc:	6e655f6b 	cdpvs	15, 6, cr5, cr5, cr11, {3}
     ae0:	6c620064 	stclvs	0, cr0, [r2], #-400	; 0xfffffe70
     ae4:	5f6b636f 	svcpl	0x006b636f
     ae8:	657a6973 	ldrbvs	r6, [sl, #-2419]!	; 0xfffff68d
     aec:	6d656d00 	stclvs	13, cr6, [r5, #-0]
     af0:	6f6c625f 	svcvs	0x006c625f
     af4:	695f6b63 	ldmdbvs	pc, {r0, r1, r5, r6, r8, r9, fp, sp, lr}^	; <UNPREDICTABLE>
     af8:	5f6f666e 	svcpl	0x006f666e
     afc:	656d0074 	strbvs	r0, [sp, #-116]!	; 0xffffff8c
     b00:	6c625f6d 	stclvs	15, cr5, [r2], #-436	; 0xfffffe4c
     b04:	5f6b636f 	svcpl	0x006b636f
     b08:	5f746567 	svcpl	0x00746567
     b0c:	6f666e69 	svcvs	0x00666e69
     b10:	6f6c6200 	svcvs	0x006c6200
     b14:	6c5f6b63 	mrrcvs	11, 6, r6, pc, cr3	; <UNPREDICTABLE>
     b18:	00747369 	rsbseq	r7, r4, r9, ror #6
     b1c:	5f6d656d 	svcpl	0x006d656d
     b20:	636f6c62 	cmnvs	pc, #25088	; 0x6200
     b24:	72665f6b 	rsbvc	r5, r6, #428	; 0x1ac
     b28:	6d006565 	cfstr32vs	mvfx6, [r0, #-404]	; 0xfffffe6c
     b2c:	625f6d65 	subsvs	r6, pc, #6464	; 0x1940
     b30:	6b636f6c 	blvs	18dc8e8 <_etext+0x18d99bb>
     b34:	6c6c615f 	stfvse	f6, [ip], #-380	; 0xfffffe84
     b38:	6d00636f 	stcvs	3, cr6, [r0, #-444]	; 0xfffffe44
     b3c:	625f6d65 	subsvs	r6, pc, #6464	; 0x1940
     b40:	6b636f6c 	blvs	18dc8f8 <_etext+0x18d99cb>
     b44:	6174735f 	cmnvs	r4, pc, asr r3
     b48:	6d007472 	cfstrsvs	mvf7, [r0, #-456]	; 0xfffffe38
     b4c:	625f6d65 	subsvs	r6, pc, #6464	; 0x1940
     b50:	6b636f6c 	blvs	18dc908 <_etext+0x18d99db>
     b54:	6d656d00 	stclvs	13, cr6, [r5, #-0]
     b58:	6f6c625f 	svcvs	0x006c625f
     b5c:	745f6b63 	ldrbvc	r6, [pc], #-2915	; b64 <strtoul+0xa0>
     b60:	6f6c6200 	svcvs	0x006c6200
     b64:	635f6b63 	cmpvs	pc, #101376	; 0x18c00
     b68:	6d00746e 	cfstrsvs	mvf7, [r0, #-440]	; 0xfffffe48
     b6c:	625f6d65 	subsvs	r6, pc, #6464	; 0x1940
     b70:	6b636f6c 	blvs	18dc928 <_etext+0x18d99fb>
     b74:	7365645f 	cmnvc	r5, #1593835520	; 0x5f000000
     b78:	79726f74 	ldmdbvc	r2!, {r2, r4, r5, r6, r8, r9, sl, fp, sp, lr}^
     b7c:	63727300 	cmnvs	r2, #0, 6
     b80:	72656b2f 	rsbvc	r6, r5, #48128	; 0xbc00
     b84:	2f6c656e 	svccs	0x006c656e
     b88:	626d656d 	rsbvs	r6, sp, #457179136	; 0x1b400000
     b8c:	6b636f6c 	blvs	18dc944 <_etext+0x18d9a17>
     b90:	6d00632e 	stcvs	3, cr6, [r0, #-184]	; 0xffffff48
     b94:	625f6d65 	subsvs	r6, pc, #6464	; 0x1940
     b98:	6b636f6c 	blvs	18dc950 <_etext+0x18d9a23>
     b9c:	696e695f 	stmdbvs	lr!, {r0, r1, r2, r3, r4, r6, r8, fp, sp, lr}^
     ba0:	49540074 	ldmdbmi	r4, {r2, r4, r5, r6}^
     ba4:	5f52454d 	svcpl	0x0052454d
     ba8:	4e4e5552 	mcrmi	5, 2, r5, cr14, cr2, {2}
     bac:	00474e49 	subeq	r4, r7, r9, asr #28
     bb0:	6b6e696c 	blvs	1b9b168 <_etext+0x1b9823b>
     bb4:	646f6e5f 	strbtvs	r6, [pc], #-3679	; bbc <strtol+0x12>
     bb8:	69740065 	ldmdbvs	r4!, {r0, r2, r5, r6}^
     bbc:	5f72656d 	svcpl	0x0072656d
     bc0:	75646f6d 	strbvc	r6, [r4, #-3949]!	; 0xfffff093
     bc4:	745f656c 	ldrbvc	r6, [pc], #-1388	; bcc <strtol+0x22>
     bc8:	5f6b6369 	svcpl	0x006b6369
     bcc:	69746f6e 	ldmdbvs	r4!, {r1, r2, r3, r5, r6, r8, r9, sl, fp, sp, lr}^
     bd0:	54007966 	strpl	r7, [r0], #-2406	; 0xfffff69a
     bd4:	52454d49 	subpl	r4, r5, #4672	; 0x1240
     bd8:	5345445f 	movtpl	r4, #21599	; 0x545f
     bdc:	59524f54 	ldmdbpl	r2, {r2, r4, r6, r8, r9, sl, fp, lr}^
     be0:	74004445 	strvc	r4, [r0], #-1093	; 0xfffffbbb
     be4:	72656d69 	rsbvc	r6, r5, #6720	; 0x1a40
     be8:	6e75665f 	mrcvs	6, 3, r6, cr5, cr15, {2}
     bec:	6f630063 	svcvs	0x00630063
     bf0:	6769666e 	strbvs	r6, [r9, -lr, ror #12]!
     bf4:	6d697400 	cfstrdvs	mvd7, [r9, #-0]
     bf8:	54007265 	strpl	r7, [r0], #-613	; 0xfffffd9b
     bfc:	52454d49 	subpl	r4, r5, #4672	; 0x1240
     c00:	4552435f 	ldrbmi	r4, [r2, #-863]	; 0xfffffca1
     c04:	44455441 	strbmi	r5, [r5], #-1089	; 0xfffffbbf
     c08:	72756400 	rsbsvc	r6, r5, #0, 8
     c0c:	6f697461 	svcvs	0x00697461
     c10:	69745f6e 	ldmdbvs	r4!, {r1, r2, r3, r5, r6, r8, r9, sl, fp, ip, lr}^
     c14:	00736b63 	rsbseq	r6, r3, r3, ror #22
     c18:	69745f67 	ldmdbvs	r4!, {r0, r1, r2, r5, r6, r8, r9, sl, fp, ip, lr}^
     c1c:	5f72656d 	svcpl	0x0072656d
     c20:	74666f73 	strbtvc	r6, [r6], #-3955	; 0xfffff08d
     c24:	73696c5f 	cmnvc	r9, #24320	; 0x5f00
     c28:	5f670074 	svcpl	0x00670074
     c2c:	656d6974 	strbvs	r6, [sp, #-2420]!	; 0xfffff68c
     c30:	61745f72 	cmnvs	r4, r2, ror pc
     c34:	67006b73 	smlsdxvs	r0, r3, fp, r6
     c38:	6d69745f 	cfstrdvs	mvd7, [r9, #-380]!	; 0xfffffe84
     c3c:	745f7265 	ldrbvc	r7, [pc], #-613	; c44 <strcpy+0x2a>
     c40:	5f6b7361 	svcpl	0x006b7361
     c44:	63617473 	cmnvs	r1, #1929379840	; 0x73000000
     c48:	6974006b 	ldmdbvs	r4!, {r0, r1, r3, r5, r6}^
     c4c:	5f72656d 	svcpl	0x0072656d
     c50:	74696e69 	strbtvc	r6, [r9], #-3689	; 0xfffff197
     c54:	6d697400 	cfstrdvs	mvd7, [r9, #-0]
     c58:	6c5f7265 	lfmvs	f7, 2, [pc], {101}	; 0x65
     c5c:	00747369 	rsbseq	r7, r4, r9, ror #6
     c60:	656d6974 	strbvs	r6, [sp, #-2420]!	; 0xfffff68c
     c64:	65645f72 	strbvs	r5, [r4, #-3954]!	; 0xfffff08e
     c68:	726f7473 	rsbvc	r7, pc, #1929379840	; 0x73000000
     c6c:	69740079 	ldmdbvs	r4!, {r0, r3, r4, r5, r6}^
     c70:	5f72656d 	svcpl	0x0072656d
     c74:	72617473 	rsbvc	r7, r1, #1929379840	; 0x73000000
     c78:	69740074 	ldmdbvs	r4!, {r2, r4, r5, r6}^
     c7c:	5f72656d 	svcpl	0x0072656d
     c80:	706f7473 	rsbvc	r7, pc, r3, ror r4	; <UNPREDICTABLE>
     c84:	745f6700 	ldrbvc	r6, [pc], #-1792	; c8c <get_control_reg>
     c88:	72656d69 	rsbvc	r6, r5, #6720	; 0x1a40
     c8c:	6f72705f 	svcvs	0x0072705f
     c90:	74636574 	strbtvc	r6, [r3], #-1396	; 0xfffffa8c
     c94:	6d65735f 	stclvs	3, cr7, [r5, #-380]!	; 0xfffffe84
     c98:	6d697400 	cfstrdvs	mvd7, [r9, #-0]
     c9c:	745f7265 	ldrbvc	r7, [pc], #-613	; ca4 <pendsv_handler_nosave+0x2>
     ca0:	61747300 	cmnvs	r4, r0, lsl #6
     ca4:	645f7472 	ldrbvs	r7, [pc], #-1138	; cac <pendsv_handler_nosave+0xa>
     ca8:	79616c65 	stmdbvc	r1!, {r0, r2, r5, r6, sl, fp, sp, lr}^
     cac:	6369745f 	cmnvs	r9, #1593835520	; 0x5f000000
     cb0:	7400736b 	strvc	r7, [r0], #-875	; 0xfffffc95
     cb4:	72656d69 	rsbvc	r6, r5, #6720	; 0x1a40
     cb8:	6174735f 	cmnvs	r4, pc, asr r3
     cbc:	655f6574 	ldrbvs	r6, [pc, #-1396]	; 750 <printf_dec+0x22c>
     cc0:	6d697400 	cfstrdvs	mvd7, [r9, #-0]
     cc4:	635f7265 	cmpvs	pc, #1342177286	; 0x50000006
     cc8:	5f6c6c61 	svcpl	0x006c6c61
     ccc:	636e7566 	cmnvs	lr, #427819008	; 0x19800000
     cd0:	73696c5f 	cmnvc	r9, #24320	; 0x5f00
     cd4:	5f670074 	svcpl	0x00670074
     cd8:	656d6974 	strbvs	r6, [sp, #-2420]!	; 0xfffff68c
     cdc:	61685f72 	smcvs	34290	; 0x85f2
     ce0:	6c5f6472 	cfldrdvs	mvd6, [pc], {114}	; 0x72
     ce4:	00747369 	rsbseq	r7, r4, r9, ror #6
     ce8:	2f637273 	svccs	0x00637273
     cec:	6e72656b 	cdpvs	5, 7, cr6, cr2, cr11, {3}
     cf0:	742f6c65 	strtvc	r6, [pc], #-3173	; cf8 <task_init+0xe>
     cf4:	72656d69 	rsbvc	r6, r5, #6720	; 0x1a40
     cf8:	5400632e 	strpl	r6, [r0], #-814	; 0xfffffcd2
     cfc:	52454d49 	subpl	r4, r5, #4672	; 0x1240
     d00:	4f54535f 	svcmi	0x0054535f
     d04:	44455050 	strbmi	r5, [r5], #-80	; 0xffffffb0
     d08:	745f6700 	ldrbvc	r6, [pc], #-1792	; d10 <task_init+0x26>
     d0c:	72656d69 	rsbvc	r6, r5, #6720	; 0x1a40
     d10:	6369745f 	cmnvs	r9, #1593835520	; 0x5f000000
     d14:	65735f6b 	ldrbvs	r5, [r3, #-3947]!	; 0xfffff095
     d18:	6974006d 	ldmdbvs	r4!, {r0, r2, r3, r5, r6}^
     d1c:	5f72656d 	svcpl	0x0072656d
     d20:	00676174 	rsbeq	r6, r7, r4, ror r1
     d24:	656d6974 	strbvs	r6, [sp, #-2420]!	; 0xfffff68c
     d28:	6f735f72 	svcvs	0x00735f72
     d2c:	745f7466 	ldrbvc	r7, [pc], #-1126	; d34 <task_init+0x4a>
     d30:	006b7361 	rsbeq	r7, fp, r1, ror #6
     d34:	454d4954 	strbmi	r4, [sp, #-2388]	; 0xfffff6ac
     d38:	54535f52 	ldrbpl	r5, [r3], #-3922	; 0xfffff0ae
     d3c:	45545241 	ldrbmi	r5, [r4, #-577]	; 0xfffffdbf
     d40:	69740044 	ldmdbvs	r4!, {r2, r6}^
     d44:	5f72656d 	svcpl	0x0072656d
     d48:	74617473 	strbtvc	r7, [r1], #-1139	; 0xfffffb8d
     d4c:	69740065 	ldmdbvs	r4!, {r0, r2, r5, r6}^
     d50:	5f72656d 	svcpl	0x0072656d
     d54:	75646f6d 	strbvc	r6, [r4, #-3949]!	; 0xfffff093
     d58:	695f656c 	ldmdbvs	pc, {r2, r3, r5, r6, r8, sl, sp, lr}^	; <UNPREDICTABLE>
     d5c:	0074696e 	rsbseq	r6, r4, lr, ror #18
     d60:	656e776f 	strbvs	r7, [lr, #-1903]!	; 0xfffff891
     d64:	72705f72 	rsbsvc	r5, r0, #456	; 0x1c8
     d68:	6d006f69 	stcvs	15, cr6, [r0, #-420]	; 0xfffffe5c
     d6c:	78657475 	stmdavc	r5!, {r0, r2, r4, r5, r6, sl, ip, sp, lr}^
     d70:	7365645f 	cmnvc	r5, #1593835520	; 0x5f000000
     d74:	79726f74 	ldmdbvc	r2!, {r2, r4, r5, r6, r8, r9, sl, fp, sp, lr}^
     d78:	74756d00 	ldrbtvc	r6, [r5], #-3328	; 0xfffff300
     d7c:	745f7865 	ldrbvc	r7, [pc], #-2149	; d84 <task_init+0x9a>
     d80:	6d006761 	stcvs	7, cr6, [r0, #-388]	; 0xfffffe7c
     d84:	78657475 	stmdavc	r5!, {r0, r2, r4, r5, r6, sl, ip, sp, lr}^
     d88:	636f6c5f 	cmnvs	pc, #24320	; 0x5f00
     d8c:	6f6e5f6b 	svcvs	0x006e5f6b
     d90:	6961775f 	stmdbvs	r1!, {r0, r1, r2, r3, r4, r6, r8, r9, sl, ip, sp, lr}^
     d94:	756d0074 	strbvc	r0, [sp, #-116]!	; 0xffffff8c
     d98:	5f786574 	svcpl	0x00786574
     d9c:	6f666e69 	svcvs	0x00666e69
     da0:	6761745f 			; <UNDEFINED> instruction: 0x6761745f
     da4:	636f6c00 	cmnvs	pc, #0, 24
     da8:	6f635f6b 	svcvs	0x00635f6b
     dac:	00746e75 	rsbseq	r6, r4, r5, ror lr
     db0:	6574756d 	ldrbvs	r7, [r4, #-1389]!	; 0xfffffa93
     db4:	6e695f78 	mcrvs	15, 3, r5, cr9, cr8, {3}
     db8:	6d007469 	cfstrsvs	mvf7, [r0, #-420]	; 0xfffffe5c
     dbc:	78657475 	stmdavc	r5!, {r0, r2, r4, r5, r6, sl, ip, sp, lr}^
     dc0:	636f6c5f 	cmnvs	pc, #24320	; 0x5f00
     dc4:	6e69006b 	cdpvs	0, 6, cr0, cr9, cr11, {3}
     dc8:	705f6568 	subsvc	r6, pc, r8, ror #10
     dcc:	006f6972 	rsbeq	r6, pc, r2, ror r9	; <UNPREDICTABLE>
     dd0:	656e776f 	strbvs	r7, [lr, #-1903]!	; 0xfffff891
     dd4:	776f0072 			; <UNDEFINED> instruction: 0x776f0072
     dd8:	5f72656e 	svcpl	0x0072656e
     ddc:	6769726f 	strbvs	r7, [r9, -pc, ror #4]!
     de0:	6c616e69 	stclvs	14, cr6, [r1], #-420	; 0xfffffe5c
     de4:	6972705f 	ldmdbvs	r2!, {r0, r1, r2, r3, r4, r6, ip, sp, lr}^
     de8:	756d006f 	strbvc	r0, [sp, #-111]!	; 0xffffff91
     dec:	5f786574 	svcpl	0x00786574
     df0:	5f746567 	svcpl	0x00746567
     df4:	6f666e69 	svcvs	0x00666e69
     df8:	74756d00 	ldrbtvc	r6, [r5], #-3328	; 0xfffff300
     dfc:	745f7865 	ldrbvc	r7, [pc], #-2149	; e04 <task_init+0x11a>
     e00:	63727300 	cmnvs	r2, #0, 6
     e04:	72656b2f 	rsbvc	r6, r5, #48128	; 0xbc00
     e08:	2f6c656e 	svccs	0x006c656e
     e0c:	6574756d 	ldrbvs	r7, [r4, #-1389]!	; 0xfffffa93
     e10:	00632e78 	rsbeq	r2, r3, r8, ror lr
     e14:	6574756d 	ldrbvs	r7, [r4, #-1389]!	; 0xfffffa93
     e18:	6f6c0078 	svcvs	0x006c0078
     e1c:	64656b63 	strbtvs	r6, [r5], #-2915	; 0xfffff49d
     e20:	756f635f 	strbvc	r6, [pc, #-863]!	; ac9 <strtoul+0x5>
     e24:	6d00746e 	cfstrsvs	mvf7, [r0, #-440]	; 0xfffffe48
     e28:	78657475 	stmdavc	r5!, {r0, r2, r4, r5, r6, sl, ip, sp, lr}^
     e2c:	6c6e755f 	cfstr64vs	mvdx7, [lr], #-380	; 0xfffffe84
     e30:	006b636f 	rsbeq	r6, fp, pc, ror #6
     e34:	6574756d 	ldrbvs	r7, [r4, #-1389]!	; 0xfffffa93
     e38:	6e695f78 	mcrvs	15, 3, r5, cr9, cr8, {3}
     e3c:	745f6f66 	ldrbvc	r6, [pc], #-3942	; e44 <task_init+0x15a>
     e40:	616c6600 	cmnvs	ip, r0, lsl #12
     e44:	72675f67 	rsbvc	r5, r7, #412	; 0x19c
     e48:	5f70756f 	svcpl	0x0070756f
     e4c:	74736564 	ldrbtvc	r6, [r3], #-1380	; 0xfffffa9c
     e50:	0079726f 	rsbseq	r7, r9, pc, ror #4
     e54:	67616c66 	strbvs	r6, [r1, -r6, ror #24]!
     e58:	6f72675f 	svcvs	0x0072675f
     e5c:	6e5f7075 	mrcvs	0, 2, r7, cr15, cr5, {3}
     e60:	6669746f 	strbtvs	r7, [r9], -pc, ror #8
     e64:	61770079 	cmnvs	r7, r9, ror r0
     e68:	745f7469 	ldrbvc	r7, [pc], #-1129	; e70 <task_sched+0x14>
     e6c:	00657079 	rsbeq	r7, r5, r9, ror r0
     e70:	615f7369 	cmpvs	pc, r9, ror #6
     e74:	72006c6c 	andvc	r6, r0, #108, 24	; 0x6c00
     e78:	6c757365 	ldclvs	3, cr7, [r5], #-404	; 0xfffffe6c
     e7c:	6c665f74 	stclvs	15, cr5, [r6], #-464	; 0xfffffe30
     e80:	66006761 	strvs	r6, [r0], -r1, ror #14
     e84:	5f67616c 	svcpl	0x0067616c
     e88:	756f7267 	strbvc	r7, [pc, #-615]!	; c29 <strcpy+0xf>
     e8c:	61745f70 	cmnvs	r4, r0, ror pc
     e90:	73690067 	cmnvc	r9, #103	; 0x67
     e94:	7465735f 	strbtvc	r7, [r5], #-863	; 0xfffffca1
     e98:	6c616300 	stclvs	3, cr6, [r1], #-0
     e9c:	616c665f 	cmnvs	ip, pc, asr r6
     ea0:	6c660067 	stclvs	0, cr0, [r6], #-412	; 0xfffffe64
     ea4:	675f6761 	ldrbvs	r6, [pc, -r1, ror #14]
     ea8:	70756f72 	rsbsvc	r6, r5, r2, ror pc
     eac:	696e695f 	stmdbvs	lr!, {r0, r1, r2, r3, r4, r6, r8, fp, sp, lr}^
     eb0:	6c660074 	stclvs	0, cr0, [r6], #-464	; 0xfffffe30
     eb4:	675f6761 	ldrbvs	r6, [pc, -r1, ror #14]
     eb8:	70756f72 	rsbsvc	r6, r5, r2, ror pc
     ebc:	7200745f 	andvc	r7, r0, #1593835520	; 0x5f000000
     ec0:	65757165 	ldrbvs	r7, [r5, #-357]!	; 0xfffffe9b
     ec4:	665f7473 			; <UNDEFINED> instruction: 0x665f7473
     ec8:	0067616c 	rsbeq	r6, r7, ip, ror #2
     ecc:	2f637273 	svccs	0x00637273
     ed0:	6e72656b 	cdpvs	5, 7, cr6, cr2, cr11, {3}
     ed4:	662f6c65 	strtvs	r6, [pc], -r5, ror #24
     ed8:	5f67616c 	svcpl	0x0067616c
     edc:	756f7267 	strbvc	r7, [pc, #-615]!	; c7d <get_psp+0x3>
     ee0:	00632e70 	rsbeq	r2, r3, r0, ror lr
     ee4:	67616c66 	strbvs	r6, [r1, -r6, ror #24]!
     ee8:	6f72675f 	svcvs	0x0072675f
     eec:	695f7075 	ldmdbvs	pc, {r0, r2, r4, r5, r6, ip, sp, lr}^	; <UNPREDICTABLE>
     ef0:	5f6f666e 	svcpl	0x006f666e
     ef4:	73690074 	cmnvc	r9, #116	; 0x74
     ef8:	6e6f635f 	mcrvs	3, 3, r6, cr15, cr15, {2}
     efc:	656d7573 	strbvs	r7, [sp, #-1395]!	; 0xfffffa8d
     f00:	616c6600 	cmnvs	ip, r0, lsl #12
     f04:	72675f67 	rsbvc	r5, r7, #412	; 0x19c
     f08:	5f70756f 	svcpl	0x0070756f
     f0c:	63656863 	cmnvs	r5, #6488064	; 0x630000
     f10:	6e615f6b 	cdpvs	15, 6, cr5, cr1, cr11, {3}
     f14:	6f635f64 	svcvs	0x00635f64
     f18:	6d75736e 	ldclvs	3, cr7, [r5, #-440]!	; 0xfffffe48
     f1c:	6c660065 	stclvs	0, cr0, [r6], #-404	; 0xfffffe6c
     f20:	675f6761 	ldrbvs	r6, [pc, -r1, ror #14]
     f24:	70756f72 	rsbsvc	r6, r5, r2, ror pc
     f28:	616c6600 	cmnvs	ip, r0, lsl #12
     f2c:	72675f67 	rsbvc	r5, r7, #412	; 0x19c
     f30:	5f70756f 	svcpl	0x0070756f
     f34:	6f666e69 	svcvs	0x00666e69
     f38:	6761745f 			; <UNDEFINED> instruction: 0x6761745f
     f3c:	616c6600 	cmnvs	ip, r0, lsl #12
     f40:	72675f67 	rsbvc	r5, r7, #412	; 0x19c
     f44:	5f70756f 	svcpl	0x0070756f
     f48:	5f746567 	svcpl	0x00746567
     f4c:	6f666e69 	svcvs	0x00666e69
     f50:	616c6600 	cmnvs	ip, r0, lsl #12
     f54:	72675f67 	rsbvc	r5, r7, #412	; 0x19c
     f58:	5f70756f 	svcpl	0x0070756f
     f5c:	775f6f6e 	ldrbvc	r6, [pc, -lr, ror #30]
     f60:	5f746961 	svcpl	0x00746961
     f64:	00746567 	rsbseq	r6, r4, r7, ror #10
     f68:	5f637273 	svcpl	0x00637273
     f6c:	67616c66 	strbvs	r6, [r1, -r6, ror #24]!
     f70:	616c6600 	cmnvs	ip, r0, lsl #12
     f74:	72675f67 	rsbvc	r5, r7, #412	; 0x19c
     f78:	5f70756f 	svcpl	0x0070756f
     f7c:	74696177 	strbtvc	r6, [r9], #-375	; 0xfffffe89
     f80:	73617400 	cmnvc	r1, #0, 8
     f84:	735f346b 	cmpvc	pc, #1795162112	; 0x6b000000
     f88:	74006b74 	strvc	r6, [r0], #-2932	; 0xfffff48c
     f8c:	316b7361 	cmncc	fp, r1, ror #6
     f90:	6b74735f 	blvs	1d1dd14 <_etext+0x1d1ade7>
     f94:	73617400 	cmnvc	r1, #0, 8
     f98:	655f346b 	ldrbvs	r3, [pc, #-1131]	; b35 <strtoul+0x71>
     f9c:	7972746e 	ldmdbvc	r2!, {r1, r2, r3, r5, r6, sl, ip, sp, lr}^
     fa0:	62655f00 	rsbvs	r5, r5, #0, 30
     fa4:	74007373 	strvc	r7, [r0], #-883	; 0xfffffc8d
     fa8:	326b7361 	rsbcc	r7, fp, #-2080374783	; 0x84000001
     fac:	73617400 	cmnvc	r1, #0, 8
     fb0:	735f326b 	cmpvc	pc, #-1342177274	; 0xb0000006
     fb4:	6d006b74 	vstrvs	d6, [r0, #-464]	; 0xfffffe30
     fb8:	006e6961 	rsbeq	r6, lr, r1, ror #18
     fbc:	6b736174 	blvs	1cd9594 <_etext+0x1cd6667>
     fc0:	6e655f33 	mcrvs	15, 3, r5, cr5, cr3, {1}
     fc4:	00797274 	rsbseq	r7, r9, r4, ror r2
     fc8:	75736572 	ldrbvc	r6, [r3, #-1394]!	; 0xfffffa8e
     fcc:	665f746c 	ldrbvs	r7, [pc], -ip, ror #8
     fd0:	7367616c 	cmnvc	r7, #108, 2
     fd4:	73617400 	cmnvc	r1, #0, 8
     fd8:	655f326b 	ldrbvs	r3, [pc, #-619]	; d75 <task_init+0x8b>
     fdc:	7972746e 	ldmdbvc	r2!, {r1, r2, r3, r5, r6, sl, ip, sp, lr}^
     fe0:	73617400 	cmnvc	r1, #0, 8
     fe4:	7400316b 	strvc	r3, [r0], #-363	; 0xfffffe95
     fe8:	336b7361 	cmncc	fp, #-2080374783	; 0x84000001
     fec:	73617400 	cmnvc	r1, #0, 8
     ff0:	6300346b 	movwvs	r3, #1131	; 0x46b
     ff4:	7261656c 	rsbvc	r6, r1, #108, 10	; 0x1b000000
     ff8:	7373625f 	cmnvc	r3, #-268435451	; 0xf0000005
     ffc:	73617400 	cmnvc	r1, #0, 8
    1000:	735f336b 	cmpvc	pc, #-1409286143	; 0xac000001
    1004:	73006b74 	movwvc	r6, #2932	; 0xb74
    1008:	6d2f6372 	stcvs	3, cr6, [pc, #-456]!	; e48 <task_init+0x15e>
    100c:	2e6e6961 	vnmulcs.f16	s13, s28, s3	; <UNPREDICTABLE>
    1010:	61740063 	cmnvs	r4, r3, rrx
    1014:	5f316b73 	svcpl	0x00316b73
    1018:	72746e65 	rsbsvc	r6, r4, #1616	; 0x650
    101c:	72730079 	rsbsvc	r0, r3, #121	; 0x79
    1020:	65742f63 	ldrbvs	r2, [r4, #-3939]!	; 0xfffff09d
    1024:	61637473 	smcvs	14147	; 0x3743
    1028:	742f6573 	strtvc	r6, [pc], #-1395	; 1030 <task_system_tick_handler+0xe2>
    102c:	63747365 	cmnvs	r4, #-1811939327	; 0x94000001
    1030:	2e657361 	cdpcs	3, 6, cr7, cr5, cr1, {3}
    1034:	65740063 	ldrbvs	r0, [r4, #-99]!	; 0xffffff9d
    1038:	61637473 	smcvs	14147	; 0x3743
    103c:	Address 0x000000000000103c is out of bounds.


Disassembly of section .comment:

00000000 <.comment>:
   0:	3a434347 	bcc	10d0d24 <_etext+0x10cddf7>
   4:	4e472820 	cdpmi	8, 4, cr2, cr7, cr0, {1}
   8:	6f542055 	svcvs	0x00542055
   c:	68636c6f 	stmdavs	r3!, {r0, r1, r2, r3, r5, r6, sl, fp, sp, lr}^
  10:	206e6961 	rsbcs	r6, lr, r1, ror #18
  14:	20726f66 	rsbscs	r6, r2, r6, ror #30
  18:	20656874 	rsbcs	r6, r5, r4, ror r8
  1c:	72702d41 	rsbsvc	r2, r0, #4160	; 0x1040
  20:	6c69666f 	stclvs	6, cr6, [r9], #-444	; 0xfffffe44
  24:	72412065 	subvc	r2, r1, #101	; 0x65
  28:	74696863 	strbtvc	r6, [r9], #-2147	; 0xfffff79d
  2c:	75746365 	ldrbvc	r6, [r4, #-869]!	; 0xfffffc9b
  30:	31206572 			; <UNDEFINED> instruction: 0x31206572
  34:	2d332e30 	ldccs	14, cr2, [r3, #-192]!	; 0xffffff40
  38:	31323032 	teqcc	r2, r2, lsr r0
  3c:	2037302e 	eorscs	r3, r7, lr, lsr #32
  40:	6d726128 	ldfvse	f6, [r2, #-160]!	; 0xffffff60
  44:	2e30312d 	rsfcssp	f3, f0, #5.0
  48:	29293932 	stmdbcs	r9!, {r1, r4, r5, r8, fp, ip, sp}
  4c:	2e303120 	rsfcssp	f3, f0, f0
  50:	20312e33 	eorscs	r2, r1, r3, lsr lr
  54:	31323032 	teqcc	r2, r2, lsr r0
  58:	31323630 	teqcc	r2, r0, lsr r6
	...

Disassembly of section .ARM.attributes:

00000000 <.ARM.attributes>:
   0:	00002a41 	andeq	r2, r0, r1, asr #20
   4:	61656100 	cmnvs	r5, r0, lsl #2
   8:	01006962 	tsteq	r0, r2, ror #18
   c:	00000020 	andeq	r0, r0, r0, lsr #32
  10:	4d2d3705 	stcmi	7, cr3, [sp, #-20]!	; 0xffffffec
  14:	070a0600 	streq	r0, [sl, -r0, lsl #12]
  18:	1202094d 	andne	r0, r2, #1261568	; 0x134000
  1c:	15011404 	strne	r1, [r1, #-1028]	; 0xfffffbfc
  20:	18031701 	stmdane	r3, {r0, r8, r9, sl, ip}
  24:	1e011a01 	vmlane.f32	s2, s2, s2
  28:	Address 0x0000000000000028 is out of bounds.


Disassembly of section .debug_frame:

00000000 <.debug_frame>:
       0:	0000000c 	andeq	r0, r0, ip
       4:	ffffffff 			; <UNDEFINED> instruction: 0xffffffff
       8:	7c020001 	stcvc	0, cr0, [r2], {1}
       c:	000d0c0e 	andeq	r0, sp, lr, lsl #24
      10:	00000014 	andeq	r0, r0, r4, lsl r0
      14:	00000000 	andeq	r0, r0, r0
      18:	0000026c 	andeq	r0, r0, ip, ror #4
      1c:	00000006 	andeq	r0, r0, r6
      20:	87040e41 	strhi	r0, [r4, -r1, asr #28]
      24:	070d4101 	streq	r4, [sp, -r1, lsl #2]
      28:	00000014 	andeq	r0, r0, r4, lsl r0
      2c:	00000000 	andeq	r0, r0, r0
      30:	00000272 	andeq	r0, r0, r2, ror r2
      34:	00000006 	andeq	r0, r0, r6
      38:	87040e41 	strhi	r0, [r4, -r1, asr #28]
      3c:	070d4101 	streq	r4, [sp, -r1, lsl #2]
      40:	00000018 	andeq	r0, r0, r8, lsl r0
      44:	00000000 	andeq	r0, r0, r0
      48:	00000278 	andeq	r0, r0, r8, ror r2
      4c:	00000010 	andeq	r0, r0, r0, lsl r0
      50:	87080e41 	strhi	r0, [r8, -r1, asr #28]
      54:	41018e02 	tstmi	r1, r2, lsl #28
      58:	0000070d 	andeq	r0, r0, sp, lsl #14
      5c:	0000000c 	andeq	r0, r0, ip
      60:	ffffffff 			; <UNDEFINED> instruction: 0xffffffff
      64:	7c020001 	stcvc	0, cr0, [r2], {1}
      68:	000d0c0e 	andeq	r0, sp, lr, lsl #24
      6c:	00000024 	andeq	r0, r0, r4, lsr #32
      70:	0000005c 	andeq	r0, r0, ip, asr r0
      74:	00000288 	andeq	r0, r0, r8, lsl #5
      78:	00000044 	andeq	r0, r0, r4, asr #32
      7c:	87040e41 	strhi	r0, [r4, -r1, asr #28]
      80:	180e4101 	stmdane	lr, {r0, r8, lr}
      84:	58070d41 	stmdapl	r7, {r0, r6, r8, sl, fp}
      88:	0d41040e 	cfstrdeq	mvd0, [r1, #-56]	; 0xffffffc8
      8c:	0ec7410d 	poleqs	f4, f7, #5.0
      90:	00000000 	andeq	r0, r0, r0
      94:	00000018 	andeq	r0, r0, r8, lsl r0
      98:	0000005c 	andeq	r0, r0, ip, asr r0
      9c:	000002cc 	andeq	r0, r0, ip, asr #5
      a0:	0000000c 	andeq	r0, r0, ip
      a4:	87080e41 	strhi	r0, [r8, -r1, asr #28]
      a8:	41018e02 	tstmi	r1, r2, lsl #28
      ac:	0000070d 	andeq	r0, r0, sp, lsl #14
      b0:	0000001c 	andeq	r0, r0, ip, lsl r0
      b4:	0000005c 	andeq	r0, r0, ip, asr r0
      b8:	000002d8 	ldrdeq	r0, [r0], -r8
      bc:	00000024 	andeq	r0, r0, r4, lsr #32
      c0:	87040e41 	strhi	r0, [r4, -r1, asr #28]
      c4:	070d4101 	streq	r4, [sp, -r1, lsl #2]
      c8:	410d0d49 	tstmi	sp, r9, asr #26
      cc:	00000ec7 	andeq	r0, r0, r7, asr #29
      d0:	0000000c 	andeq	r0, r0, ip
      d4:	ffffffff 			; <UNDEFINED> instruction: 0xffffffff
      d8:	7c020001 	stcvc	0, cr0, [r2], {1}
      dc:	000d0c0e 	andeq	r0, sp, lr, lsl #24
      e0:	00000024 	andeq	r0, r0, r4, lsr #32
      e4:	000000d0 	ldrdeq	r0, [r0], -r0	; <UNPREDICTABLE>
      e8:	000002fc 	strdeq	r0, [r0], -ip
      ec:	00000024 	andeq	r0, r0, r4, lsr #32
      f0:	87040e41 	strhi	r0, [r4, -r1, asr #28]
      f4:	100e4101 	andne	r4, lr, r1, lsl #2
      f8:	49070d41 	stmdbmi	r7, {r0, r6, r8, sl, fp}
      fc:	0d41040e 	cfstrdeq	mvd0, [r1, #-56]	; 0xffffffc8
     100:	0ec7410d 	poleqs	f4, f7, #5.0
     104:	00000000 	andeq	r0, r0, r0
     108:	00000024 	andeq	r0, r0, r4, lsr #32
     10c:	000000d0 	ldrdeq	r0, [r0], -r0	; <UNPREDICTABLE>
     110:	00000320 	andeq	r0, r0, r0, lsr #6
     114:	00000040 	andeq	r0, r0, r0, asr #32
     118:	87040e41 	strhi	r0, [r4, -r1, asr #28]
     11c:	180e4101 	stmdane	lr, {r0, r8, lr}
     120:	57070d41 	strpl	r0, [r7, -r1, asr #26]
     124:	0d41040e 	cfstrdeq	mvd0, [r1, #-56]	; 0xffffffc8
     128:	0ec7410d 	poleqs	f4, f7, #5.0
     12c:	00000000 	andeq	r0, r0, r0
     130:	00000024 	andeq	r0, r0, r4, lsr #32
     134:	000000d0 	ldrdeq	r0, [r0], -r0	; <UNPREDICTABLE>
     138:	00000360 	andeq	r0, r0, r0, ror #6
     13c:	00000032 	andeq	r0, r0, r2, lsr r0
     140:	87040e41 	strhi	r0, [r4, -r1, asr #28]
     144:	100e4101 	andne	r4, lr, r1, lsl #2
     148:	53070d41 	movwpl	r0, #32065	; 0x7d41
     14c:	0d41040e 	cfstrdeq	mvd0, [r1, #-56]	; 0xffffffc8
     150:	0ec7410d 	poleqs	f4, f7, #5.0
     154:	00000000 	andeq	r0, r0, r0
     158:	00000024 	andeq	r0, r0, r4, lsr #32
     15c:	000000d0 	ldrdeq	r0, [r0], -r0	; <UNPREDICTABLE>
     160:	00000392 	muleq	r0, r2, r3
     164:	0000003e 	andeq	r0, r0, lr, lsr r0
     168:	87040e41 	strhi	r0, [r4, -r1, asr #28]
     16c:	100e4101 	andne	r4, lr, r1, lsl #2
     170:	59070d41 	stmdbpl	r7, {r0, r6, r8, sl, fp}
     174:	0d41040e 	cfstrdeq	mvd0, [r1, #-56]	; 0xffffffc8
     178:	0ec7410d 	poleqs	f4, f7, #5.0
     17c:	00000000 	andeq	r0, r0, r0
     180:	00000020 	andeq	r0, r0, r0, lsr #32
     184:	000000d0 	ldrdeq	r0, [r0], -r0	; <UNPREDICTABLE>
     188:	000003d0 	ldrdeq	r0, [r0], -r0	; <UNPREDICTABLE>
     18c:	0000003a 	andeq	r0, r0, sl, lsr r0
     190:	87080e41 	strhi	r0, [r8, -r1, asr #28]
     194:	41018e02 	tstmi	r1, r2, lsl #28
     198:	0d41180e 	stcleq	8, cr1, [r1, #-56]	; 0xffffffc8
     19c:	080e5807 	stmdaeq	lr, {r0, r1, r2, fp, ip, lr}
     1a0:	000d0d41 	andeq	r0, sp, r1, asr #26
     1a4:	00000020 	andeq	r0, r0, r0, lsr #32
     1a8:	000000d0 	ldrdeq	r0, [r0], -r0	; <UNPREDICTABLE>
     1ac:	0000040a 	andeq	r0, r0, sl, lsl #8
     1b0:	00000032 	andeq	r0, r0, r2, lsr r0
     1b4:	87080e41 	strhi	r0, [r8, -r1, asr #28]
     1b8:	41018e02 	tstmi	r1, r2, lsl #28
     1bc:	0d41100e 	stcleq	0, cr1, [r1, #-56]	; 0xffffffc8
     1c0:	080e5407 	stmdaeq	lr, {r0, r1, r2, sl, ip, lr}
     1c4:	000d0d41 	andeq	r0, sp, r1, asr #26
     1c8:	00000020 	andeq	r0, r0, r0, lsr #32
     1cc:	000000d0 	ldrdeq	r0, [r0], -r0	; <UNPREDICTABLE>
     1d0:	0000043c 	andeq	r0, r0, ip, lsr r4
     1d4:	00000074 	andeq	r0, r0, r4, ror r0
     1d8:	87080e41 	strhi	r0, [r8, -r1, asr #28]
     1dc:	41018e02 	tstmi	r1, r2, lsl #28
     1e0:	0d41180e 	stcleq	8, cr1, [r1, #-56]	; 0xffffffc8
     1e4:	080e7207 	stmdaeq	lr, {r0, r1, r2, r9, ip, sp, lr}
     1e8:	000d0d41 	andeq	r0, sp, r1, asr #26
     1ec:	00000020 	andeq	r0, r0, r0, lsr #32
     1f0:	000000d0 	ldrdeq	r0, [r0], -r0	; <UNPREDICTABLE>
     1f4:	000004b0 			; <UNDEFINED> instruction: 0x000004b0
     1f8:	00000074 	andeq	r0, r0, r4, ror r0
     1fc:	87080e41 	strhi	r0, [r8, -r1, asr #28]
     200:	41018e02 	tstmi	r1, r2, lsl #28
     204:	0d41180e 	stcleq	8, cr1, [r1, #-56]	; 0xffffffc8
     208:	080e7207 	stmdaeq	lr, {r0, r1, r2, r9, ip, sp, lr}
     20c:	000d0d41 	andeq	r0, sp, r1, asr #26
     210:	00000024 	andeq	r0, r0, r4, lsr #32
     214:	000000d0 	ldrdeq	r0, [r0], -r0	; <UNPREDICTABLE>
     218:	00000524 	andeq	r0, r0, r4, lsr #10
     21c:	00000270 	andeq	r0, r0, r0, ror r2
     220:	87080e41 	strhi	r0, [r8, -r1, asr #28]
     224:	41018e02 	tstmi	r1, r2, lsl #28
     228:	0d41200e 	stcleq	0, cr2, [r1, #-56]	; 0xffffffc8
     22c:	012f0307 			; <UNDEFINED> instruction: 0x012f0307
     230:	0d41080e 	stcleq	8, cr0, [r1, #-56]	; 0xffffffc8
     234:	0000000d 	andeq	r0, r0, sp
     238:	00000030 	andeq	r0, r0, r0, lsr r0
     23c:	000000d0 	ldrdeq	r0, [r0], -r0	; <UNPREDICTABLE>
     240:	00000794 	muleq	r0, r4, r7
     244:	00000010 	andeq	r0, r0, r0, lsl r0
     248:	80100e41 	andshi	r0, r0, r1, asr #28
     24c:	82038104 	andhi	r8, r3, #4, 2
     250:	41018302 	tstmi	r1, r2, lsl #6
     254:	0587140e 	streq	r1, [r7, #1038]	; 0x40e
     258:	42070d41 	andmi	r0, r7, #4160	; 0x1040
     25c:	c7410d0d 	strbgt	r0, [r1, -sp, lsl #26]
     260:	c341100e 	movtgt	r1, #4110	; 0x100e
     264:	0ec0c1c2 	acseqdm	f4, f2
     268:	00000000 	andeq	r0, r0, r0
     26c:	00000038 	andeq	r0, r0, r8, lsr r0
     270:	000000d0 	ldrdeq	r0, [r0], -r0	; <UNPREDICTABLE>
     274:	000007a4 	andeq	r0, r0, r4, lsr #15
     278:	00000184 	andeq	r0, r0, r4, lsl #3
     27c:	80100e41 	andshi	r0, r0, r1, asr #28
     280:	82038104 	andhi	r8, r3, #4, 2
     284:	41018302 	tstmi	r1, r2, lsl #6
     288:	0687180e 	streq	r1, [r7], lr, lsl #16
     28c:	0e41058e 	cdpeq	5, 4, cr0, cr1, cr14, {4}
     290:	070d4128 	streq	r4, [sp, -r8, lsr #2]
     294:	180eb902 	stmdane	lr, {r1, r8, fp, ip, sp, pc}
     298:	420d0d41 	andmi	r0, sp, #4160	; 0x1040
     29c:	100ec7ce 	andne	ip, lr, lr, asr #15
     2a0:	c1c2c341 	bicgt	ip, r2, r1, asr #6
     2a4:	00000ec0 	andeq	r0, r0, r0, asr #29
     2a8:	00000024 	andeq	r0, r0, r4, lsr #32
     2ac:	000000d0 	ldrdeq	r0, [r0], -r0	; <UNPREDICTABLE>
     2b0:	00000928 	andeq	r0, r0, r8, lsr #18
     2b4:	00000040 	andeq	r0, r0, r0, asr #32
     2b8:	87040e41 	strhi	r0, [r4, -r1, asr #28]
     2bc:	200e4101 	andcs	r4, lr, r1, lsl #2
     2c0:	5a070d41 	bpl	1c37cc <_etext+0x1c089f>
     2c4:	0d41040e 	cfstrdeq	mvd0, [r1, #-56]	; 0xffffffc8
     2c8:	0ec7410d 	poleqs	f4, f7, #5.0
     2cc:	00000000 	andeq	r0, r0, r0
     2d0:	00000024 	andeq	r0, r0, r4, lsr #32
     2d4:	000000d0 	ldrdeq	r0, [r0], -r0	; <UNPREDICTABLE>
     2d8:	00000968 	andeq	r0, r0, r8, ror #18
     2dc:	00000048 	andeq	r0, r0, r8, asr #32
     2e0:	87040e41 	strhi	r0, [r4, -r1, asr #28]
     2e4:	280e4101 	stmdacs	lr, {r0, r8, lr}
     2e8:	5e070d41 	cdppl	13, 0, cr0, cr7, cr1, {2}
     2ec:	0d41040e 	cfstrdeq	mvd0, [r1, #-56]	; 0xffffffc8
     2f0:	0ec7410d 	poleqs	f4, f7, #5.0
     2f4:	00000000 	andeq	r0, r0, r0
     2f8:	00000024 	andeq	r0, r0, r4, lsr #32
     2fc:	000000d0 	ldrdeq	r0, [r0], -r0	; <UNPREDICTABLE>
     300:	000009b0 			; <UNDEFINED> instruction: 0x000009b0
     304:	00000060 	andeq	r0, r0, r0, rrx
     308:	87040e41 	strhi	r0, [r4, -r1, asr #28]
     30c:	280e4101 	stmdacs	lr, {r0, r8, lr}
     310:	6a070d41 	bvs	1c381c <_etext+0x1c08ef>
     314:	0d41040e 	cfstrdeq	mvd0, [r1, #-56]	; 0xffffffc8
     318:	0ec7410d 	poleqs	f4, f7, #5.0
     31c:	00000000 	andeq	r0, r0, r0
     320:	00000024 	andeq	r0, r0, r4, lsr #32
     324:	000000d0 	ldrdeq	r0, [r0], -r0	; <UNPREDICTABLE>
     328:	00000a10 	andeq	r0, r0, r0, lsl sl
     32c:	00000052 	andeq	r0, r0, r2, asr r0
     330:	87040e41 	strhi	r0, [r4, -r1, asr #28]
     334:	180e4101 	stmdane	lr, {r0, r8, lr}
     338:	63070d41 	movwvs	r0, #32065	; 0x7d41
     33c:	0d41040e 	cfstrdeq	mvd0, [r1, #-56]	; 0xffffffc8
     340:	0ec7410d 	poleqs	f4, f7, #5.0
     344:	00000000 	andeq	r0, r0, r0
     348:	00000024 	andeq	r0, r0, r4, lsr #32
     34c:	000000d0 	ldrdeq	r0, [r0], -r0	; <UNPREDICTABLE>
     350:	00000a62 	andeq	r0, r0, r2, ror #20
     354:	00000062 	andeq	r0, r0, r2, rrx
     358:	87040e41 	strhi	r0, [r4, -r1, asr #28]
     35c:	280e4101 	stmdacs	lr, {r0, r8, lr}
     360:	6b070d41 	blvs	1c386c <_etext+0x1c093f>
     364:	0d41040e 	cfstrdeq	mvd0, [r1, #-56]	; 0xffffffc8
     368:	0ec7410d 	poleqs	f4, f7, #5.0
     36c:	00000000 	andeq	r0, r0, r0
     370:	00000020 	andeq	r0, r0, r0, lsr #32
     374:	000000d0 	ldrdeq	r0, [r0], -r0	; <UNPREDICTABLE>
     378:	00000ac4 	andeq	r0, r0, r4, asr #21
     37c:	000000e6 	andeq	r0, r0, r6, ror #1
     380:	87080e41 	strhi	r0, [r8, -r1, asr #28]
     384:	41018e02 	tstmi	r1, r2, lsl #28
     388:	0d41200e 	stcleq	0, cr2, [r1, #-56]	; 0xffffffc8
     38c:	0e6e0207 	cdpeq	2, 6, cr0, cr14, cr7, {0}
     390:	0d0d4108 	stfeqs	f4, [sp, #-32]	; 0xffffffe0
     394:	00000020 	andeq	r0, r0, r0, lsr #32
     398:	000000d0 	ldrdeq	r0, [r0], -r0	; <UNPREDICTABLE>
     39c:	00000baa 	andeq	r0, r0, sl, lsr #23
     3a0:	00000046 	andeq	r0, r0, r6, asr #32
     3a4:	87080e41 	strhi	r0, [r8, -r1, asr #28]
     3a8:	41018e02 	tstmi	r1, r2, lsl #28
     3ac:	0d41180e 	stcleq	8, cr1, [r1, #-56]	; 0xffffffc8
     3b0:	080e5e07 	stmdaeq	lr, {r0, r1, r2, r9, sl, fp, ip, lr}
     3b4:	000d0d41 	andeq	r0, sp, r1, asr #26
     3b8:	00000024 	andeq	r0, r0, r4, lsr #32
     3bc:	000000d0 	ldrdeq	r0, [r0], -r0	; <UNPREDICTABLE>
     3c0:	00000bf0 	strdeq	r0, [r0], -r0	; <UNPREDICTABLE>
     3c4:	0000002a 	andeq	r0, r0, sl, lsr #32
     3c8:	87040e41 	strhi	r0, [r4, -r1, asr #28]
     3cc:	180e4101 	stmdane	lr, {r0, r8, lr}
     3d0:	4f070d41 	svcmi	0x00070d41
     3d4:	0d41040e 	cfstrdeq	mvd0, [r1, #-56]	; 0xffffffc8
     3d8:	0ec7410d 	poleqs	f4, f7, #5.0
     3dc:	00000000 	andeq	r0, r0, r0
     3e0:	00000024 	andeq	r0, r0, r4, lsr #32
     3e4:	000000d0 	ldrdeq	r0, [r0], -r0	; <UNPREDICTABLE>
     3e8:	00000c1a 	andeq	r0, r0, sl, lsl ip
     3ec:	00000042 	andeq	r0, r0, r2, asr #32
     3f0:	87040e41 	strhi	r0, [r4, -r1, asr #28]
     3f4:	180e4101 	stmdane	lr, {r0, r8, lr}
     3f8:	5b070d41 	blpl	1c3904 <_etext+0x1c09d7>
     3fc:	0d41040e 	cfstrdeq	mvd0, [r1, #-56]	; 0xffffffc8
     400:	0ec7410d 	poleqs	f4, f7, #5.0
     404:	00000000 	andeq	r0, r0, r0
     408:	0000000c 	andeq	r0, r0, ip
     40c:	ffffffff 			; <UNDEFINED> instruction: 0xffffffff
     410:	7c020001 	stcvc	0, cr0, [r2], {1}
     414:	000d0c0e 	andeq	r0, sp, lr, lsl #24
     418:	00000018 	andeq	r0, r0, r8, lsl r0
     41c:	00000408 	andeq	r0, r0, r8, lsl #8
     420:	00000ce0 	andeq	r0, r0, r0, ror #25
     424:	0000000a 	andeq	r0, r0, sl
     428:	87040e41 	strhi	r0, [r4, -r1, asr #28]
     42c:	100e4101 	andne	r4, lr, r1, lsl #2
     430:	00070d41 	andeq	r0, r7, r1, asr #26
     434:	00000020 	andeq	r0, r0, r0, lsr #32
     438:	00000408 	andeq	r0, r0, r8, lsl #8
     43c:	00000cea 	andeq	r0, r0, sl, ror #25
     440:	00000172 	andeq	r0, r0, r2, ror r1
     444:	87080e41 	strhi	r0, [r8, -r1, asr #28]
     448:	41018e02 	tstmi	r1, r2, lsl #28
     44c:	0d41180e 	stcleq	8, cr1, [r1, #-56]	; 0xffffffc8
     450:	0eab0207 	cdpeq	2, 10, cr0, cr11, cr7, {0}
     454:	0d0d4108 	stfeqs	f4, [sp, #-32]	; 0xffffffe0
     458:	00000020 	andeq	r0, r0, r0, lsr #32
     45c:	00000408 	andeq	r0, r0, r8, lsl #8
     460:	00000e5c 	andeq	r0, r0, ip, asr lr
     464:	00000050 	andeq	r0, r0, r0, asr r0
     468:	87080e41 	strhi	r0, [r8, -r1, asr #28]
     46c:	41018e02 	tstmi	r1, r2, lsl #28
     470:	0d41100e 	stcleq	0, cr1, [r1, #-56]	; 0xffffffc8
     474:	080e5d07 	stmdaeq	lr, {r0, r1, r2, r8, sl, fp, ip, lr}
     478:	000d0d41 	andeq	r0, sp, r1, asr #26
     47c:	0000001c 	andeq	r0, r0, ip, lsl r0
     480:	00000408 	andeq	r0, r0, r8, lsl #8
     484:	00000eac 	andeq	r0, r0, ip, lsr #29
     488:	00000018 	andeq	r0, r0, r8, lsl r0
     48c:	87040e41 	strhi	r0, [r4, -r1, asr #28]
     490:	070d4101 	streq	r4, [sp, -r1, lsl #2]
     494:	410d0d46 	tstmi	sp, r6, asr #26
     498:	00000ec7 	andeq	r0, r0, r7, asr #29
     49c:	00000018 	andeq	r0, r0, r8, lsl r0
     4a0:	00000408 	andeq	r0, r0, r8, lsl #8
     4a4:	00000ec4 	andeq	r0, r0, r4, asr #29
     4a8:	00000030 	andeq	r0, r0, r0, lsr r0
     4ac:	87080e41 	strhi	r0, [r8, -r1, asr #28]
     4b0:	41018e02 	tstmi	r1, r2, lsl #28
     4b4:	0000070d 	andeq	r0, r0, sp, lsl #14
     4b8:	00000020 	andeq	r0, r0, r0, lsr #32
     4bc:	00000408 	andeq	r0, r0, r8, lsl #8
     4c0:	00000ef4 	strdeq	r0, [r0], -r4
     4c4:	0000003c 	andeq	r0, r0, ip, lsr r0
     4c8:	87080e41 	strhi	r0, [r8, -r1, asr #28]
     4cc:	41018e02 	tstmi	r1, r2, lsl #28
     4d0:	0d41180e 	stcleq	8, cr1, [r1, #-56]	; 0xffffffc8
     4d4:	080e5607 	stmdaeq	lr, {r0, r1, r2, r9, sl, ip, lr}
     4d8:	000d0d41 	andeq	r0, sp, r1, asr #26
     4dc:	00000020 	andeq	r0, r0, r0, lsr #32
     4e0:	00000408 	andeq	r0, r0, r8, lsl #8
     4e4:	00000f30 	andeq	r0, r0, r0, lsr pc
     4e8:	0000001e 	andeq	r0, r0, lr, lsl r0
     4ec:	87080e41 	strhi	r0, [r8, -r1, asr #28]
     4f0:	41018e02 	tstmi	r1, r2, lsl #28
     4f4:	0d41100e 	stcleq	0, cr1, [r1, #-56]	; 0xffffffc8
     4f8:	080e4a07 	stmdaeq	lr, {r0, r1, r2, r9, fp, lr}
     4fc:	000d0d41 	andeq	r0, sp, r1, asr #26
     500:	00000020 	andeq	r0, r0, r0, lsr #32
     504:	00000408 	andeq	r0, r0, r8, lsl #8
     508:	00000f4e 	andeq	r0, r0, lr, asr #30
     50c:	000000fa 	strdeq	r0, [r0], -sl
     510:	87080e41 	strhi	r0, [r8, -r1, asr #28]
     514:	41018e02 	tstmi	r1, r2, lsl #28
     518:	0d41180e 	stcleq	8, cr1, [r1, #-56]	; 0xffffffc8
     51c:	0e710207 	cdpeq	2, 7, cr0, cr1, cr7, {0}
     520:	0d0d4108 	stfeqs	f4, [sp, #-32]	; 0xffffffe0
     524:	00000020 	andeq	r0, r0, r0, lsr #32
     528:	00000408 	andeq	r0, r0, r8, lsl #8
     52c:	00001048 	andeq	r1, r0, r8, asr #32
     530:	00000080 	andeq	r0, r0, r0, lsl #1
     534:	87080e41 	strhi	r0, [r8, -r1, asr #28]
     538:	41018e02 	tstmi	r1, r2, lsl #28
     53c:	0c41180e 	mcrreq	8, 0, r1, r1, cr14
     540:	0e6b1007 	cdpeq	0, 6, cr1, cr11, cr7, {0}
     544:	0d0d4108 	stfeqs	f4, [sp, #-32]	; 0xffffffe0
     548:	00000020 	andeq	r0, r0, r0, lsr #32
     54c:	00000408 	andeq	r0, r0, r8, lsl #8
     550:	000010c8 	andeq	r1, r0, r8, asr #1
     554:	0000001a 	andeq	r0, r0, sl, lsl r0
     558:	87080e41 	strhi	r0, [r8, -r1, asr #28]
     55c:	41018e02 	tstmi	r1, r2, lsl #28
     560:	0d41100e 	stcleq	0, cr1, [r1, #-56]	; 0xffffffc8
     564:	080e4807 	stmdaeq	lr, {r0, r1, r2, fp, lr}
     568:	000d0d41 	andeq	r0, sp, r1, asr #26
     56c:	00000020 	andeq	r0, r0, r0, lsr #32
     570:	00000408 	andeq	r0, r0, r8, lsl #8
     574:	000010e2 	andeq	r1, r0, r2, ror #1
     578:	0000001a 	andeq	r0, r0, sl, lsl r0
     57c:	87080e41 	strhi	r0, [r8, -r1, asr #28]
     580:	41018e02 	tstmi	r1, r2, lsl #28
     584:	0d41100e 	stcleq	0, cr1, [r1, #-56]	; 0xffffffc8
     588:	080e4807 	stmdaeq	lr, {r0, r1, r2, fp, lr}
     58c:	000d0d41 	andeq	r0, sp, r1, asr #26
     590:	00000020 	andeq	r0, r0, r0, lsr #32
     594:	00000408 	andeq	r0, r0, r8, lsl #8
     598:	000010fc 	strdeq	r1, [r0], -ip
     59c:	00000034 	andeq	r0, r0, r4, lsr r0
     5a0:	87080e41 	strhi	r0, [r8, -r1, asr #28]
     5a4:	41018e02 	tstmi	r1, r2, lsl #28
     5a8:	0d41100e 	stcleq	0, cr1, [r1, #-56]	; 0xffffffc8
     5ac:	080e5207 	stmdaeq	lr, {r0, r1, r2, r9, ip, lr}
     5b0:	000d0d41 	andeq	r0, sp, r1, asr #26
     5b4:	00000020 	andeq	r0, r0, r0, lsr #32
     5b8:	00000408 	andeq	r0, r0, r8, lsl #8
     5bc:	00001130 	andeq	r1, r0, r0, lsr r1
     5c0:	00000040 	andeq	r0, r0, r0, asr #32
     5c4:	87080e41 	strhi	r0, [r8, -r1, asr #28]
     5c8:	41018e02 	tstmi	r1, r2, lsl #28
     5cc:	0d41100e 	stcleq	0, cr1, [r1, #-56]	; 0xffffffc8
     5d0:	080e5807 	stmdaeq	lr, {r0, r1, r2, fp, ip, lr}
     5d4:	000d0d41 	andeq	r0, sp, r1, asr #26
     5d8:	00000020 	andeq	r0, r0, r0, lsr #32
     5dc:	00000408 	andeq	r0, r0, r8, lsl #8
     5e0:	00001170 	andeq	r1, r0, r0, ror r1
     5e4:	00000038 	andeq	r0, r0, r8, lsr r0
     5e8:	87080e41 	strhi	r0, [r8, -r1, asr #28]
     5ec:	41018e02 	tstmi	r1, r2, lsl #28
     5f0:	0d41100e 	stcleq	0, cr1, [r1, #-56]	; 0xffffffc8
     5f4:	080e5307 	stmdaeq	lr, {r0, r1, r2, r8, r9, ip, lr}
     5f8:	000d0d41 	andeq	r0, sp, r1, asr #26
     5fc:	00000020 	andeq	r0, r0, r0, lsr #32
     600:	00000408 	andeq	r0, r0, r8, lsl #8
     604:	000011a8 	andeq	r1, r0, r8, lsr #3
     608:	00000040 	andeq	r0, r0, r0, asr #32
     60c:	87080e41 	strhi	r0, [r8, -r1, asr #28]
     610:	41018e02 	tstmi	r1, r2, lsl #28
     614:	0d41100e 	stcleq	0, cr1, [r1, #-56]	; 0xffffffc8
     618:	080e5707 	stmdaeq	lr, {r0, r1, r2, r8, r9, sl, ip, lr}
     61c:	000d0d41 	andeq	r0, sp, r1, asr #26
     620:	00000020 	andeq	r0, r0, r0, lsr #32
     624:	00000408 	andeq	r0, r0, r8, lsl #8
     628:	000011e8 	andeq	r1, r0, r8, ror #3
     62c:	0000005c 	andeq	r0, r0, ip, asr r0
     630:	87080e41 	strhi	r0, [r8, -r1, asr #28]
     634:	41018e02 	tstmi	r1, r2, lsl #28
     638:	0d41100e 	stcleq	0, cr1, [r1, #-56]	; 0xffffffc8
     63c:	080e6507 	stmdaeq	lr, {r0, r1, r2, r8, sl, sp, lr}
     640:	000d0d41 	andeq	r0, sp, r1, asr #26
     644:	00000020 	andeq	r0, r0, r0, lsr #32
     648:	00000408 	andeq	r0, r0, r8, lsl #8
     64c:	00001244 	andeq	r1, r0, r4, asr #4
     650:	00000034 	andeq	r0, r0, r4, lsr r0
     654:	87080e41 	strhi	r0, [r8, -r1, asr #28]
     658:	41018e02 	tstmi	r1, r2, lsl #28
     65c:	0d41100e 	stcleq	0, cr1, [r1, #-56]	; 0xffffffc8
     660:	080e5307 	stmdaeq	lr, {r0, r1, r2, r8, r9, ip, lr}
     664:	000d0d41 	andeq	r0, sp, r1, asr #26
     668:	00000020 	andeq	r0, r0, r0, lsr #32
     66c:	00000408 	andeq	r0, r0, r8, lsl #8
     670:	00001278 	andeq	r1, r0, r8, ror r2
     674:	0000002c 	andeq	r0, r0, ip, lsr #32
     678:	87080e41 	strhi	r0, [r8, -r1, asr #28]
     67c:	41018e02 	tstmi	r1, r2, lsl #28
     680:	0d41100e 	stcleq	0, cr1, [r1, #-56]	; 0xffffffc8
     684:	080e4f07 	stmdaeq	lr, {r0, r1, r2, r8, r9, sl, fp, lr}
     688:	000d0d41 	andeq	r0, sp, r1, asr #26
     68c:	00000020 	andeq	r0, r0, r0, lsr #32
     690:	00000408 	andeq	r0, r0, r8, lsl #8
     694:	000012a4 	andeq	r1, r0, r4, lsr #5
     698:	0000005c 	andeq	r0, r0, ip, asr r0
     69c:	87080e41 	strhi	r0, [r8, -r1, asr #28]
     6a0:	41018e02 	tstmi	r1, r2, lsl #28
     6a4:	0d41180e 	stcleq	8, cr1, [r1, #-56]	; 0xffffffc8
     6a8:	080e6607 	stmdaeq	lr, {r0, r1, r2, r9, sl, sp, lr}
     6ac:	000d0d41 	andeq	r0, sp, r1, asr #26
     6b0:	00000020 	andeq	r0, r0, r0, lsr #32
     6b4:	00000408 	andeq	r0, r0, r8, lsl #8
     6b8:	00001300 	andeq	r1, r0, r0, lsl #6
     6bc:	00000050 	andeq	r0, r0, r0, asr r0
     6c0:	87080e41 	strhi	r0, [r8, -r1, asr #28]
     6c4:	41018e02 	tstmi	r1, r2, lsl #28
     6c8:	0d41180e 	stcleq	8, cr1, [r1, #-56]	; 0xffffffc8
     6cc:	080e6307 	stmdaeq	lr, {r0, r1, r2, r8, r9, sp, lr}
     6d0:	000d0d41 	andeq	r0, sp, r1, asr #26
     6d4:	00000020 	andeq	r0, r0, r0, lsr #32
     6d8:	00000408 	andeq	r0, r0, r8, lsl #8
     6dc:	00001350 	andeq	r1, r0, r0, asr r3
     6e0:	0000005c 	andeq	r0, r0, ip, asr r0
     6e4:	87080e41 	strhi	r0, [r8, -r1, asr #28]
     6e8:	41018e02 	tstmi	r1, r2, lsl #28
     6ec:	0d41100e 	stcleq	0, cr1, [r1, #-56]	; 0xffffffc8
     6f0:	080e6507 	stmdaeq	lr, {r0, r1, r2, r8, sl, sp, lr}
     6f4:	000d0d41 	andeq	r0, sp, r1, asr #26
     6f8:	00000020 	andeq	r0, r0, r0, lsr #32
     6fc:	00000408 	andeq	r0, r0, r8, lsl #8
     700:	000013ac 	andeq	r1, r0, ip, lsr #7
     704:	00000020 	andeq	r0, r0, r0, lsr #32
     708:	87080e41 	strhi	r0, [r8, -r1, asr #28]
     70c:	41018e02 	tstmi	r1, r2, lsl #28
     710:	0d41100e 	stcleq	0, cr1, [r1, #-56]	; 0xffffffc8
     714:	080e4907 	stmdaeq	lr, {r0, r1, r2, r8, fp, lr}
     718:	000d0d41 	andeq	r0, sp, r1, asr #26
     71c:	00000024 	andeq	r0, r0, r4, lsr #32
     720:	00000408 	andeq	r0, r0, r8, lsl #8
     724:	000013cc 	andeq	r1, r0, ip, asr #7
     728:	00000022 	andeq	r0, r0, r2, lsr #32
     72c:	87040e41 	strhi	r0, [r4, -r1, asr #28]
     730:	180e4101 	stmdane	lr, {r0, r8, lr}
     734:	4b070d41 	blmi	1c3c40 <_etext+0x1c0d13>
     738:	0d41040e 	cfstrdeq	mvd0, [r1, #-56]	; 0xffffffc8
     73c:	0ec7410d 	poleqs	f4, f7, #5.0
     740:	00000000 	andeq	r0, r0, r0
     744:	00000020 	andeq	r0, r0, r0, lsr #32
     748:	00000408 	andeq	r0, r0, r8, lsl #8
     74c:	000013ee 	andeq	r1, r0, lr, ror #7
     750:	0000006a 	andeq	r0, r0, sl, rrx
     754:	87080e41 	strhi	r0, [r8, -r1, asr #28]
     758:	41018e02 	tstmi	r1, r2, lsl #28
     75c:	0d41180e 	stcleq	8, cr1, [r1, #-56]	; 0xffffffc8
     760:	080e6d07 	stmdaeq	lr, {r0, r1, r2, r8, sl, fp, sp, lr}
     764:	000d0d41 	andeq	r0, sp, r1, asr #26
     768:	00000020 	andeq	r0, r0, r0, lsr #32
     76c:	00000408 	andeq	r0, r0, r8, lsl #8
     770:	00001458 	andeq	r1, r0, r8, asr r4
     774:	00000024 	andeq	r0, r0, r4, lsr #32
     778:	87080e41 	strhi	r0, [r8, -r1, asr #28]
     77c:	41018e02 	tstmi	r1, r2, lsl #28
     780:	0d41180e 	stcleq	8, cr1, [r1, #-56]	; 0xffffffc8
     784:	080e4d07 	stmdaeq	lr, {r0, r1, r2, r8, sl, fp, lr}
     788:	000d0d41 	andeq	r0, sp, r1, asr #26
     78c:	00000020 	andeq	r0, r0, r0, lsr #32
     790:	00000408 	andeq	r0, r0, r8, lsl #8
     794:	0000147c 	andeq	r1, r0, ip, ror r4
     798:	0000002c 	andeq	r0, r0, ip, lsr #32
     79c:	87080e41 	strhi	r0, [r8, -r1, asr #28]
     7a0:	41018e02 	tstmi	r1, r2, lsl #28
     7a4:	0d41100e 	stcleq	0, cr1, [r1, #-56]	; 0xffffffc8
     7a8:	080e4e07 	stmdaeq	lr, {r0, r1, r2, r9, sl, fp, lr}
     7ac:	000d0d41 	andeq	r0, sp, r1, asr #26
     7b0:	00000020 	andeq	r0, r0, r0, lsr #32
     7b4:	00000408 	andeq	r0, r0, r8, lsl #8
     7b8:	000014a8 	andeq	r1, r0, r8, lsr #9
     7bc:	0000004c 	andeq	r0, r0, ip, asr #32
     7c0:	87080e41 	strhi	r0, [r8, -r1, asr #28]
     7c4:	41018e02 	tstmi	r1, r2, lsl #28
     7c8:	0d41100e 	stcleq	0, cr1, [r1, #-56]	; 0xffffffc8
     7cc:	080e5e07 	stmdaeq	lr, {r0, r1, r2, r9, sl, fp, ip, lr}
     7d0:	000d0d41 	andeq	r0, sp, r1, asr #26
     7d4:	00000020 	andeq	r0, r0, r0, lsr #32
     7d8:	00000408 	andeq	r0, r0, r8, lsl #8
     7dc:	000014f4 	strdeq	r1, [r0], -r4
     7e0:	00000046 	andeq	r0, r0, r6, asr #32
     7e4:	87080e41 	strhi	r0, [r8, -r1, asr #28]
     7e8:	41018e02 	tstmi	r1, r2, lsl #28
     7ec:	0d41180e 	stcleq	8, cr1, [r1, #-56]	; 0xffffffc8
     7f0:	080e5e07 	stmdaeq	lr, {r0, r1, r2, r9, sl, fp, ip, lr}
     7f4:	000d0d41 	andeq	r0, sp, r1, asr #26
     7f8:	00000020 	andeq	r0, r0, r0, lsr #32
     7fc:	00000408 	andeq	r0, r0, r8, lsl #8
     800:	0000153a 	andeq	r1, r0, sl, lsr r5
     804:	0000005a 	andeq	r0, r0, sl, asr r0
     808:	87080e41 	strhi	r0, [r8, -r1, asr #28]
     80c:	41018e02 	tstmi	r1, r2, lsl #28
     810:	0d41100e 	stcleq	0, cr1, [r1, #-56]	; 0xffffffc8
     814:	080e5e07 	stmdaeq	lr, {r0, r1, r2, r9, sl, fp, ip, lr}
     818:	000d0d41 	andeq	r0, sp, r1, asr #26
     81c:	0000000c 	andeq	r0, r0, ip
     820:	ffffffff 			; <UNDEFINED> instruction: 0xffffffff
     824:	7c020001 	stcvc	0, cr0, [r2], {1}
     828:	000d0c0e 	andeq	r0, sp, lr, lsl #24
     82c:	00000024 	andeq	r0, r0, r4, lsr #32
     830:	0000081c 	andeq	r0, r0, ip, lsl r8
     834:	00001594 	muleq	r0, r4, r5
     838:	00000018 	andeq	r0, r0, r8, lsl r0
     83c:	87040e41 	strhi	r0, [r4, -r1, asr #28]
     840:	100e4101 	andne	r4, lr, r1, lsl #2
     844:	46070d41 	strmi	r0, [r7], -r1, asr #26
     848:	0d41040e 	cfstrdeq	mvd0, [r1, #-56]	; 0xffffffc8
     84c:	0ec7410d 	poleqs	f4, f7, #5.0
     850:	00000000 	andeq	r0, r0, r0
     854:	0000001c 	andeq	r0, r0, ip, lsl r0
     858:	0000081c 	andeq	r0, r0, ip, lsl r8
     85c:	000015ac 	andeq	r1, r0, ip, lsr #11
     860:	0000000e 	andeq	r0, r0, lr
     864:	87040e41 	strhi	r0, [r4, -r1, asr #28]
     868:	070d4101 	streq	r4, [sp, -r1, lsl #2]
     86c:	410d0d43 	tstmi	sp, r3, asr #26
     870:	00000ec7 	andeq	r0, r0, r7, asr #29
     874:	00000024 	andeq	r0, r0, r4, lsr #32
     878:	0000081c 	andeq	r0, r0, ip, lsl r8
     87c:	000015ba 			; <UNDEFINED> instruction: 0x000015ba
     880:	00000026 	andeq	r0, r0, r6, lsr #32
     884:	87040e41 	strhi	r0, [r4, -r1, asr #28]
     888:	100e4101 	andne	r4, lr, r1, lsl #2
     88c:	4d070d41 	stcmi	13, cr0, [r7, #-260]	; 0xfffffefc
     890:	0d41040e 	cfstrdeq	mvd0, [r1, #-56]	; 0xffffffc8
     894:	0ec7410d 	poleqs	f4, f7, #5.0
     898:	00000000 	andeq	r0, r0, r0
     89c:	00000024 	andeq	r0, r0, r4, lsr #32
     8a0:	0000081c 	andeq	r0, r0, ip, lsl r8
     8a4:	000015e0 	andeq	r1, r0, r0, ror #11
     8a8:	00000028 	andeq	r0, r0, r8, lsr #32
     8ac:	87040e41 	strhi	r0, [r4, -r1, asr #28]
     8b0:	100e4101 	andne	r4, lr, r1, lsl #2
     8b4:	4e070d41 	cdpmi	13, 0, cr0, cr7, cr1, {2}
     8b8:	0d41040e 	cfstrdeq	mvd0, [r1, #-56]	; 0xffffffc8
     8bc:	0ec7410d 	poleqs	f4, f7, #5.0
     8c0:	00000000 	andeq	r0, r0, r0
     8c4:	00000020 	andeq	r0, r0, r0, lsr #32
     8c8:	0000081c 	andeq	r0, r0, ip, lsl r8
     8cc:	00001608 	andeq	r1, r0, r8, lsl #12
     8d0:	00000090 	muleq	r0, r0, r0
     8d4:	87080e41 	strhi	r0, [r8, -r1, asr #28]
     8d8:	41018e02 	tstmi	r1, r2, lsl #28
     8dc:	0d41180e 	stcleq	8, cr1, [r1, #-56]	; 0xffffffc8
     8e0:	0e410207 	cdpeq	2, 4, cr0, cr1, cr7, {0}
     8e4:	0d0d4108 	stfeqs	f4, [sp, #-32]	; 0xffffffe0
     8e8:	00000024 	andeq	r0, r0, r4, lsr #32
     8ec:	0000081c 	andeq	r0, r0, ip, lsl r8
     8f0:	00001698 	muleq	r0, r8, r6
     8f4:	00000024 	andeq	r0, r0, r4, lsr #32
     8f8:	87040e41 	strhi	r0, [r4, -r1, asr #28]
     8fc:	100e4101 	andne	r4, lr, r1, lsl #2
     900:	4c070d41 	stcmi	13, cr0, [r7], {65}	; 0x41
     904:	0d41040e 	cfstrdeq	mvd0, [r1, #-56]	; 0xffffffc8
     908:	0ec7410d 	poleqs	f4, f7, #5.0
     90c:	00000000 	andeq	r0, r0, r0
     910:	00000020 	andeq	r0, r0, r0, lsr #32
     914:	0000081c 	andeq	r0, r0, ip, lsl r8
     918:	000016bc 			; <UNDEFINED> instruction: 0x000016bc
     91c:	00000024 	andeq	r0, r0, r4, lsr #32
     920:	87080e41 	strhi	r0, [r8, -r1, asr #28]
     924:	41018e02 	tstmi	r1, r2, lsl #28
     928:	0d41100e 	stcleq	0, cr1, [r1, #-56]	; 0xffffffc8
     92c:	080e4d07 	stmdaeq	lr, {r0, r1, r2, r8, sl, fp, lr}
     930:	000d0d41 	andeq	r0, sp, r1, asr #26
     934:	00000024 	andeq	r0, r0, r4, lsr #32
     938:	0000081c 	andeq	r0, r0, ip, lsl r8
     93c:	000016e0 	andeq	r1, r0, r0, ror #13
     940:	00000024 	andeq	r0, r0, r4, lsr #32
     944:	87040e41 	strhi	r0, [r4, -r1, asr #28]
     948:	180e4101 	stmdane	lr, {r0, r8, lr}
     94c:	4c070d41 	stcmi	13, cr0, [r7], {65}	; 0x41
     950:	0d41040e 	cfstrdeq	mvd0, [r1, #-56]	; 0xffffffc8
     954:	0ec7410d 	poleqs	f4, f7, #5.0
     958:	00000000 	andeq	r0, r0, r0
     95c:	00000024 	andeq	r0, r0, r4, lsr #32
     960:	0000081c 	andeq	r0, r0, ip, lsl r8
     964:	00001704 	andeq	r1, r0, r4, lsl #14
     968:	0000002a 	andeq	r0, r0, sl, lsr #32
     96c:	87040e41 	strhi	r0, [r4, -r1, asr #28]
     970:	180e4101 	stmdane	lr, {r0, r8, lr}
     974:	4f070d41 	svcmi	0x00070d41
     978:	0d41040e 	cfstrdeq	mvd0, [r1, #-56]	; 0xffffffc8
     97c:	0ec7410d 	poleqs	f4, f7, #5.0
     980:	00000000 	andeq	r0, r0, r0
     984:	00000024 	andeq	r0, r0, r4, lsr #32
     988:	0000081c 	andeq	r0, r0, ip, lsl r8
     98c:	0000172e 	andeq	r1, r0, lr, lsr #14
     990:	0000002a 	andeq	r0, r0, sl, lsr #32
     994:	87040e41 	strhi	r0, [r4, -r1, asr #28]
     998:	180e4101 	stmdane	lr, {r0, r8, lr}
     99c:	4f070d41 	svcmi	0x00070d41
     9a0:	0d41040e 	cfstrdeq	mvd0, [r1, #-56]	; 0xffffffc8
     9a4:	0ec7410d 	poleqs	f4, f7, #5.0
     9a8:	00000000 	andeq	r0, r0, r0
     9ac:	00000024 	andeq	r0, r0, r4, lsr #32
     9b0:	0000081c 	andeq	r0, r0, ip, lsl r8
     9b4:	00001758 	andeq	r1, r0, r8, asr r7
     9b8:	00000024 	andeq	r0, r0, r4, lsr #32
     9bc:	87040e41 	strhi	r0, [r4, -r1, asr #28]
     9c0:	180e4101 	stmdane	lr, {r0, r8, lr}
     9c4:	4c070d41 	stcmi	13, cr0, [r7], {65}	; 0x41
     9c8:	0d41040e 	cfstrdeq	mvd0, [r1, #-56]	; 0xffffffc8
     9cc:	0ec7410d 	poleqs	f4, f7, #5.0
     9d0:	00000000 	andeq	r0, r0, r0
     9d4:	00000024 	andeq	r0, r0, r4, lsr #32
     9d8:	0000081c 	andeq	r0, r0, ip, lsl r8
     9dc:	0000177c 	andeq	r1, r0, ip, ror r7
     9e0:	00000024 	andeq	r0, r0, r4, lsr #32
     9e4:	87040e41 	strhi	r0, [r4, -r1, asr #28]
     9e8:	180e4101 	stmdane	lr, {r0, r8, lr}
     9ec:	4c070d41 	stcmi	13, cr0, [r7], {65}	; 0x41
     9f0:	0d41040e 	cfstrdeq	mvd0, [r1, #-56]	; 0xffffffc8
     9f4:	0ec7410d 	poleqs	f4, f7, #5.0
     9f8:	00000000 	andeq	r0, r0, r0
     9fc:	00000024 	andeq	r0, r0, r4, lsr #32
     a00:	0000081c 	andeq	r0, r0, ip, lsl r8
     a04:	000017a0 	andeq	r1, r0, r0, lsr #15
     a08:	0000006e 	andeq	r0, r0, lr, rrx
     a0c:	87040e41 	strhi	r0, [r4, -r1, asr #28]
     a10:	200e4101 	andcs	r4, lr, r1, lsl #2
     a14:	71070d41 	tstvc	r7, r1, asr #26
     a18:	0d41040e 	cfstrdeq	mvd0, [r1, #-56]	; 0xffffffc8
     a1c:	0ec7410d 	poleqs	f4, f7, #5.0
     a20:	00000000 	andeq	r0, r0, r0
     a24:	00000024 	andeq	r0, r0, r4, lsr #32
     a28:	0000081c 	andeq	r0, r0, ip, lsl r8
     a2c:	0000180e 	andeq	r1, r0, lr, lsl #16
     a30:	00000052 	andeq	r0, r0, r2, asr r0
     a34:	87040e41 	strhi	r0, [r4, -r1, asr #28]
     a38:	180e4101 	stmdane	lr, {r0, r8, lr}
     a3c:	63070d41 	movwvs	r0, #32065	; 0x7d41
     a40:	0d41040e 	cfstrdeq	mvd0, [r1, #-56]	; 0xffffffc8
     a44:	0ec7410d 	poleqs	f4, f7, #5.0
     a48:	00000000 	andeq	r0, r0, r0
     a4c:	00000024 	andeq	r0, r0, r4, lsr #32
     a50:	0000081c 	andeq	r0, r0, ip, lsl r8
     a54:	00001860 	andeq	r1, r0, r0, ror #16
     a58:	00000052 	andeq	r0, r0, r2, asr r0
     a5c:	87040e41 	strhi	r0, [r4, -r1, asr #28]
     a60:	180e4101 	stmdane	lr, {r0, r8, lr}
     a64:	63070d41 	movwvs	r0, #32065	; 0x7d41
     a68:	0d41040e 	cfstrdeq	mvd0, [r1, #-56]	; 0xffffffc8
     a6c:	0ec7410d 	poleqs	f4, f7, #5.0
     a70:	00000000 	andeq	r0, r0, r0
     a74:	00000024 	andeq	r0, r0, r4, lsr #32
     a78:	0000081c 	andeq	r0, r0, ip, lsl r8
     a7c:	000018b2 			; <UNDEFINED> instruction: 0x000018b2
     a80:	0000006a 	andeq	r0, r0, sl, rrx
     a84:	87040e41 	strhi	r0, [r4, -r1, asr #28]
     a88:	200e4101 	andcs	r4, lr, r1, lsl #2
     a8c:	6f070d41 	svcvs	0x00070d41
     a90:	0d41040e 	cfstrdeq	mvd0, [r1, #-56]	; 0xffffffc8
     a94:	0ec7410d 	poleqs	f4, f7, #5.0
     a98:	00000000 	andeq	r0, r0, r0
     a9c:	00000024 	andeq	r0, r0, r4, lsr #32
     aa0:	0000081c 	andeq	r0, r0, ip, lsl r8
     aa4:	0000191c 	andeq	r1, r0, ip, lsl r9
     aa8:	0000005e 	andeq	r0, r0, lr, asr r0
     aac:	87040e41 	strhi	r0, [r4, -r1, asr #28]
     ab0:	180e4101 	stmdane	lr, {r0, r8, lr}
     ab4:	69070d41 	stmdbvs	r7, {r0, r6, r8, sl, fp}
     ab8:	0d41040e 	cfstrdeq	mvd0, [r1, #-56]	; 0xffffffc8
     abc:	0ec7410d 	poleqs	f4, f7, #5.0
     ac0:	00000000 	andeq	r0, r0, r0
     ac4:	0000000c 	andeq	r0, r0, ip
     ac8:	ffffffff 			; <UNDEFINED> instruction: 0xffffffff
     acc:	7c020001 	stcvc	0, cr0, [r2], {1}
     ad0:	000d0c0e 	andeq	r0, sp, lr, lsl #24
     ad4:	00000020 	andeq	r0, r0, r0, lsr #32
     ad8:	00000ac4 	andeq	r0, r0, r4, asr #21
     adc:	0000197c 	andeq	r1, r0, ip, ror r9
     ae0:	00000022 	andeq	r0, r0, r2, lsr #32
     ae4:	87080e41 	strhi	r0, [r8, -r1, asr #28]
     ae8:	41018e02 	tstmi	r1, r2, lsl #28
     aec:	0d41100e 	stcleq	0, cr1, [r1, #-56]	; 0xffffffc8
     af0:	080e4c07 	stmdaeq	lr, {r0, r1, r2, sl, fp, lr}
     af4:	000d0d41 	andeq	r0, sp, r1, asr #26
     af8:	00000020 	andeq	r0, r0, r0, lsr #32
     afc:	00000ac4 	andeq	r0, r0, r4, asr #21
     b00:	0000199e 	muleq	r0, lr, r9
     b04:	0000005e 	andeq	r0, r0, lr, asr r0
     b08:	87080e41 	strhi	r0, [r8, -r1, asr #28]
     b0c:	41018e02 	tstmi	r1, r2, lsl #28
     b10:	0d41200e 	stcleq	0, cr2, [r1, #-56]	; 0xffffffc8
     b14:	080e6a07 	stmdaeq	lr, {r0, r1, r2, r9, fp, sp, lr}
     b18:	000d0d41 	andeq	r0, sp, r1, asr #26
     b1c:	00000020 	andeq	r0, r0, r0, lsr #32
     b20:	00000ac4 	andeq	r0, r0, r4, asr #21
     b24:	000019fc 	strdeq	r1, [r0], -ip
     b28:	0000006e 	andeq	r0, r0, lr, rrx
     b2c:	87080e41 	strhi	r0, [r8, -r1, asr #28]
     b30:	41018e02 	tstmi	r1, r2, lsl #28
     b34:	0d41280e 	stcleq	8, cr2, [r1, #-56]	; 0xffffffc8
     b38:	080e7207 	stmdaeq	lr, {r0, r1, r2, r9, ip, sp, lr}
     b3c:	000d0d41 	andeq	r0, sp, r1, asr #26
     b40:	00000020 	andeq	r0, r0, r0, lsr #32
     b44:	00000ac4 	andeq	r0, r0, r4, asr #21
     b48:	00001a6a 	andeq	r1, r0, sl, ror #20
     b4c:	00000060 	andeq	r0, r0, r0, rrx
     b50:	87080e41 	strhi	r0, [r8, -r1, asr #28]
     b54:	41018e02 	tstmi	r1, r2, lsl #28
     b58:	0d41200e 	stcleq	0, cr2, [r1, #-56]	; 0xffffffc8
     b5c:	080e6b07 	stmdaeq	lr, {r0, r1, r2, r8, r9, fp, sp, lr}
     b60:	000d0d41 	andeq	r0, sp, r1, asr #26
     b64:	00000020 	andeq	r0, r0, r0, lsr #32
     b68:	00000ac4 	andeq	r0, r0, r4, asr #21
     b6c:	00001aca 	andeq	r1, r0, sl, asr #21
     b70:	00000050 	andeq	r0, r0, r0, asr r0
     b74:	87080e41 	strhi	r0, [r8, -r1, asr #28]
     b78:	41018e02 	tstmi	r1, r2, lsl #28
     b7c:	0d41200e 	stcleq	0, cr2, [r1, #-56]	; 0xffffffc8
     b80:	080e6307 	stmdaeq	lr, {r0, r1, r2, r8, r9, sp, lr}
     b84:	000d0d41 	andeq	r0, sp, r1, asr #26
     b88:	00000020 	andeq	r0, r0, r0, lsr #32
     b8c:	00000ac4 	andeq	r0, r0, r4, asr #21
     b90:	00001b1a 	andeq	r1, r0, sl, lsl fp
     b94:	0000009e 	muleq	r0, lr, r0
     b98:	87080e41 	strhi	r0, [r8, -r1, asr #28]
     b9c:	41018e02 	tstmi	r1, r2, lsl #28
     ba0:	0d41280e 	stcleq	8, cr2, [r1, #-56]	; 0xffffffc8
     ba4:	0e430207 	cdpeq	2, 4, cr0, cr3, cr7, {0}
     ba8:	0d0d4108 	stfeqs	f4, [sp, #-32]	; 0xffffffe0
     bac:	00000020 	andeq	r0, r0, r0, lsr #32
     bb0:	00000ac4 	andeq	r0, r0, r4, asr #21
     bb4:	00001bb8 			; <UNDEFINED> instruction: 0x00001bb8
     bb8:	0000002e 	andeq	r0, r0, lr, lsr #32
     bbc:	87080e41 	strhi	r0, [r8, -r1, asr #28]
     bc0:	41018e02 	tstmi	r1, r2, lsl #28
     bc4:	0d41180e 	stcleq	8, cr1, [r1, #-56]	; 0xffffffc8
     bc8:	080e5207 	stmdaeq	lr, {r0, r1, r2, r9, ip, lr}
     bcc:	000d0d41 	andeq	r0, sp, r1, asr #26
     bd0:	0000000c 	andeq	r0, r0, ip
     bd4:	ffffffff 			; <UNDEFINED> instruction: 0xffffffff
     bd8:	7c020001 	stcvc	0, cr0, [r2], {1}
     bdc:	000d0c0e 	andeq	r0, sp, lr, lsl #24
     be0:	00000020 	andeq	r0, r0, r0, lsr #32
     be4:	00000bd0 	ldrdeq	r0, [r0], -r0	; <UNPREDICTABLE>
     be8:	00001be8 	andeq	r1, r0, r8, ror #23
     bec:	0000003c 	andeq	r0, r0, ip, lsr r0
     bf0:	87080e41 	strhi	r0, [r8, -r1, asr #28]
     bf4:	41018e02 	tstmi	r1, r2, lsl #28
     bf8:	0d41180e 	stcleq	8, cr1, [r1, #-56]	; 0xffffffc8
     bfc:	080e5907 	stmdaeq	lr, {r0, r1, r2, r8, fp, ip, lr}
     c00:	000d0d41 	andeq	r0, sp, r1, asr #26
     c04:	00000020 	andeq	r0, r0, r0, lsr #32
     c08:	00000bd0 	ldrdeq	r0, [r0], -r0	; <UNPREDICTABLE>
     c0c:	00001c24 	andeq	r1, r0, r4, lsr #24
     c10:	0000005c 	andeq	r0, r0, ip, asr r0
     c14:	87080e41 	strhi	r0, [r8, -r1, asr #28]
     c18:	41018e02 	tstmi	r1, r2, lsl #28
     c1c:	0c41200e 	mcrreq	0, 0, r2, r1, cr14
     c20:	0e671807 	cdpeq	8, 6, cr1, cr7, cr7, {0}
     c24:	0d0d4108 	stfeqs	f4, [sp, #-32]	; 0xffffffe0
     c28:	00000020 	andeq	r0, r0, r0, lsr #32
     c2c:	00000bd0 	ldrdeq	r0, [r0], -r0	; <UNPREDICTABLE>
     c30:	00001c80 	andeq	r1, r0, r0, lsl #25
     c34:	00000044 	andeq	r0, r0, r4, asr #32
     c38:	87080e41 	strhi	r0, [r8, -r1, asr #28]
     c3c:	41018e02 	tstmi	r1, r2, lsl #28
     c40:	0d41180e 	stcleq	8, cr1, [r1, #-56]	; 0xffffffc8
     c44:	080e5a07 	stmdaeq	lr, {r0, r1, r2, r9, fp, ip, lr}
     c48:	000d0d41 	andeq	r0, sp, r1, asr #26
     c4c:	00000020 	andeq	r0, r0, r0, lsr #32
     c50:	00000bd0 	ldrdeq	r0, [r0], -r0	; <UNPREDICTABLE>
     c54:	00001cc4 	andeq	r1, r0, r4, asr #25
     c58:	00000078 	andeq	r0, r0, r8, ror r0
     c5c:	87080e41 	strhi	r0, [r8, -r1, asr #28]
     c60:	41018e02 	tstmi	r1, r2, lsl #28
     c64:	0d41180e 	stcleq	8, cr1, [r1, #-56]	; 0xffffffc8
     c68:	080e7407 	stmdaeq	lr, {r0, r1, r2, sl, ip, sp, lr}
     c6c:	000d0d41 	andeq	r0, sp, r1, asr #26
     c70:	00000020 	andeq	r0, r0, r0, lsr #32
     c74:	00000bd0 	ldrdeq	r0, [r0], -r0	; <UNPREDICTABLE>
     c78:	00001d3c 	andeq	r1, r0, ip, lsr sp
     c7c:	0000003c 	andeq	r0, r0, ip, lsr r0
     c80:	87080e41 	strhi	r0, [r8, -r1, asr #28]
     c84:	41018e02 	tstmi	r1, r2, lsl #28
     c88:	0d41180e 	stcleq	8, cr1, [r1, #-56]	; 0xffffffc8
     c8c:	080e5907 	stmdaeq	lr, {r0, r1, r2, r8, fp, ip, lr}
     c90:	000d0d41 	andeq	r0, sp, r1, asr #26
     c94:	00000020 	andeq	r0, r0, r0, lsr #32
     c98:	00000bd0 	ldrdeq	r0, [r0], -r0	; <UNPREDICTABLE>
     c9c:	00001d78 	andeq	r1, r0, r8, ror sp
     ca0:	0000003c 	andeq	r0, r0, ip, lsr r0
     ca4:	87080e41 	strhi	r0, [r8, -r1, asr #28]
     ca8:	41018e02 	tstmi	r1, r2, lsl #28
     cac:	0d41180e 	stcleq	8, cr1, [r1, #-56]	; 0xffffffc8
     cb0:	080e5907 	stmdaeq	lr, {r0, r1, r2, r8, fp, ip, lr}
     cb4:	000d0d41 	andeq	r0, sp, r1, asr #26
     cb8:	0000000c 	andeq	r0, r0, ip
     cbc:	ffffffff 			; <UNDEFINED> instruction: 0xffffffff
     cc0:	7c020001 	stcvc	0, cr0, [r2], {1}
     cc4:	000d0c0e 	andeq	r0, sp, lr, lsl #24
     cc8:	00000020 	andeq	r0, r0, r0, lsr #32
     ccc:	00000cb8 			; <UNDEFINED> instruction: 0x00000cb8
     cd0:	00001db4 			; <UNDEFINED> instruction: 0x00001db4
     cd4:	0000003e 	andeq	r0, r0, lr, lsr r0
     cd8:	87080e41 	strhi	r0, [r8, -r1, asr #28]
     cdc:	41018e02 	tstmi	r1, r2, lsl #28
     ce0:	0d41180e 	stcleq	8, cr1, [r1, #-56]	; 0xffffffc8
     ce4:	080e5a07 	stmdaeq	lr, {r0, r1, r2, r9, fp, ip, lr}
     ce8:	000d0d41 	andeq	r0, sp, r1, asr #26
     cec:	00000024 	andeq	r0, r0, r4, lsr #32
     cf0:	00000cb8 			; <UNDEFINED> instruction: 0x00000cb8
     cf4:	00001df2 	strdeq	r1, [r0], -r2
     cf8:	00000092 	muleq	r0, r2, r0
     cfc:	87080e41 	strhi	r0, [r8, -r1, asr #28]
     d00:	41018e02 	tstmi	r1, r2, lsl #28
     d04:	0c41280e 	mcrreq	8, 0, r2, r1, cr14
     d08:	42022007 	andmi	r2, r2, #7
     d0c:	0d41080e 	stcleq	8, cr0, [r1, #-56]	; 0xffffffc8
     d10:	0000000d 	andeq	r0, r0, sp
     d14:	00000020 	andeq	r0, r0, r0, lsr #32
     d18:	00000cb8 			; <UNDEFINED> instruction: 0x00000cb8
     d1c:	00001e84 	andeq	r1, r0, r4, lsl #29
     d20:	00000070 	andeq	r0, r0, r0, ror r0
     d24:	87080e41 	strhi	r0, [r8, -r1, asr #28]
     d28:	41018e02 	tstmi	r1, r2, lsl #28
     d2c:	0d41180e 	stcleq	8, cr1, [r1, #-56]	; 0xffffffc8
     d30:	080e7007 	stmdaeq	lr, {r0, r1, r2, ip, sp, lr}
     d34:	000d0d41 	andeq	r0, sp, r1, asr #26
     d38:	00000020 	andeq	r0, r0, r0, lsr #32
     d3c:	00000cb8 			; <UNDEFINED> instruction: 0x00000cb8
     d40:	00001ef4 	strdeq	r1, [r0], -r4
     d44:	000000e0 	andeq	r0, r0, r0, ror #1
     d48:	87080e41 	strhi	r0, [r8, -r1, asr #28]
     d4c:	41018e02 	tstmi	r1, r2, lsl #28
     d50:	0d41200e 	stcleq	0, cr2, [r1, #-56]	; 0xffffffc8
     d54:	0e670207 	cdpeq	2, 6, cr0, cr7, cr7, {0}
     d58:	0d0d4108 	stfeqs	f4, [sp, #-32]	; 0xffffffe0
     d5c:	00000020 	andeq	r0, r0, r0, lsr #32
     d60:	00000cb8 			; <UNDEFINED> instruction: 0x00000cb8
     d64:	00001fd4 	ldrdeq	r1, [r0], -r4
     d68:	0000003c 	andeq	r0, r0, ip, lsr r0
     d6c:	87080e41 	strhi	r0, [r8, -r1, asr #28]
     d70:	41018e02 	tstmi	r1, r2, lsl #28
     d74:	0d41180e 	stcleq	8, cr1, [r1, #-56]	; 0xffffffc8
     d78:	080e5907 	stmdaeq	lr, {r0, r1, r2, r8, fp, ip, lr}
     d7c:	000d0d41 	andeq	r0, sp, r1, asr #26
     d80:	00000020 	andeq	r0, r0, r0, lsr #32
     d84:	00000cb8 			; <UNDEFINED> instruction: 0x00000cb8
     d88:	00002010 	andeq	r2, r0, r0, lsl r0
     d8c:	00000036 	andeq	r0, r0, r6, lsr r0
     d90:	87080e41 	strhi	r0, [r8, -r1, asr #28]
     d94:	41018e02 	tstmi	r1, r2, lsl #28
     d98:	0d41180e 	stcleq	8, cr1, [r1, #-56]	; 0xffffffc8
     d9c:	080e5607 	stmdaeq	lr, {r0, r1, r2, r9, sl, ip, lr}
     da0:	000d0d41 	andeq	r0, sp, r1, asr #26
     da4:	00000020 	andeq	r0, r0, r0, lsr #32
     da8:	00000cb8 			; <UNDEFINED> instruction: 0x00000cb8
     dac:	00002046 	andeq	r2, r0, r6, asr #32
     db0:	0000003c 	andeq	r0, r0, ip, lsr r0
     db4:	87080e41 	strhi	r0, [r8, -r1, asr #28]
     db8:	41018e02 	tstmi	r1, r2, lsl #28
     dbc:	0d41180e 	stcleq	8, cr1, [r1, #-56]	; 0xffffffc8
     dc0:	080e5907 	stmdaeq	lr, {r0, r1, r2, r8, fp, ip, lr}
     dc4:	000d0d41 	andeq	r0, sp, r1, asr #26
     dc8:	0000000c 	andeq	r0, r0, ip
     dcc:	ffffffff 			; <UNDEFINED> instruction: 0xffffffff
     dd0:	7c020001 	stcvc	0, cr0, [r2], {1}
     dd4:	000d0c0e 	andeq	r0, sp, lr, lsl #24
     dd8:	00000020 	andeq	r0, r0, r0, lsr #32
     ddc:	00000dc8 	andeq	r0, r0, r8, asr #27
     de0:	00002084 	andeq	r2, r0, r4, lsl #1
     de4:	0000007e 	andeq	r0, r0, lr, ror r0
     de8:	87080e41 	strhi	r0, [r8, -r1, asr #28]
     dec:	41018e02 	tstmi	r1, r2, lsl #28
     df0:	0d41200e 	stcleq	0, cr2, [r1, #-56]	; 0xffffffc8
     df4:	080e7a07 	stmdaeq	lr, {r0, r1, r2, r9, fp, ip, sp, lr}
     df8:	000d0d41 	andeq	r0, sp, r1, asr #26
     dfc:	00000020 	andeq	r0, r0, r0, lsr #32
     e00:	00000dc8 	andeq	r0, r0, r8, asr #27
     e04:	00002102 	andeq	r2, r0, r2, lsl #2
     e08:	00000076 	andeq	r0, r0, r6, ror r0
     e0c:	87080e41 	strhi	r0, [r8, -r1, asr #28]
     e10:	41018e02 	tstmi	r1, r2, lsl #28
     e14:	0c41280e 	mcrreq	8, 0, r2, r1, cr14
     e18:	0e742007 	cdpeq	0, 7, cr2, cr4, cr7, {0}
     e1c:	0d0d4108 	stfeqs	f4, [sp, #-32]	; 0xffffffe0
     e20:	00000020 	andeq	r0, r0, r0, lsr #32
     e24:	00000dc8 	andeq	r0, r0, r8, asr #27
     e28:	00002178 	andeq	r2, r0, r8, ror r1
     e2c:	0000004a 	andeq	r0, r0, sl, asr #32
     e30:	87080e41 	strhi	r0, [r8, -r1, asr #28]
     e34:	41018e02 	tstmi	r1, r2, lsl #28
     e38:	0d41180e 	stcleq	8, cr1, [r1, #-56]	; 0xffffffc8
     e3c:	080e6007 	stmdaeq	lr, {r0, r1, r2, sp, lr}
     e40:	000d0d41 	andeq	r0, sp, r1, asr #26
     e44:	00000020 	andeq	r0, r0, r0, lsr #32
     e48:	00000dc8 	andeq	r0, r0, r8, asr #27
     e4c:	000021c2 	andeq	r2, r0, r2, asr #3
     e50:	0000005e 	andeq	r0, r0, lr, asr r0
     e54:	87080e41 	strhi	r0, [r8, -r1, asr #28]
     e58:	41018e02 	tstmi	r1, r2, lsl #28
     e5c:	0d41180e 	stcleq	8, cr1, [r1, #-56]	; 0xffffffc8
     e60:	080e6807 	stmdaeq	lr, {r0, r1, r2, fp, sp, lr}
     e64:	000d0d41 	andeq	r0, sp, r1, asr #26
     e68:	00000020 	andeq	r0, r0, r0, lsr #32
     e6c:	00000dc8 	andeq	r0, r0, r8, asr #27
     e70:	00002220 	andeq	r2, r0, r0, lsr #4
     e74:	0000004c 	andeq	r0, r0, ip, asr #32
     e78:	87080e41 	strhi	r0, [r8, -r1, asr #28]
     e7c:	41018e02 	tstmi	r1, r2, lsl #28
     e80:	0d41180e 	stcleq	8, cr1, [r1, #-56]	; 0xffffffc8
     e84:	080e6107 	stmdaeq	lr, {r0, r1, r2, r8, sp, lr}
     e88:	000d0d41 	andeq	r0, sp, r1, asr #26
     e8c:	00000020 	andeq	r0, r0, r0, lsr #32
     e90:	00000dc8 	andeq	r0, r0, r8, asr #27
     e94:	0000226c 	andeq	r2, r0, ip, ror #4
     e98:	00000036 	andeq	r0, r0, r6, lsr r0
     e9c:	87080e41 	strhi	r0, [r8, -r1, asr #28]
     ea0:	41018e02 	tstmi	r1, r2, lsl #28
     ea4:	0d41180e 	stcleq	8, cr1, [r1, #-56]	; 0xffffffc8
     ea8:	080e5607 	stmdaeq	lr, {r0, r1, r2, r9, sl, ip, lr}
     eac:	000d0d41 	andeq	r0, sp, r1, asr #26
     eb0:	0000000c 	andeq	r0, r0, ip
     eb4:	ffffffff 			; <UNDEFINED> instruction: 0xffffffff
     eb8:	7c020001 	stcvc	0, cr0, [r2], {1}
     ebc:	000d0c0e 	andeq	r0, sp, lr, lsl #24
     ec0:	00000020 	andeq	r0, r0, r0, lsr #32
     ec4:	00000eb0 			; <UNDEFINED> instruction: 0x00000eb0
     ec8:	000022a4 	andeq	r2, r0, r4, lsr #5
     ecc:	0000005a 	andeq	r0, r0, sl, asr r0
     ed0:	87080e41 	strhi	r0, [r8, -r1, asr #28]
     ed4:	41018e02 	tstmi	r1, r2, lsl #28
     ed8:	0d41180e 	stcleq	8, cr1, [r1, #-56]	; 0xffffffc8
     edc:	080e6807 	stmdaeq	lr, {r0, r1, r2, fp, sp, lr}
     ee0:	000d0d41 	andeq	r0, sp, r1, asr #26
     ee4:	00000020 	andeq	r0, r0, r0, lsr #32
     ee8:	00000eb0 			; <UNDEFINED> instruction: 0x00000eb0
     eec:	000022fe 	strdeq	r2, [r0], -lr
     ef0:	0000008a 	andeq	r0, r0, sl, lsl #1
     ef4:	87080e41 	strhi	r0, [r8, -r1, asr #28]
     ef8:	41018e02 	tstmi	r1, r2, lsl #28
     efc:	0d41180e 	stcleq	8, cr1, [r1, #-56]	; 0xffffffc8
     f00:	080e7907 	stmdaeq	lr, {r0, r1, r2, r8, fp, ip, sp, lr}
     f04:	000d0d41 	andeq	r0, sp, r1, asr #26
     f08:	00000020 	andeq	r0, r0, r0, lsr #32
     f0c:	00000eb0 			; <UNDEFINED> instruction: 0x00000eb0
     f10:	00002388 	andeq	r2, r0, r8, lsl #7
     f14:	00000070 	andeq	r0, r0, r0, ror r0
     f18:	87080e41 	strhi	r0, [r8, -r1, asr #28]
     f1c:	41018e02 	tstmi	r1, r2, lsl #28
     f20:	0d41180e 	stcleq	8, cr1, [r1, #-56]	; 0xffffffc8
     f24:	080e6d07 	stmdaeq	lr, {r0, r1, r2, r8, sl, fp, sp, lr}
     f28:	000d0d41 	andeq	r0, sp, r1, asr #26
     f2c:	00000020 	andeq	r0, r0, r0, lsr #32
     f30:	00000eb0 			; <UNDEFINED> instruction: 0x00000eb0
     f34:	000023f8 	strdeq	r2, [r0], -r8
     f38:	0000007a 	andeq	r0, r0, sl, ror r0
     f3c:	87080e41 	strhi	r0, [r8, -r1, asr #28]
     f40:	41018e02 	tstmi	r1, r2, lsl #28
     f44:	0d41180e 	stcleq	8, cr1, [r1, #-56]	; 0xffffffc8
     f48:	080e7807 	stmdaeq	lr, {r0, r1, r2, fp, ip, sp, lr}
     f4c:	000d0d41 	andeq	r0, sp, r1, asr #26
     f50:	00000020 	andeq	r0, r0, r0, lsr #32
     f54:	00000eb0 			; <UNDEFINED> instruction: 0x00000eb0
     f58:	00002472 	andeq	r2, r0, r2, ror r4
     f5c:	0000001e 	andeq	r0, r0, lr, lsl r0
     f60:	87080e41 	strhi	r0, [r8, -r1, asr #28]
     f64:	41018e02 	tstmi	r1, r2, lsl #28
     f68:	0d41100e 	stcleq	0, cr1, [r1, #-56]	; 0xffffffc8
     f6c:	080e4a07 	stmdaeq	lr, {r0, r1, r2, r9, fp, lr}
     f70:	000d0d41 	andeq	r0, sp, r1, asr #26
     f74:	0000001c 	andeq	r0, r0, ip, lsl r0
     f78:	00000eb0 			; <UNDEFINED> instruction: 0x00000eb0
     f7c:	00002490 	muleq	r0, r0, r4
     f80:	00000034 	andeq	r0, r0, r4, lsr r0
     f84:	87080e41 	strhi	r0, [r8, -r1, asr #28]
     f88:	41018e02 	tstmi	r1, r2, lsl #28
     f8c:	0d41100e 	stcleq	0, cr1, [r1, #-56]	; 0xffffffc8
     f90:	00000007 	andeq	r0, r0, r7
     f94:	00000020 	andeq	r0, r0, r0, lsr #32
     f98:	00000eb0 			; <UNDEFINED> instruction: 0x00000eb0
     f9c:	000024c4 	andeq	r2, r0, r4, asr #9
     fa0:	00000030 	andeq	r0, r0, r0, lsr r0
     fa4:	87080e41 	strhi	r0, [r8, -r1, asr #28]
     fa8:	41018e02 	tstmi	r1, r2, lsl #28
     fac:	0d41100e 	stcleq	0, cr1, [r1, #-56]	; 0xffffffc8
     fb0:	080e4e07 	stmdaeq	lr, {r0, r1, r2, r9, sl, fp, lr}
     fb4:	000d0d41 	andeq	r0, sp, r1, asr #26
     fb8:	00000020 	andeq	r0, r0, r0, lsr #32
     fbc:	00000eb0 			; <UNDEFINED> instruction: 0x00000eb0
     fc0:	000024f4 	strdeq	r2, [r0], -r4
     fc4:	00000058 	andeq	r0, r0, r8, asr r0
     fc8:	87080e41 	strhi	r0, [r8, -r1, asr #28]
     fcc:	41018e02 	tstmi	r1, r2, lsl #28
     fd0:	0c41100e 	mcrreq	0, 0, r1, r1, cr14
     fd4:	0d5a0807 	ldcleq	8, cr0, [sl, #-28]	; 0xffffffe4
     fd8:	0000000d 	andeq	r0, r0, sp
     fdc:	0000000c 	andeq	r0, r0, ip
     fe0:	ffffffff 			; <UNDEFINED> instruction: 0xffffffff
     fe4:	7c020001 	stcvc	0, cr0, [r2], {1}
     fe8:	000d0c0e 	andeq	r0, sp, lr, lsl #24
     fec:	00000020 	andeq	r0, r0, r0, lsr #32
     ff0:	00000fdc 	ldrdeq	r0, [r0], -ip
     ff4:	0000254c 	andeq	r2, r0, ip, asr #10
     ff8:	0000002e 	andeq	r0, r0, lr, lsr #32
     ffc:	87080e41 	strhi	r0, [r8, -r1, asr #28]
    1000:	41018e02 	tstmi	r1, r2, lsl #28
    1004:	0d41100e 	stcleq	0, cr1, [r1, #-56]	; 0xffffffc8
    1008:	080e5207 	stmdaeq	lr, {r0, r1, r2, r9, ip, lr}
    100c:	000d0d41 	andeq	r0, sp, r1, asr #26
    1010:	00000024 	andeq	r0, r0, r4, lsr #32
    1014:	00000fdc 	ldrdeq	r0, [r0], -ip
    1018:	0000257a 	andeq	r2, r0, sl, ror r5
    101c:	000000ce 	andeq	r0, r0, lr, asr #1
    1020:	87080e41 	strhi	r0, [r8, -r1, asr #28]
    1024:	41018e02 	tstmi	r1, r2, lsl #28
    1028:	0c41200e 	mcrreq	0, 0, r2, r1, cr14
    102c:	60021807 	andvs	r1, r2, r7, lsl #16
    1030:	0d41080e 	stcleq	8, cr0, [r1, #-56]	; 0xffffffc8
    1034:	0000000d 	andeq	r0, r0, sp
    1038:	00000020 	andeq	r0, r0, r0, lsr #32
    103c:	00000fdc 	ldrdeq	r0, [r0], -ip
    1040:	00002648 	andeq	r2, r0, r8, asr #12
    1044:	00000070 	andeq	r0, r0, r0, ror r0
    1048:	87080e41 	strhi	r0, [r8, -r1, asr #28]
    104c:	41018e02 	tstmi	r1, r2, lsl #28
    1050:	0d41180e 	stcleq	8, cr1, [r1, #-56]	; 0xffffffc8
    1054:	080e7107 	stmdaeq	lr, {r0, r1, r2, r8, ip, sp, lr}
    1058:	000d0d41 	andeq	r0, sp, r1, asr #26
    105c:	00000020 	andeq	r0, r0, r0, lsr #32
    1060:	00000fdc 	ldrdeq	r0, [r0], -ip
    1064:	000026b8 			; <UNDEFINED> instruction: 0x000026b8
    1068:	000000f0 	strdeq	r0, [r0], -r0	; <UNPREDICTABLE>
    106c:	87080e41 	strhi	r0, [r8, -r1, asr #28]
    1070:	41018e02 	tstmi	r1, r2, lsl #28
    1074:	0d41180e 	stcleq	8, cr1, [r1, #-56]	; 0xffffffc8
    1078:	0e700207 	cdpeq	2, 7, cr0, cr0, cr7, {0}
    107c:	0d0d4108 	stfeqs	f4, [sp, #-32]	; 0xffffffe0
    1080:	00000020 	andeq	r0, r0, r0, lsr #32
    1084:	00000fdc 	ldrdeq	r0, [r0], -ip
    1088:	000027a8 	andeq	r2, r0, r8, lsr #15
    108c:	00000084 	andeq	r0, r0, r4, lsl #1
    1090:	87080e41 	strhi	r0, [r8, -r1, asr #28]
    1094:	41018e02 	tstmi	r1, r2, lsl #28
    1098:	0d41180e 	stcleq	8, cr1, [r1, #-56]	; 0xffffffc8
    109c:	080e7d07 	stmdaeq	lr, {r0, r1, r2, r8, sl, fp, ip, sp, lr}
    10a0:	000d0d41 	andeq	r0, sp, r1, asr #26
    10a4:	00000020 	andeq	r0, r0, r0, lsr #32
    10a8:	00000fdc 	ldrdeq	r0, [r0], -ip
    10ac:	0000282c 	andeq	r2, r0, ip, lsr #16
    10b0:	0000005e 	andeq	r0, r0, lr, asr r0
    10b4:	87080e41 	strhi	r0, [r8, -r1, asr #28]
    10b8:	41018e02 	tstmi	r1, r2, lsl #28
    10bc:	0d41180e 	stcleq	8, cr1, [r1, #-56]	; 0xffffffc8
    10c0:	080e6a07 	stmdaeq	lr, {r0, r1, r2, r9, fp, sp, lr}
    10c4:	000d0d41 	andeq	r0, sp, r1, asr #26
    10c8:	0000000c 	andeq	r0, r0, ip
    10cc:	ffffffff 			; <UNDEFINED> instruction: 0xffffffff
    10d0:	7c020001 	stcvc	0, cr0, [r2], {1}
    10d4:	000d0c0e 	andeq	r0, sp, lr, lsl #24
    10d8:	00000020 	andeq	r0, r0, r0, lsr #32
    10dc:	000010c8 	andeq	r1, r0, r8, asr #1
    10e0:	0000288c 	andeq	r2, r0, ip, lsl #17
    10e4:	00000024 	andeq	r0, r0, r4, lsr #32
    10e8:	87080e41 	strhi	r0, [r8, -r1, asr #28]
    10ec:	41018e02 	tstmi	r1, r2, lsl #28
    10f0:	0d41100e 	stcleq	0, cr1, [r1, #-56]	; 0xffffffc8
    10f4:	080e4d07 	stmdaeq	lr, {r0, r1, r2, r8, sl, fp, lr}
    10f8:	000d0d41 	andeq	r0, sp, r1, asr #26
    10fc:	00000024 	andeq	r0, r0, r4, lsr #32
    1100:	000010c8 	andeq	r1, r0, r8, asr #1
    1104:	000028b0 			; <UNDEFINED> instruction: 0x000028b0
    1108:	000000a4 	andeq	r0, r0, r4, lsr #1
    110c:	87040e41 	strhi	r0, [r4, -r1, asr #28]
    1110:	300e4101 	andcc	r4, lr, r1, lsl #2
    1114:	02070d41 	andeq	r0, r7, #4160	; 0x1040
    1118:	41040e4c 	tstmi	r4, ip, asr #28
    111c:	c7410d0d 	strbgt	r0, [r1, -sp, lsl #26]
    1120:	0000000e 	andeq	r0, r0, lr
    1124:	00000020 	andeq	r0, r0, r0, lsr #32
    1128:	000010c8 	andeq	r1, r0, r8, asr #1
    112c:	00002954 	andeq	r2, r0, r4, asr r9
    1130:	00000084 	andeq	r0, r0, r4, lsl #1
    1134:	87080e41 	strhi	r0, [r8, -r1, asr #28]
    1138:	41018e02 	tstmi	r1, r2, lsl #28
    113c:	0c41300e 	mcrreq	0, 0, r3, r1, cr14
    1140:	0e7a2807 	cdpeq	8, 7, cr2, cr10, cr7, {0}
    1144:	0d0d4108 	stfeqs	f4, [sp, #-32]	; 0xffffffe0
    1148:	00000020 	andeq	r0, r0, r0, lsr #32
    114c:	000010c8 	andeq	r1, r0, r8, asr #1
    1150:	000029d8 	ldrdeq	r2, [r0], -r8
    1154:	0000003c 	andeq	r0, r0, ip, lsr r0
    1158:	87080e41 	strhi	r0, [r8, -r1, asr #28]
    115c:	41018e02 	tstmi	r1, r2, lsl #28
    1160:	0d41280e 	stcleq	8, cr2, [r1, #-56]	; 0xffffffc8
    1164:	080e5907 	stmdaeq	lr, {r0, r1, r2, r8, fp, ip, lr}
    1168:	000d0d41 	andeq	r0, sp, r1, asr #26
    116c:	00000020 	andeq	r0, r0, r0, lsr #32
    1170:	000010c8 	andeq	r1, r0, r8, asr #1
    1174:	00002a14 	andeq	r2, r0, r4, lsl sl
    1178:	000000b2 	strheq	r0, [r0], -r2
    117c:	87080e41 	strhi	r0, [r8, -r1, asr #28]
    1180:	41018e02 	tstmi	r1, r2, lsl #28
    1184:	0d41380e 	stcleq	8, cr3, [r1, #-56]	; 0xffffffc8
    1188:	0e540207 	cdpeq	2, 5, cr0, cr4, cr7, {0}
    118c:	0d0d4108 	stfeqs	f4, [sp, #-32]	; 0xffffffe0
    1190:	00000020 	andeq	r0, r0, r0, lsr #32
    1194:	000010c8 	andeq	r1, r0, r8, asr #1
    1198:	00002ac6 	andeq	r2, r0, r6, asr #21
    119c:	00000034 	andeq	r0, r0, r4, lsr r0
    11a0:	87080e41 	strhi	r0, [r8, -r1, asr #28]
    11a4:	41018e02 	tstmi	r1, r2, lsl #28
    11a8:	0d41180e 	stcleq	8, cr1, [r1, #-56]	; 0xffffffc8
    11ac:	080e5507 	stmdaeq	lr, {r0, r1, r2, r8, sl, ip, lr}
    11b0:	000d0d41 	andeq	r0, sp, r1, asr #26
    11b4:	00000020 	andeq	r0, r0, r0, lsr #32
    11b8:	000010c8 	andeq	r1, r0, r8, asr #1
    11bc:	00002afa 	strdeq	r2, [r0], -sl
    11c0:	00000036 	andeq	r0, r0, r6, lsr r0
    11c4:	87080e41 	strhi	r0, [r8, -r1, asr #28]
    11c8:	41018e02 	tstmi	r1, r2, lsl #28
    11cc:	0d41180e 	stcleq	8, cr1, [r1, #-56]	; 0xffffffc8
    11d0:	080e5607 	stmdaeq	lr, {r0, r1, r2, r9, sl, ip, lr}
    11d4:	000d0d41 	andeq	r0, sp, r1, asr #26
    11d8:	0000000c 	andeq	r0, r0, ip
    11dc:	ffffffff 			; <UNDEFINED> instruction: 0xffffffff
    11e0:	7c020001 	stcvc	0, cr0, [r2], {1}
    11e4:	000d0c0e 	andeq	r0, sp, lr, lsl #24
    11e8:	00000024 	andeq	r0, r0, r4, lsr #32
    11ec:	000011d8 	ldrdeq	r1, [r0], -r8
    11f0:	00002b30 	andeq	r2, r0, r0, lsr fp
    11f4:	00000038 	andeq	r0, r0, r8, lsr r0
    11f8:	87040e41 	strhi	r0, [r4, -r1, asr #28]
    11fc:	100e4101 	andne	r4, lr, r1, lsl #2
    1200:	52070d41 	andpl	r0, r7, #4160	; 0x1040
    1204:	0d41040e 	cfstrdeq	mvd0, [r1, #-56]	; 0xffffffc8
    1208:	0ec7410d 	poleqs	f4, f7, #5.0
    120c:	00000000 	andeq	r0, r0, r0
    1210:	0000001c 	andeq	r0, r0, ip, lsl r0
    1214:	000011d8 	ldrdeq	r1, [r0], -r8
    1218:	00002b68 	andeq	r2, r0, r8, ror #22
    121c:	0000003c 	andeq	r0, r0, ip, lsr r0
    1220:	87080e41 	strhi	r0, [r8, -r1, asr #28]
    1224:	41018e02 	tstmi	r1, r2, lsl #28
    1228:	0d41100e 	stcleq	0, cr1, [r1, #-56]	; 0xffffffc8
    122c:	00000007 	andeq	r0, r0, r7
    1230:	0000001c 	andeq	r0, r0, ip, lsl r0
    1234:	000011d8 	ldrdeq	r1, [r0], -r8
    1238:	00002ba4 	andeq	r2, r0, r4, lsr #23
    123c:	00000038 	andeq	r0, r0, r8, lsr r0
    1240:	87080e41 	strhi	r0, [r8, -r1, asr #28]
    1244:	41018e02 	tstmi	r1, r2, lsl #28
    1248:	0c41200e 	mcrreq	0, 0, r2, r1, cr14
    124c:	00001807 	andeq	r1, r0, r7, lsl #16
    1250:	0000001c 	andeq	r0, r0, ip, lsl r0
    1254:	000011d8 	ldrdeq	r1, [r0], -r8
    1258:	00002bdc 	ldrdeq	r2, [r0], -ip
    125c:	00000020 	andeq	r0, r0, r0, lsr #32
    1260:	87080e41 	strhi	r0, [r8, -r1, asr #28]
    1264:	41018e02 	tstmi	r1, r2, lsl #28
    1268:	0d41100e 	stcleq	0, cr1, [r1, #-56]	; 0xffffffc8
    126c:	00000007 	andeq	r0, r0, r7
    1270:	0000001c 	andeq	r0, r0, ip, lsl r0
    1274:	000011d8 	ldrdeq	r1, [r0], -r8
    1278:	00002bfc 	strdeq	r2, [r0], -ip
    127c:	0000002c 	andeq	r0, r0, ip, lsr #32
    1280:	87080e41 	strhi	r0, [r8, -r1, asr #28]
    1284:	41018e02 	tstmi	r1, r2, lsl #28
    1288:	0d41100e 	stcleq	0, cr1, [r1, #-56]	; 0xffffffc8
    128c:	00000007 	andeq	r0, r0, r7
    1290:	0000001c 	andeq	r0, r0, ip, lsl r0
    1294:	000011d8 	ldrdeq	r1, [r0], -r8
    1298:	00002c28 	andeq	r2, r0, r8, lsr #24
    129c:	00000090 	muleq	r0, r0, r0
    12a0:	87080e41 	strhi	r0, [r8, -r1, asr #28]
    12a4:	41018e02 	tstmi	r1, r2, lsl #28
    12a8:	0c41100e 	mcrreq	0, 0, r1, r1, cr14
    12ac:	00000807 	andeq	r0, r0, r7, lsl #16
    12b0:	0000000c 	andeq	r0, r0, ip
    12b4:	ffffffff 			; <UNDEFINED> instruction: 0xffffffff
    12b8:	7c020001 	stcvc	0, cr0, [r2], {1}
    12bc:	000d0c0e 	andeq	r0, sp, lr, lsl #24
    12c0:	00000018 	andeq	r0, r0, r8, lsl r0
    12c4:	000012b0 			; <UNDEFINED> instruction: 0x000012b0
    12c8:	00002cb8 			; <UNDEFINED> instruction: 0x00002cb8
    12cc:	00000018 	andeq	r0, r0, r8, lsl r0
    12d0:	87080e41 	strhi	r0, [r8, -r1, asr #28]
    12d4:	41018e02 	tstmi	r1, r2, lsl #28
    12d8:	0000070d 	andeq	r0, r0, sp, lsl #14
