
bin/rtos.elf:     file format elf32-littlearm


Disassembly of section .text:

00000000 <g_pfnVectors>:
       0:	2000c000 	andcs	ip, r0, r0
       4:	00000c5d 	andeq	r0, r0, sp, asr ip
       8:	0000026d 	andeq	r0, r0, sp, ror #4
       c:	00000273 	andeq	r0, r0, r3, ror r2
      10:	00000279 	andeq	r0, r0, r9, ror r2
      14:	00000279 	andeq	r0, r0, r9, ror r2
      18:	00000279 	andeq	r0, r0, r9, ror r2
	...
      2c:	00000279 	andeq	r0, r0, r9, ror r2
      30:	00000279 	andeq	r0, r0, r9, ror r2
      34:	00000000 	andeq	r0, r0, r0
      38:	00000c93 	muleq	r0, r3, ip
      3c:	000002cd 	andeq	r0, r0, sp, asr #5
      40:	00000279 	andeq	r0, r0, r9, ror r2
      44:	00000279 	andeq	r0, r0, r9, ror r2
      48:	00000279 	andeq	r0, r0, r9, ror r2
      4c:	00000279 	andeq	r0, r0, r9, ror r2
      50:	00000279 	andeq	r0, r0, r9, ror r2
      54:	00000279 	andeq	r0, r0, r9, ror r2
      58:	00000279 	andeq	r0, r0, r9, ror r2
      5c:	00000279 	andeq	r0, r0, r9, ror r2
      60:	00000279 	andeq	r0, r0, r9, ror r2
      64:	00000279 	andeq	r0, r0, r9, ror r2
      68:	00000279 	andeq	r0, r0, r9, ror r2
      6c:	00000279 	andeq	r0, r0, r9, ror r2
      70:	00000279 	andeq	r0, r0, r9, ror r2
      74:	00000279 	andeq	r0, r0, r9, ror r2
      78:	00000279 	andeq	r0, r0, r9, ror r2
      7c:	00000279 	andeq	r0, r0, r9, ror r2
      80:	00000279 	andeq	r0, r0, r9, ror r2
      84:	00000279 	andeq	r0, r0, r9, ror r2
      88:	00000279 	andeq	r0, r0, r9, ror r2
      8c:	00000279 	andeq	r0, r0, r9, ror r2
      90:	00000279 	andeq	r0, r0, r9, ror r2
      94:	00000279 	andeq	r0, r0, r9, ror r2
      98:	00000279 	andeq	r0, r0, r9, ror r2
      9c:	00000279 	andeq	r0, r0, r9, ror r2
      a0:	00000279 	andeq	r0, r0, r9, ror r2
      a4:	00000279 	andeq	r0, r0, r9, ror r2
      a8:	00000279 	andeq	r0, r0, r9, ror r2
      ac:	00000279 	andeq	r0, r0, r9, ror r2
      b0:	00000279 	andeq	r0, r0, r9, ror r2
      b4:	00000279 	andeq	r0, r0, r9, ror r2
      b8:	00000279 	andeq	r0, r0, r9, ror r2
      bc:	00000279 	andeq	r0, r0, r9, ror r2
      c0:	00000279 	andeq	r0, r0, r9, ror r2
      c4:	00000279 	andeq	r0, r0, r9, ror r2
      c8:	00000279 	andeq	r0, r0, r9, ror r2
      cc:	00000279 	andeq	r0, r0, r9, ror r2
      d0:	00000279 	andeq	r0, r0, r9, ror r2
      d4:	00000279 	andeq	r0, r0, r9, ror r2
      d8:	00000279 	andeq	r0, r0, r9, ror r2
      dc:	00000279 	andeq	r0, r0, r9, ror r2
      e0:	00000279 	andeq	r0, r0, r9, ror r2
      e4:	00000279 	andeq	r0, r0, r9, ror r2
      e8:	00000279 	andeq	r0, r0, r9, ror r2
      ec:	00000279 	andeq	r0, r0, r9, ror r2
      f0:	00000279 	andeq	r0, r0, r9, ror r2
      f4:	00000279 	andeq	r0, r0, r9, ror r2
      f8:	00000279 	andeq	r0, r0, r9, ror r2
      fc:	00000279 	andeq	r0, r0, r9, ror r2
     100:	00000279 	andeq	r0, r0, r9, ror r2
     104:	00000279 	andeq	r0, r0, r9, ror r2
     108:	00000279 	andeq	r0, r0, r9, ror r2
     10c:	00000279 	andeq	r0, r0, r9, ror r2
     110:	00000279 	andeq	r0, r0, r9, ror r2
     114:	00000279 	andeq	r0, r0, r9, ror r2
     118:	00000279 	andeq	r0, r0, r9, ror r2
     11c:	00000279 	andeq	r0, r0, r9, ror r2
     120:	00000279 	andeq	r0, r0, r9, ror r2
     124:	00000279 	andeq	r0, r0, r9, ror r2
     128:	00000279 	andeq	r0, r0, r9, ror r2
     12c:	00000279 	andeq	r0, r0, r9, ror r2
     130:	00000279 	andeq	r0, r0, r9, ror r2
     134:	00000279 	andeq	r0, r0, r9, ror r2
     138:	00000279 	andeq	r0, r0, r9, ror r2
     13c:	00000279 	andeq	r0, r0, r9, ror r2
	...
     150:	00000279 	andeq	r0, r0, r9, ror r2
     154:	00000279 	andeq	r0, r0, r9, ror r2
     158:	00000279 	andeq	r0, r0, r9, ror r2
     15c:	00000279 	andeq	r0, r0, r9, ror r2
	...
     1b0:	00000279 	andeq	r0, r0, r9, ror r2
     1b4:	00000279 	andeq	r0, r0, r9, ror r2
     1b8:	00000279 	andeq	r0, r0, r9, ror r2
     1bc:	00000279 	andeq	r0, r0, r9, ror r2
     1c0:	00000279 	andeq	r0, r0, r9, ror r2
     1c4:	00000279 	andeq	r0, r0, r9, ror r2
     1c8:	00000279 	andeq	r0, r0, r9, ror r2
     1cc:	00000279 	andeq	r0, r0, r9, ror r2
     1d0:	00000279 	andeq	r0, r0, r9, ror r2
     1d4:	00000279 	andeq	r0, r0, r9, ror r2
     1d8:	00000279 	andeq	r0, r0, r9, ror r2
     1dc:	00000279 	andeq	r0, r0, r9, ror r2
     1e0:	00000279 	andeq	r0, r0, r9, ror r2
     1e4:	00000279 	andeq	r0, r0, r9, ror r2
     1e8:	00000279 	andeq	r0, r0, r9, ror r2
     1ec:	00000279 	andeq	r0, r0, r9, ror r2
     1f0:	00000279 	andeq	r0, r0, r9, ror r2
     1f4:	00000279 	andeq	r0, r0, r9, ror r2
     1f8:	00000279 	andeq	r0, r0, r9, ror r2
     1fc:	00000279 	andeq	r0, r0, r9, ror r2
     200:	00000279 	andeq	r0, r0, r9, ror r2
     204:	00000279 	andeq	r0, r0, r9, ror r2
     208:	00000279 	andeq	r0, r0, r9, ror r2
     20c:	00000000 	andeq	r0, r0, r0
     210:	00000279 	andeq	r0, r0, r9, ror r2
     214:	00000279 	andeq	r0, r0, r9, ror r2
     218:	00000279 	andeq	r0, r0, r9, ror r2
     21c:	00000279 	andeq	r0, r0, r9, ror r2
     220:	00000279 	andeq	r0, r0, r9, ror r2
     224:	00000279 	andeq	r0, r0, r9, ror r2
     228:	00000279 	andeq	r0, r0, r9, ror r2
     22c:	00000279 	andeq	r0, r0, r9, ror r2
     230:	00000279 	andeq	r0, r0, r9, ror r2
     234:	00000279 	andeq	r0, r0, r9, ror r2
     238:	00000279 	andeq	r0, r0, r9, ror r2
     23c:	00000279 	andeq	r0, r0, r9, ror r2
     240:	00000279 	andeq	r0, r0, r9, ror r2
     244:	00000279 	andeq	r0, r0, r9, ror r2
     248:	00000279 	andeq	r0, r0, r9, ror r2
     24c:	00000279 	andeq	r0, r0, r9, ror r2
     250:	00000279 	andeq	r0, r0, r9, ror r2
     254:	00000279 	andeq	r0, r0, r9, ror r2
     258:	00000279 	andeq	r0, r0, r9, ror r2
     25c:	00000279 	andeq	r0, r0, r9, ror r2
     260:	00000279 	andeq	r0, r0, r9, ror r2
     264:	00000279 	andeq	r0, r0, r9, ror r2
     268:	00000279 	andeq	r0, r0, r9, ror r2

0000026c <NmiSR>:
     26c:	b480      	push	{r7}
     26e:	af00      	add	r7, sp, #0
     270:	e7fe      	b.n	270 <NmiSR+0x4>

00000272 <FaultISR>:
     272:	b480      	push	{r7}
     274:	af00      	add	r7, sp, #0
     276:	e7fe      	b.n	276 <FaultISR+0x4>

00000278 <IntDefaultHandler>:
     278:	b580      	push	{r7, lr}
     27a:	af00      	add	r7, sp, #0
     27c:	4801      	ldr	r0, [pc, #4]	; (284 <IntDefaultHandler+0xc>)
     27e:	f000 fa91 	bl	7a4 <printk>
     282:	e7fe      	b.n	282 <IntDefaultHandler+0xa>
     284:	00002cd0 	ldrdeq	r2, [r0], -r0

00000288 <init_systick>:
     288:	b480      	push	{r7}
     28a:	b085      	sub	sp, #20
     28c:	af00      	add	r7, sp, #0
     28e:	6078      	str	r0, [r7, #4]
     290:	4b0c      	ldr	r3, [pc, #48]	; (2c4 <init_systick+0x3c>)
     292:	60fb      	str	r3, [r7, #12]
     294:	4b0c      	ldr	r3, [pc, #48]	; (2c8 <init_systick+0x40>)
     296:	60bb      	str	r3, [r7, #8]
     298:	68bb      	ldr	r3, [r7, #8]
     29a:	22f0      	movs	r2, #240	; 0xf0
     29c:	701a      	strb	r2, [r3, #0]
     29e:	687b      	ldr	r3, [r7, #4]
     2a0:	f642 62e0 	movw	r2, #12000	; 0x2ee0
     2a4:	fb02 f303 	mul.w	r3, r2, r3
     2a8:	1e5a      	subs	r2, r3, #1
     2aa:	68fb      	ldr	r3, [r7, #12]
     2ac:	605a      	str	r2, [r3, #4]
     2ae:	68fb      	ldr	r3, [r7, #12]
     2b0:	2200      	movs	r2, #0
     2b2:	609a      	str	r2, [r3, #8]
     2b4:	68fb      	ldr	r3, [r7, #12]
     2b6:	2207      	movs	r2, #7
     2b8:	601a      	str	r2, [r3, #0]
     2ba:	bf00      	nop
     2bc:	3714      	adds	r7, #20
     2be:	46bd      	mov	sp, r7
     2c0:	bc80      	pop	{r7}
     2c2:	4770      	bx	lr
     2c4:	e000e010 	and	lr, r0, r0, lsl r0
     2c8:	e000ed23 	and	lr, r0, r3, lsr #26

000002cc <systick_handler>:
     2cc:	b580      	push	{r7, lr}
     2ce:	af00      	add	r7, sp, #0
     2d0:	f000 fe3d 	bl	f4e <task_system_tick_handler>
     2d4:	bf00      	nop
     2d6:	bd80      	pop	{r7, pc}

000002d8 <trigger_pend_sv>:
     2d8:	b480      	push	{r7}
     2da:	af00      	add	r7, sp, #0
     2dc:	4b05      	ldr	r3, [pc, #20]	; (2f4 <trigger_pend_sv+0x1c>)
     2de:	22ff      	movs	r2, #255	; 0xff
     2e0:	701a      	strb	r2, [r3, #0]
     2e2:	4b05      	ldr	r3, [pc, #20]	; (2f8 <trigger_pend_sv+0x20>)
     2e4:	f04f 5280 	mov.w	r2, #268435456	; 0x10000000
     2e8:	601a      	str	r2, [r3, #0]
     2ea:	bf00      	nop
     2ec:	46bd      	mov	sp, r7
     2ee:	bc80      	pop	{r7}
     2f0:	4770      	bx	lr
     2f2:	bf00      	nop
     2f4:	e000ed22 	and	lr, r0, r2, lsr #26
     2f8:	e000ed04 	and	lr, r0, r4, lsl #26

000002fc <send_char>:
     2fc:	b480      	push	{r7}
     2fe:	b083      	sub	sp, #12
     300:	af00      	add	r7, sp, #0
     302:	6078      	str	r0, [r7, #4]
     304:	687b      	ldr	r3, [r7, #4]
     306:	781a      	ldrb	r2, [r3, #0]
     308:	4b04      	ldr	r3, [pc, #16]	; (31c <send_char+0x20>)
     30a:	601a      	str	r2, [r3, #0]
     30c:	687b      	ldr	r3, [r7, #4]
     30e:	781b      	ldrb	r3, [r3, #0]
     310:	4618      	mov	r0, r3
     312:	370c      	adds	r7, #12
     314:	46bd      	mov	sp, r7
     316:	bc80      	pop	{r7}
     318:	4770      	bx	lr
     31a:	bf00      	nop
     31c:	4000c000 	andmi	ip, r0, r0

00000320 <is_dec_asc>:
     320:	b480      	push	{r7}
     322:	b085      	sub	sp, #20
     324:	af00      	add	r7, sp, #0
     326:	4603      	mov	r3, r0
     328:	71fb      	strb	r3, [r7, #7]
     32a:	2300      	movs	r3, #0
     32c:	60fb      	str	r3, [r7, #12]
     32e:	e00b      	b.n	348 <is_dec_asc+0x28>
     330:	4a0a      	ldr	r2, [pc, #40]	; (35c <is_dec_asc+0x3c>)
     332:	68fb      	ldr	r3, [r7, #12]
     334:	4413      	add	r3, r2
     336:	781b      	ldrb	r3, [r3, #0]
     338:	79fa      	ldrb	r2, [r7, #7]
     33a:	429a      	cmp	r2, r3
     33c:	d101      	bne.n	342 <is_dec_asc+0x22>
     33e:	2301      	movs	r3, #1
     340:	e006      	b.n	350 <is_dec_asc+0x30>
     342:	68fb      	ldr	r3, [r7, #12]
     344:	3301      	adds	r3, #1
     346:	60fb      	str	r3, [r7, #12]
     348:	68fb      	ldr	r3, [r7, #12]
     34a:	2b09      	cmp	r3, #9
     34c:	d9f0      	bls.n	330 <is_dec_asc+0x10>
     34e:	2300      	movs	r3, #0
     350:	4618      	mov	r0, r3
     352:	3714      	adds	r7, #20
     354:	46bd      	mov	sp, r7
     356:	bc80      	pop	{r7}
     358:	4770      	bx	lr
     35a:	bf00      	nop
     35c:	00002ce8 	andeq	r2, r0, r8, ror #25

00000360 <is_asc>:
     360:	b480      	push	{r7}
     362:	b083      	sub	sp, #12
     364:	af00      	add	r7, sp, #0
     366:	4603      	mov	r3, r0
     368:	71fb      	strb	r3, [r7, #7]
     36a:	79fb      	ldrb	r3, [r7, #7]
     36c:	2b40      	cmp	r3, #64	; 0x40
     36e:	d902      	bls.n	376 <is_asc+0x16>
     370:	79fb      	ldrb	r3, [r7, #7]
     372:	2b5a      	cmp	r3, #90	; 0x5a
     374:	d905      	bls.n	382 <is_asc+0x22>
     376:	79fb      	ldrb	r3, [r7, #7]
     378:	2b60      	cmp	r3, #96	; 0x60
     37a:	d904      	bls.n	386 <is_asc+0x26>
     37c:	79fb      	ldrb	r3, [r7, #7]
     37e:	2b7a      	cmp	r3, #122	; 0x7a
     380:	d801      	bhi.n	386 <is_asc+0x26>
     382:	2301      	movs	r3, #1
     384:	e000      	b.n	388 <is_asc+0x28>
     386:	2300      	movs	r3, #0
     388:	4618      	mov	r0, r3
     38a:	370c      	adds	r7, #12
     38c:	46bd      	mov	sp, r7
     38e:	bc80      	pop	{r7}
     390:	4770      	bx	lr

00000392 <is_hex_asc>:
     392:	b480      	push	{r7}
     394:	b083      	sub	sp, #12
     396:	af00      	add	r7, sp, #0
     398:	4603      	mov	r3, r0
     39a:	71fb      	strb	r3, [r7, #7]
     39c:	79fb      	ldrb	r3, [r7, #7]
     39e:	2b2f      	cmp	r3, #47	; 0x2f
     3a0:	d902      	bls.n	3a8 <is_hex_asc+0x16>
     3a2:	79fb      	ldrb	r3, [r7, #7]
     3a4:	2b39      	cmp	r3, #57	; 0x39
     3a6:	d90b      	bls.n	3c0 <is_hex_asc+0x2e>
     3a8:	79fb      	ldrb	r3, [r7, #7]
     3aa:	2b40      	cmp	r3, #64	; 0x40
     3ac:	d902      	bls.n	3b4 <is_hex_asc+0x22>
     3ae:	79fb      	ldrb	r3, [r7, #7]
     3b0:	2b46      	cmp	r3, #70	; 0x46
     3b2:	d905      	bls.n	3c0 <is_hex_asc+0x2e>
     3b4:	79fb      	ldrb	r3, [r7, #7]
     3b6:	2b60      	cmp	r3, #96	; 0x60
     3b8:	d904      	bls.n	3c4 <is_hex_asc+0x32>
     3ba:	79fb      	ldrb	r3, [r7, #7]
     3bc:	2b66      	cmp	r3, #102	; 0x66
     3be:	d801      	bhi.n	3c4 <is_hex_asc+0x32>
     3c0:	2301      	movs	r3, #1
     3c2:	e000      	b.n	3c6 <is_hex_asc+0x34>
     3c4:	2300      	movs	r3, #0
     3c6:	4618      	mov	r0, r3
     3c8:	370c      	adds	r7, #12
     3ca:	46bd      	mov	sp, r7
     3cc:	bc80      	pop	{r7}
     3ce:	4770      	bx	lr

000003d0 <printf_char>:
     3d0:	b580      	push	{r7, lr}
     3d2:	b084      	sub	sp, #16
     3d4:	af00      	add	r7, sp, #0
     3d6:	4603      	mov	r3, r0
     3d8:	71fb      	strb	r3, [r7, #7]
     3da:	230d      	movs	r3, #13
     3dc:	73fb      	strb	r3, [r7, #15]
     3de:	2300      	movs	r3, #0
     3e0:	73bb      	strb	r3, [r7, #14]
     3e2:	79fb      	ldrb	r3, [r7, #7]
     3e4:	73bb      	strb	r3, [r7, #14]
     3e6:	f107 030e 	add.w	r3, r7, #14
     3ea:	4618      	mov	r0, r3
     3ec:	f7ff ff86 	bl	2fc <send_char>
     3f0:	7bbb      	ldrb	r3, [r7, #14]
     3f2:	2b0a      	cmp	r3, #10
     3f4:	d104      	bne.n	400 <printf_char+0x30>
     3f6:	f107 030f 	add.w	r3, r7, #15
     3fa:	4618      	mov	r0, r3
     3fc:	f7ff ff7e 	bl	2fc <send_char>
     400:	2300      	movs	r3, #0
     402:	4618      	mov	r0, r3
     404:	3710      	adds	r7, #16
     406:	46bd      	mov	sp, r7
     408:	bd80      	pop	{r7, pc}

0000040a <printf_str>:
     40a:	b580      	push	{r7, lr}
     40c:	b082      	sub	sp, #8
     40e:	af00      	add	r7, sp, #0
     410:	6078      	str	r0, [r7, #4]
     412:	e007      	b.n	424 <printf_str+0x1a>
     414:	687b      	ldr	r3, [r7, #4]
     416:	781b      	ldrb	r3, [r3, #0]
     418:	4618      	mov	r0, r3
     41a:	f7ff ffd9 	bl	3d0 <printf_char>
     41e:	687b      	ldr	r3, [r7, #4]
     420:	3301      	adds	r3, #1
     422:	607b      	str	r3, [r7, #4]
     424:	687b      	ldr	r3, [r7, #4]
     426:	2b00      	cmp	r3, #0
     428:	d003      	beq.n	432 <printf_str+0x28>
     42a:	687b      	ldr	r3, [r7, #4]
     42c:	781b      	ldrb	r3, [r3, #0]
     42e:	2b00      	cmp	r3, #0
     430:	d1f0      	bne.n	414 <printf_str+0xa>
     432:	2300      	movs	r3, #0
     434:	4618      	mov	r0, r3
     436:	3708      	adds	r7, #8
     438:	46bd      	mov	sp, r7
     43a:	bd80      	pop	{r7, pc}

0000043c <printf_hex>:
     43c:	b580      	push	{r7, lr}
     43e:	b084      	sub	sp, #16
     440:	af00      	add	r7, sp, #0
     442:	6078      	str	r0, [r7, #4]
     444:	6039      	str	r1, [r7, #0]
     446:	2300      	movs	r3, #0
     448:	60fb      	str	r3, [r7, #12]
     44a:	2300      	movs	r3, #0
     44c:	72fb      	strb	r3, [r7, #11]
     44e:	2300      	movs	r3, #0
     450:	72bb      	strb	r3, [r7, #10]
     452:	683b      	ldr	r3, [r7, #0]
     454:	2b08      	cmp	r3, #8
     456:	d802      	bhi.n	45e <printf_hex+0x22>
     458:	683b      	ldr	r3, [r7, #0]
     45a:	2b00      	cmp	r3, #0
     45c:	d101      	bne.n	462 <printf_hex+0x26>
     45e:	2308      	movs	r3, #8
     460:	603b      	str	r3, [r7, #0]
     462:	683b      	ldr	r3, [r7, #0]
     464:	3b01      	subs	r3, #1
     466:	60fb      	str	r3, [r7, #12]
     468:	e017      	b.n	49a <printf_hex+0x5e>
     46a:	68fb      	ldr	r3, [r7, #12]
     46c:	009b      	lsls	r3, r3, #2
     46e:	220f      	movs	r2, #15
     470:	fa02 f303 	lsl.w	r3, r2, r3
     474:	461a      	mov	r2, r3
     476:	687b      	ldr	r3, [r7, #4]
     478:	401a      	ands	r2, r3
     47a:	68fb      	ldr	r3, [r7, #12]
     47c:	009b      	lsls	r3, r3, #2
     47e:	fa22 f303 	lsr.w	r3, r2, r3
     482:	72fb      	strb	r3, [r7, #11]
     484:	7afb      	ldrb	r3, [r7, #11]
     486:	4a09      	ldr	r2, [pc, #36]	; (4ac <printf_hex+0x70>)
     488:	5cd3      	ldrb	r3, [r2, r3]
     48a:	72bb      	strb	r3, [r7, #10]
     48c:	7abb      	ldrb	r3, [r7, #10]
     48e:	4618      	mov	r0, r3
     490:	f7ff ff9e 	bl	3d0 <printf_char>
     494:	68fb      	ldr	r3, [r7, #12]
     496:	3b01      	subs	r3, #1
     498:	60fb      	str	r3, [r7, #12]
     49a:	68fb      	ldr	r3, [r7, #12]
     49c:	2b00      	cmp	r3, #0
     49e:	dae4      	bge.n	46a <printf_hex+0x2e>
     4a0:	2300      	movs	r3, #0
     4a2:	4618      	mov	r0, r3
     4a4:	3710      	adds	r7, #16
     4a6:	46bd      	mov	sp, r7
     4a8:	bd80      	pop	{r7, pc}
     4aa:	bf00      	nop
     4ac:	00002ce8 	andeq	r2, r0, r8, ror #25

000004b0 <printf_hex_upper>:
     4b0:	b580      	push	{r7, lr}
     4b2:	b084      	sub	sp, #16
     4b4:	af00      	add	r7, sp, #0
     4b6:	6078      	str	r0, [r7, #4]
     4b8:	6039      	str	r1, [r7, #0]
     4ba:	2300      	movs	r3, #0
     4bc:	60fb      	str	r3, [r7, #12]
     4be:	2300      	movs	r3, #0
     4c0:	72fb      	strb	r3, [r7, #11]
     4c2:	2300      	movs	r3, #0
     4c4:	72bb      	strb	r3, [r7, #10]
     4c6:	683b      	ldr	r3, [r7, #0]
     4c8:	2b08      	cmp	r3, #8
     4ca:	d802      	bhi.n	4d2 <printf_hex_upper+0x22>
     4cc:	683b      	ldr	r3, [r7, #0]
     4ce:	2b00      	cmp	r3, #0
     4d0:	d101      	bne.n	4d6 <printf_hex_upper+0x26>
     4d2:	2308      	movs	r3, #8
     4d4:	603b      	str	r3, [r7, #0]
     4d6:	683b      	ldr	r3, [r7, #0]
     4d8:	3b01      	subs	r3, #1
     4da:	60fb      	str	r3, [r7, #12]
     4dc:	e017      	b.n	50e <printf_hex_upper+0x5e>
     4de:	68fb      	ldr	r3, [r7, #12]
     4e0:	009b      	lsls	r3, r3, #2
     4e2:	220f      	movs	r2, #15
     4e4:	fa02 f303 	lsl.w	r3, r2, r3
     4e8:	461a      	mov	r2, r3
     4ea:	687b      	ldr	r3, [r7, #4]
     4ec:	401a      	ands	r2, r3
     4ee:	68fb      	ldr	r3, [r7, #12]
     4f0:	009b      	lsls	r3, r3, #2
     4f2:	fa22 f303 	lsr.w	r3, r2, r3
     4f6:	72fb      	strb	r3, [r7, #11]
     4f8:	7afb      	ldrb	r3, [r7, #11]
     4fa:	4a09      	ldr	r2, [pc, #36]	; (520 <printf_hex_upper+0x70>)
     4fc:	5cd3      	ldrb	r3, [r2, r3]
     4fe:	72bb      	strb	r3, [r7, #10]
     500:	7abb      	ldrb	r3, [r7, #10]
     502:	4618      	mov	r0, r3
     504:	f7ff ff64 	bl	3d0 <printf_char>
     508:	68fb      	ldr	r3, [r7, #12]
     50a:	3b01      	subs	r3, #1
     50c:	60fb      	str	r3, [r7, #12]
     50e:	68fb      	ldr	r3, [r7, #12]
     510:	2b00      	cmp	r3, #0
     512:	dae4      	bge.n	4de <printf_hex_upper+0x2e>
     514:	2300      	movs	r3, #0
     516:	4618      	mov	r0, r3
     518:	3710      	adds	r7, #16
     51a:	46bd      	mov	sp, r7
     51c:	bd80      	pop	{r7, pc}
     51e:	bf00      	nop
     520:	00002cf8 	strdeq	r2, [r0], -r8

00000524 <printf_dec>:
     524:	b580      	push	{r7, lr}
     526:	b086      	sub	sp, #24
     528:	af00      	add	r7, sp, #0
     52a:	6078      	str	r0, [r7, #4]
     52c:	2300      	movs	r3, #0
     52e:	617b      	str	r3, [r7, #20]
     530:	2301      	movs	r3, #1
     532:	613b      	str	r3, [r7, #16]
     534:	2301      	movs	r3, #1
     536:	60fb      	str	r3, [r7, #12]
     538:	2300      	movs	r3, #0
     53a:	72fb      	strb	r3, [r7, #11]
     53c:	693b      	ldr	r3, [r7, #16]
     53e:	00da      	lsls	r2, r3, #3
     540:	693b      	ldr	r3, [r7, #16]
     542:	005b      	lsls	r3, r3, #1
     544:	4413      	add	r3, r2
     546:	613b      	str	r3, [r7, #16]
     548:	697b      	ldr	r3, [r7, #20]
     54a:	3301      	adds	r3, #1
     54c:	617b      	str	r3, [r7, #20]
     54e:	693a      	ldr	r2, [r7, #16]
     550:	687b      	ldr	r3, [r7, #4]
     552:	429a      	cmp	r2, r3
     554:	d800      	bhi.n	558 <printf_dec+0x34>
     556:	e7f1      	b.n	53c <printf_dec+0x18>
     558:	bf00      	nop
     55a:	697b      	ldr	r3, [r7, #20]
     55c:	2b08      	cmp	r3, #8
     55e:	f240 810c 	bls.w	77a <printf_dec+0x256>
     562:	f04f 33ff 	mov.w	r3, #4294967295	; 0xffffffff
     566:	e10d      	b.n	784 <printf_dec+0x260>
     568:	697b      	ldr	r3, [r7, #20]
     56a:	3b01      	subs	r3, #1
     56c:	4a87      	ldr	r2, [pc, #540]	; (78c <printf_dec+0x268>)
     56e:	f852 3023 	ldr.w	r3, [r2, r3, lsl #2]
     572:	00da      	lsls	r2, r3, #3
     574:	697b      	ldr	r3, [r7, #20]
     576:	3b01      	subs	r3, #1
     578:	4984      	ldr	r1, [pc, #528]	; (78c <printf_dec+0x268>)
     57a:	f851 3023 	ldr.w	r3, [r1, r3, lsl #2]
     57e:	4413      	add	r3, r2
     580:	687a      	ldr	r2, [r7, #4]
     582:	429a      	cmp	r2, r3
     584:	d30f      	bcc.n	5a6 <printf_dec+0x82>
     586:	2309      	movs	r3, #9
     588:	613b      	str	r3, [r7, #16]
     58a:	697b      	ldr	r3, [r7, #20]
     58c:	3b01      	subs	r3, #1
     58e:	4a7f      	ldr	r2, [pc, #508]	; (78c <printf_dec+0x268>)
     590:	f852 3023 	ldr.w	r3, [r2, r3, lsl #2]
     594:	00da      	lsls	r2, r3, #3
     596:	697b      	ldr	r3, [r7, #20]
     598:	3b01      	subs	r3, #1
     59a:	497c      	ldr	r1, [pc, #496]	; (78c <printf_dec+0x268>)
     59c:	f851 3023 	ldr.w	r3, [r1, r3, lsl #2]
     5a0:	4413      	add	r3, r2
     5a2:	60fb      	str	r3, [r7, #12]
     5a4:	e0d9      	b.n	75a <printf_dec+0x236>
     5a6:	697b      	ldr	r3, [r7, #20]
     5a8:	3b01      	subs	r3, #1
     5aa:	4a78      	ldr	r2, [pc, #480]	; (78c <printf_dec+0x268>)
     5ac:	f852 3023 	ldr.w	r3, [r2, r3, lsl #2]
     5b0:	00db      	lsls	r3, r3, #3
     5b2:	687a      	ldr	r2, [r7, #4]
     5b4:	429a      	cmp	r2, r3
     5b6:	d309      	bcc.n	5cc <printf_dec+0xa8>
     5b8:	2308      	movs	r3, #8
     5ba:	613b      	str	r3, [r7, #16]
     5bc:	697b      	ldr	r3, [r7, #20]
     5be:	3b01      	subs	r3, #1
     5c0:	4a72      	ldr	r2, [pc, #456]	; (78c <printf_dec+0x268>)
     5c2:	f852 3023 	ldr.w	r3, [r2, r3, lsl #2]
     5c6:	00db      	lsls	r3, r3, #3
     5c8:	60fb      	str	r3, [r7, #12]
     5ca:	e0c6      	b.n	75a <printf_dec+0x236>
     5cc:	697b      	ldr	r3, [r7, #20]
     5ce:	3b01      	subs	r3, #1
     5d0:	4a6e      	ldr	r2, [pc, #440]	; (78c <printf_dec+0x268>)
     5d2:	f852 3023 	ldr.w	r3, [r2, r3, lsl #2]
     5d6:	009a      	lsls	r2, r3, #2
     5d8:	697b      	ldr	r3, [r7, #20]
     5da:	3b01      	subs	r3, #1
     5dc:	496b      	ldr	r1, [pc, #428]	; (78c <printf_dec+0x268>)
     5de:	f851 3023 	ldr.w	r3, [r1, r3, lsl #2]
     5e2:	005b      	lsls	r3, r3, #1
     5e4:	441a      	add	r2, r3
     5e6:	697b      	ldr	r3, [r7, #20]
     5e8:	3b01      	subs	r3, #1
     5ea:	4968      	ldr	r1, [pc, #416]	; (78c <printf_dec+0x268>)
     5ec:	f851 3023 	ldr.w	r3, [r1, r3, lsl #2]
     5f0:	4413      	add	r3, r2
     5f2:	687a      	ldr	r2, [r7, #4]
     5f4:	429a      	cmp	r2, r3
     5f6:	d316      	bcc.n	626 <printf_dec+0x102>
     5f8:	2307      	movs	r3, #7
     5fa:	613b      	str	r3, [r7, #16]
     5fc:	697b      	ldr	r3, [r7, #20]
     5fe:	3b01      	subs	r3, #1
     600:	4a62      	ldr	r2, [pc, #392]	; (78c <printf_dec+0x268>)
     602:	f852 3023 	ldr.w	r3, [r2, r3, lsl #2]
     606:	009a      	lsls	r2, r3, #2
     608:	697b      	ldr	r3, [r7, #20]
     60a:	3b01      	subs	r3, #1
     60c:	495f      	ldr	r1, [pc, #380]	; (78c <printf_dec+0x268>)
     60e:	f851 3023 	ldr.w	r3, [r1, r3, lsl #2]
     612:	005b      	lsls	r3, r3, #1
     614:	441a      	add	r2, r3
     616:	697b      	ldr	r3, [r7, #20]
     618:	3b01      	subs	r3, #1
     61a:	495c      	ldr	r1, [pc, #368]	; (78c <printf_dec+0x268>)
     61c:	f851 3023 	ldr.w	r3, [r1, r3, lsl #2]
     620:	4413      	add	r3, r2
     622:	60fb      	str	r3, [r7, #12]
     624:	e099      	b.n	75a <printf_dec+0x236>
     626:	697b      	ldr	r3, [r7, #20]
     628:	3b01      	subs	r3, #1
     62a:	4a58      	ldr	r2, [pc, #352]	; (78c <printf_dec+0x268>)
     62c:	f852 3023 	ldr.w	r3, [r2, r3, lsl #2]
     630:	009a      	lsls	r2, r3, #2
     632:	697b      	ldr	r3, [r7, #20]
     634:	3b01      	subs	r3, #1
     636:	4955      	ldr	r1, [pc, #340]	; (78c <printf_dec+0x268>)
     638:	f851 3023 	ldr.w	r3, [r1, r3, lsl #2]
     63c:	005b      	lsls	r3, r3, #1
     63e:	4413      	add	r3, r2
     640:	687a      	ldr	r2, [r7, #4]
     642:	429a      	cmp	r2, r3
     644:	d310      	bcc.n	668 <printf_dec+0x144>
     646:	2306      	movs	r3, #6
     648:	613b      	str	r3, [r7, #16]
     64a:	697b      	ldr	r3, [r7, #20]
     64c:	3b01      	subs	r3, #1
     64e:	4a4f      	ldr	r2, [pc, #316]	; (78c <printf_dec+0x268>)
     650:	f852 3023 	ldr.w	r3, [r2, r3, lsl #2]
     654:	009a      	lsls	r2, r3, #2
     656:	697b      	ldr	r3, [r7, #20]
     658:	3b01      	subs	r3, #1
     65a:	494c      	ldr	r1, [pc, #304]	; (78c <printf_dec+0x268>)
     65c:	f851 3023 	ldr.w	r3, [r1, r3, lsl #2]
     660:	005b      	lsls	r3, r3, #1
     662:	4413      	add	r3, r2
     664:	60fb      	str	r3, [r7, #12]
     666:	e078      	b.n	75a <printf_dec+0x236>
     668:	697b      	ldr	r3, [r7, #20]
     66a:	3b01      	subs	r3, #1
     66c:	4a47      	ldr	r2, [pc, #284]	; (78c <printf_dec+0x268>)
     66e:	f852 3023 	ldr.w	r3, [r2, r3, lsl #2]
     672:	009a      	lsls	r2, r3, #2
     674:	697b      	ldr	r3, [r7, #20]
     676:	3b01      	subs	r3, #1
     678:	4944      	ldr	r1, [pc, #272]	; (78c <printf_dec+0x268>)
     67a:	f851 3023 	ldr.w	r3, [r1, r3, lsl #2]
     67e:	4413      	add	r3, r2
     680:	687a      	ldr	r2, [r7, #4]
     682:	429a      	cmp	r2, r3
     684:	d30f      	bcc.n	6a6 <printf_dec+0x182>
     686:	2305      	movs	r3, #5
     688:	613b      	str	r3, [r7, #16]
     68a:	697b      	ldr	r3, [r7, #20]
     68c:	3b01      	subs	r3, #1
     68e:	4a3f      	ldr	r2, [pc, #252]	; (78c <printf_dec+0x268>)
     690:	f852 3023 	ldr.w	r3, [r2, r3, lsl #2]
     694:	009a      	lsls	r2, r3, #2
     696:	697b      	ldr	r3, [r7, #20]
     698:	3b01      	subs	r3, #1
     69a:	493c      	ldr	r1, [pc, #240]	; (78c <printf_dec+0x268>)
     69c:	f851 3023 	ldr.w	r3, [r1, r3, lsl #2]
     6a0:	4413      	add	r3, r2
     6a2:	60fb      	str	r3, [r7, #12]
     6a4:	e059      	b.n	75a <printf_dec+0x236>
     6a6:	697b      	ldr	r3, [r7, #20]
     6a8:	3b01      	subs	r3, #1
     6aa:	4a38      	ldr	r2, [pc, #224]	; (78c <printf_dec+0x268>)
     6ac:	f852 3023 	ldr.w	r3, [r2, r3, lsl #2]
     6b0:	009b      	lsls	r3, r3, #2
     6b2:	687a      	ldr	r2, [r7, #4]
     6b4:	429a      	cmp	r2, r3
     6b6:	d309      	bcc.n	6cc <printf_dec+0x1a8>
     6b8:	2304      	movs	r3, #4
     6ba:	613b      	str	r3, [r7, #16]
     6bc:	697b      	ldr	r3, [r7, #20]
     6be:	3b01      	subs	r3, #1
     6c0:	4a32      	ldr	r2, [pc, #200]	; (78c <printf_dec+0x268>)
     6c2:	f852 3023 	ldr.w	r3, [r2, r3, lsl #2]
     6c6:	009b      	lsls	r3, r3, #2
     6c8:	60fb      	str	r3, [r7, #12]
     6ca:	e046      	b.n	75a <printf_dec+0x236>
     6cc:	697b      	ldr	r3, [r7, #20]
     6ce:	3b01      	subs	r3, #1
     6d0:	4a2e      	ldr	r2, [pc, #184]	; (78c <printf_dec+0x268>)
     6d2:	f852 3023 	ldr.w	r3, [r2, r3, lsl #2]
     6d6:	005a      	lsls	r2, r3, #1
     6d8:	697b      	ldr	r3, [r7, #20]
     6da:	3b01      	subs	r3, #1
     6dc:	492b      	ldr	r1, [pc, #172]	; (78c <printf_dec+0x268>)
     6de:	f851 3023 	ldr.w	r3, [r1, r3, lsl #2]
     6e2:	4413      	add	r3, r2
     6e4:	687a      	ldr	r2, [r7, #4]
     6e6:	429a      	cmp	r2, r3
     6e8:	d30f      	bcc.n	70a <printf_dec+0x1e6>
     6ea:	2303      	movs	r3, #3
     6ec:	613b      	str	r3, [r7, #16]
     6ee:	697b      	ldr	r3, [r7, #20]
     6f0:	3b01      	subs	r3, #1
     6f2:	4a26      	ldr	r2, [pc, #152]	; (78c <printf_dec+0x268>)
     6f4:	f852 3023 	ldr.w	r3, [r2, r3, lsl #2]
     6f8:	005a      	lsls	r2, r3, #1
     6fa:	697b      	ldr	r3, [r7, #20]
     6fc:	3b01      	subs	r3, #1
     6fe:	4923      	ldr	r1, [pc, #140]	; (78c <printf_dec+0x268>)
     700:	f851 3023 	ldr.w	r3, [r1, r3, lsl #2]
     704:	4413      	add	r3, r2
     706:	60fb      	str	r3, [r7, #12]
     708:	e027      	b.n	75a <printf_dec+0x236>
     70a:	697b      	ldr	r3, [r7, #20]
     70c:	3b01      	subs	r3, #1
     70e:	4a1f      	ldr	r2, [pc, #124]	; (78c <printf_dec+0x268>)
     710:	f852 3023 	ldr.w	r3, [r2, r3, lsl #2]
     714:	005b      	lsls	r3, r3, #1
     716:	687a      	ldr	r2, [r7, #4]
     718:	429a      	cmp	r2, r3
     71a:	d309      	bcc.n	730 <printf_dec+0x20c>
     71c:	2302      	movs	r3, #2
     71e:	613b      	str	r3, [r7, #16]
     720:	697b      	ldr	r3, [r7, #20]
     722:	3b01      	subs	r3, #1
     724:	4a19      	ldr	r2, [pc, #100]	; (78c <printf_dec+0x268>)
     726:	f852 3023 	ldr.w	r3, [r2, r3, lsl #2]
     72a:	005b      	lsls	r3, r3, #1
     72c:	60fb      	str	r3, [r7, #12]
     72e:	e014      	b.n	75a <printf_dec+0x236>
     730:	697b      	ldr	r3, [r7, #20]
     732:	3b01      	subs	r3, #1
     734:	4a15      	ldr	r2, [pc, #84]	; (78c <printf_dec+0x268>)
     736:	f852 3023 	ldr.w	r3, [r2, r3, lsl #2]
     73a:	687a      	ldr	r2, [r7, #4]
     73c:	429a      	cmp	r2, r3
     73e:	d308      	bcc.n	752 <printf_dec+0x22e>
     740:	2301      	movs	r3, #1
     742:	613b      	str	r3, [r7, #16]
     744:	697b      	ldr	r3, [r7, #20]
     746:	3b01      	subs	r3, #1
     748:	4a10      	ldr	r2, [pc, #64]	; (78c <printf_dec+0x268>)
     74a:	f852 3023 	ldr.w	r3, [r2, r3, lsl #2]
     74e:	60fb      	str	r3, [r7, #12]
     750:	e003      	b.n	75a <printf_dec+0x236>
     752:	2300      	movs	r3, #0
     754:	613b      	str	r3, [r7, #16]
     756:	2300      	movs	r3, #0
     758:	60fb      	str	r3, [r7, #12]
     75a:	4a0d      	ldr	r2, [pc, #52]	; (790 <printf_dec+0x26c>)
     75c:	693b      	ldr	r3, [r7, #16]
     75e:	4413      	add	r3, r2
     760:	781b      	ldrb	r3, [r3, #0]
     762:	72fb      	strb	r3, [r7, #11]
     764:	7afb      	ldrb	r3, [r7, #11]
     766:	4618      	mov	r0, r3
     768:	f7ff fe32 	bl	3d0 <printf_char>
     76c:	697b      	ldr	r3, [r7, #20]
     76e:	3b01      	subs	r3, #1
     770:	617b      	str	r3, [r7, #20]
     772:	687a      	ldr	r2, [r7, #4]
     774:	68fb      	ldr	r3, [r7, #12]
     776:	1ad3      	subs	r3, r2, r3
     778:	607b      	str	r3, [r7, #4]
     77a:	697b      	ldr	r3, [r7, #20]
     77c:	2b00      	cmp	r3, #0
     77e:	f47f aef3 	bne.w	568 <printf_dec+0x44>
     782:	2300      	movs	r3, #0
     784:	4618      	mov	r0, r3
     786:	3718      	adds	r7, #24
     788:	46bd      	mov	sp, r7
     78a:	bd80      	pop	{r7, pc}
     78c:	00002d08 	andeq	r2, r0, r8, lsl #26
     790:	00002ce8 	andeq	r2, r0, r8, ror #25

00000794 <no_printk>:
     794:	b40f      	push	{r0, r1, r2, r3}
     796:	b480      	push	{r7}
     798:	af00      	add	r7, sp, #0
     79a:	bf00      	nop
     79c:	46bd      	mov	sp, r7
     79e:	bc80      	pop	{r7}
     7a0:	b004      	add	sp, #16
     7a2:	4770      	bx	lr

000007a4 <printk>:
     7a4:	b40f      	push	{r0, r1, r2, r3}
     7a6:	b580      	push	{r7, lr}
     7a8:	b084      	sub	sp, #16
     7aa:	af00      	add	r7, sp, #0
     7ac:	2300      	movs	r3, #0
     7ae:	60fb      	str	r3, [r7, #12]
     7b0:	f107 031c 	add.w	r3, r7, #28
     7b4:	607b      	str	r3, [r7, #4]
     7b6:	69bb      	ldr	r3, [r7, #24]
     7b8:	781b      	ldrb	r3, [r3, #0]
     7ba:	72fb      	strb	r3, [r7, #11]
     7bc:	7afb      	ldrb	r3, [r7, #11]
     7be:	2b25      	cmp	r3, #37	; 0x25
     7c0:	d004      	beq.n	7cc <printk+0x28>
     7c2:	7afb      	ldrb	r3, [r7, #11]
     7c4:	4618      	mov	r0, r3
     7c6:	f7ff fe03 	bl	3d0 <printf_char>
     7ca:	e09d      	b.n	908 <printk+0x164>
     7cc:	69bb      	ldr	r3, [r7, #24]
     7ce:	3301      	adds	r3, #1
     7d0:	61bb      	str	r3, [r7, #24]
     7d2:	69bb      	ldr	r3, [r7, #24]
     7d4:	781b      	ldrb	r3, [r3, #0]
     7d6:	72fb      	strb	r3, [r7, #11]
     7d8:	7afb      	ldrb	r3, [r7, #11]
     7da:	2b64      	cmp	r3, #100	; 0x64
     7dc:	d00b      	beq.n	7f6 <printk+0x52>
     7de:	7afb      	ldrb	r3, [r7, #11]
     7e0:	2b78      	cmp	r3, #120	; 0x78
     7e2:	d008      	beq.n	7f6 <printk+0x52>
     7e4:	7afb      	ldrb	r3, [r7, #11]
     7e6:	2b58      	cmp	r3, #88	; 0x58
     7e8:	d005      	beq.n	7f6 <printk+0x52>
     7ea:	7afb      	ldrb	r3, [r7, #11]
     7ec:	2b73      	cmp	r3, #115	; 0x73
     7ee:	d002      	beq.n	7f6 <printk+0x52>
     7f0:	7afb      	ldrb	r3, [r7, #11]
     7f2:	2b63      	cmp	r3, #99	; 0x63
     7f4:	d1ea      	bne.n	7cc <printk+0x28>
     7f6:	7afb      	ldrb	r3, [r7, #11]
     7f8:	2b78      	cmp	r3, #120	; 0x78
     7fa:	d002      	beq.n	802 <printk+0x5e>
     7fc:	7afb      	ldrb	r3, [r7, #11]
     7fe:	2b58      	cmp	r3, #88	; 0x58
     800:	d10c      	bne.n	81c <printk+0x78>
     802:	69bb      	ldr	r3, [r7, #24]
     804:	3b01      	subs	r3, #1
     806:	781b      	ldrb	r3, [r3, #0]
     808:	2b25      	cmp	r3, #37	; 0x25
     80a:	d102      	bne.n	812 <printk+0x6e>
     80c:	2308      	movs	r3, #8
     80e:	60fb      	str	r3, [r7, #12]
     810:	e004      	b.n	81c <printk+0x78>
     812:	69bb      	ldr	r3, [r7, #24]
     814:	3b01      	subs	r3, #1
     816:	781b      	ldrb	r3, [r3, #0]
     818:	3b30      	subs	r3, #48	; 0x30
     81a:	60fb      	str	r3, [r7, #12]
     81c:	bf00      	nop
     81e:	7afb      	ldrb	r3, [r7, #11]
     820:	3b58      	subs	r3, #88	; 0x58
     822:	2b20      	cmp	r3, #32
     824:	d86f      	bhi.n	906 <printk+0x162>
     826:	a201      	add	r2, pc, #4	; (adr r2, 82c <printk+0x88>)
     828:	f852 f023 	ldr.w	pc, [r2, r3, lsl #2]
     82c:	000008d3 	ldrdeq	r0, [r0], -r3
     830:	00000907 	andeq	r0, r0, r7, lsl #18
     834:	00000907 	andeq	r0, r0, r7, lsl #18
     838:	00000907 	andeq	r0, r0, r7, lsl #18
     83c:	00000907 	andeq	r0, r0, r7, lsl #18
     840:	00000907 	andeq	r0, r0, r7, lsl #18
     844:	00000907 	andeq	r0, r0, r7, lsl #18
     848:	00000907 	andeq	r0, r0, r7, lsl #18
     84c:	00000907 	andeq	r0, r0, r7, lsl #18
     850:	00000907 	andeq	r0, r0, r7, lsl #18
     854:	00000907 	andeq	r0, r0, r7, lsl #18
     858:	000008f5 	strdeq	r0, [r0], -r5
     85c:	000008b1 			; <UNDEFINED> instruction: 0x000008b1
     860:	00000907 	andeq	r0, r0, r7, lsl #18
     864:	00000907 	andeq	r0, r0, r7, lsl #18
     868:	00000907 	andeq	r0, r0, r7, lsl #18
     86c:	00000907 	andeq	r0, r0, r7, lsl #18
     870:	00000907 	andeq	r0, r0, r7, lsl #18
     874:	00000907 	andeq	r0, r0, r7, lsl #18
     878:	00000907 	andeq	r0, r0, r7, lsl #18
     87c:	00000907 	andeq	r0, r0, r7, lsl #18
     880:	00000907 	andeq	r0, r0, r7, lsl #18
     884:	00000907 	andeq	r0, r0, r7, lsl #18
     888:	00000907 	andeq	r0, r0, r7, lsl #18
     88c:	00000907 	andeq	r0, r0, r7, lsl #18
     890:	00000907 	andeq	r0, r0, r7, lsl #18
     894:	00000907 	andeq	r0, r0, r7, lsl #18
     898:	000008e5 	andeq	r0, r0, r5, ror #17
     89c:	00000907 	andeq	r0, r0, r7, lsl #18
     8a0:	00000907 	andeq	r0, r0, r7, lsl #18
     8a4:	00000907 	andeq	r0, r0, r7, lsl #18
     8a8:	00000907 	andeq	r0, r0, r7, lsl #18
     8ac:	000008c1 	andeq	r0, r0, r1, asr #17
     8b0:	687b      	ldr	r3, [r7, #4]
     8b2:	1d1a      	adds	r2, r3, #4
     8b4:	607a      	str	r2, [r7, #4]
     8b6:	681b      	ldr	r3, [r3, #0]
     8b8:	4618      	mov	r0, r3
     8ba:	f7ff fe33 	bl	524 <printf_dec>
     8be:	e023      	b.n	908 <printk+0x164>
     8c0:	687b      	ldr	r3, [r7, #4]
     8c2:	1d1a      	adds	r2, r3, #4
     8c4:	607a      	str	r2, [r7, #4]
     8c6:	681b      	ldr	r3, [r3, #0]
     8c8:	68f9      	ldr	r1, [r7, #12]
     8ca:	4618      	mov	r0, r3
     8cc:	f7ff fdb6 	bl	43c <printf_hex>
     8d0:	e01a      	b.n	908 <printk+0x164>
     8d2:	687b      	ldr	r3, [r7, #4]
     8d4:	1d1a      	adds	r2, r3, #4
     8d6:	607a      	str	r2, [r7, #4]
     8d8:	681b      	ldr	r3, [r3, #0]
     8da:	68f9      	ldr	r1, [r7, #12]
     8dc:	4618      	mov	r0, r3
     8de:	f7ff fde7 	bl	4b0 <printf_hex_upper>
     8e2:	e011      	b.n	908 <printk+0x164>
     8e4:	687b      	ldr	r3, [r7, #4]
     8e6:	1d1a      	adds	r2, r3, #4
     8e8:	607a      	str	r2, [r7, #4]
     8ea:	681b      	ldr	r3, [r3, #0]
     8ec:	4618      	mov	r0, r3
     8ee:	f7ff fd8c 	bl	40a <printf_str>
     8f2:	e009      	b.n	908 <printk+0x164>
     8f4:	687b      	ldr	r3, [r7, #4]
     8f6:	1d1a      	adds	r2, r3, #4
     8f8:	607a      	str	r2, [r7, #4]
     8fa:	681b      	ldr	r3, [r3, #0]
     8fc:	b2db      	uxtb	r3, r3
     8fe:	4618      	mov	r0, r3
     900:	f7ff fd66 	bl	3d0 <printf_char>
     904:	e000      	b.n	908 <printk+0x164>
     906:	bf00      	nop
     908:	69bb      	ldr	r3, [r7, #24]
     90a:	3301      	adds	r3, #1
     90c:	61bb      	str	r3, [r7, #24]
     90e:	69bb      	ldr	r3, [r7, #24]
     910:	781b      	ldrb	r3, [r3, #0]
     912:	2b00      	cmp	r3, #0
     914:	f47f af4f 	bne.w	7b6 <printk+0x12>
     918:	bf00      	nop
     91a:	bf00      	nop
     91c:	3710      	adds	r7, #16
     91e:	46bd      	mov	sp, r7
     920:	e8bd 4080 	ldmia.w	sp!, {r7, lr}
     924:	b004      	add	sp, #16
     926:	4770      	bx	lr

00000928 <memset>:
     928:	b480      	push	{r7}
     92a:	b087      	sub	sp, #28
     92c:	af00      	add	r7, sp, #0
     92e:	60f8      	str	r0, [r7, #12]
     930:	460b      	mov	r3, r1
     932:	607a      	str	r2, [r7, #4]
     934:	72fb      	strb	r3, [r7, #11]
     936:	68fb      	ldr	r3, [r7, #12]
     938:	617b      	str	r3, [r7, #20]
     93a:	2300      	movs	r3, #0
     93c:	613b      	str	r3, [r7, #16]
     93e:	2300      	movs	r3, #0
     940:	613b      	str	r3, [r7, #16]
     942:	e007      	b.n	954 <memset+0x2c>
     944:	693b      	ldr	r3, [r7, #16]
     946:	3301      	adds	r3, #1
     948:	613b      	str	r3, [r7, #16]
     94a:	697b      	ldr	r3, [r7, #20]
     94c:	1c5a      	adds	r2, r3, #1
     94e:	617a      	str	r2, [r7, #20]
     950:	7afa      	ldrb	r2, [r7, #11]
     952:	701a      	strb	r2, [r3, #0]
     954:	693b      	ldr	r3, [r7, #16]
     956:	687a      	ldr	r2, [r7, #4]
     958:	429a      	cmp	r2, r3
     95a:	d8f3      	bhi.n	944 <memset+0x1c>
     95c:	2300      	movs	r3, #0
     95e:	4618      	mov	r0, r3
     960:	371c      	adds	r7, #28
     962:	46bd      	mov	sp, r7
     964:	bc80      	pop	{r7}
     966:	4770      	bx	lr

00000968 <memcpy>:
     968:	b480      	push	{r7}
     96a:	b089      	sub	sp, #36	; 0x24
     96c:	af00      	add	r7, sp, #0
     96e:	60f8      	str	r0, [r7, #12]
     970:	60b9      	str	r1, [r7, #8]
     972:	607a      	str	r2, [r7, #4]
     974:	68fb      	ldr	r3, [r7, #12]
     976:	61fb      	str	r3, [r7, #28]
     978:	68bb      	ldr	r3, [r7, #8]
     97a:	61bb      	str	r3, [r7, #24]
     97c:	2300      	movs	r3, #0
     97e:	617b      	str	r3, [r7, #20]
     980:	2300      	movs	r3, #0
     982:	617b      	str	r3, [r7, #20]
     984:	e00a      	b.n	99c <memcpy+0x34>
     986:	697b      	ldr	r3, [r7, #20]
     988:	3301      	adds	r3, #1
     98a:	617b      	str	r3, [r7, #20]
     98c:	69ba      	ldr	r2, [r7, #24]
     98e:	1c53      	adds	r3, r2, #1
     990:	61bb      	str	r3, [r7, #24]
     992:	69fb      	ldr	r3, [r7, #28]
     994:	1c59      	adds	r1, r3, #1
     996:	61f9      	str	r1, [r7, #28]
     998:	7812      	ldrb	r2, [r2, #0]
     99a:	701a      	strb	r2, [r3, #0]
     99c:	697b      	ldr	r3, [r7, #20]
     99e:	687a      	ldr	r2, [r7, #4]
     9a0:	429a      	cmp	r2, r3
     9a2:	d8f0      	bhi.n	986 <memcpy+0x1e>
     9a4:	2300      	movs	r3, #0
     9a6:	4618      	mov	r0, r3
     9a8:	3724      	adds	r7, #36	; 0x24
     9aa:	46bd      	mov	sp, r7
     9ac:	bc80      	pop	{r7}
     9ae:	4770      	bx	lr

000009b0 <memcmp>:
     9b0:	b480      	push	{r7}
     9b2:	b089      	sub	sp, #36	; 0x24
     9b4:	af00      	add	r7, sp, #0
     9b6:	60f8      	str	r0, [r7, #12]
     9b8:	60b9      	str	r1, [r7, #8]
     9ba:	607a      	str	r2, [r7, #4]
     9bc:	68fb      	ldr	r3, [r7, #12]
     9be:	61fb      	str	r3, [r7, #28]
     9c0:	68bb      	ldr	r3, [r7, #8]
     9c2:	61bb      	str	r3, [r7, #24]
     9c4:	2300      	movs	r3, #0
     9c6:	617b      	str	r3, [r7, #20]
     9c8:	2300      	movs	r3, #0
     9ca:	617b      	str	r3, [r7, #20]
     9cc:	e00e      	b.n	9ec <memcmp+0x3c>
     9ce:	69fb      	ldr	r3, [r7, #28]
     9d0:	781a      	ldrb	r2, [r3, #0]
     9d2:	69bb      	ldr	r3, [r7, #24]
     9d4:	781b      	ldrb	r3, [r3, #0]
     9d6:	429a      	cmp	r2, r3
     9d8:	d10d      	bne.n	9f6 <memcmp+0x46>
     9da:	697b      	ldr	r3, [r7, #20]
     9dc:	3301      	adds	r3, #1
     9de:	617b      	str	r3, [r7, #20]
     9e0:	69fb      	ldr	r3, [r7, #28]
     9e2:	3301      	adds	r3, #1
     9e4:	61fb      	str	r3, [r7, #28]
     9e6:	69bb      	ldr	r3, [r7, #24]
     9e8:	3301      	adds	r3, #1
     9ea:	61bb      	str	r3, [r7, #24]
     9ec:	697b      	ldr	r3, [r7, #20]
     9ee:	687a      	ldr	r2, [r7, #4]
     9f0:	429a      	cmp	r2, r3
     9f2:	d8ec      	bhi.n	9ce <memcmp+0x1e>
     9f4:	e000      	b.n	9f8 <memcmp+0x48>
     9f6:	bf00      	nop
     9f8:	697b      	ldr	r3, [r7, #20]
     9fa:	687a      	ldr	r2, [r7, #4]
     9fc:	429a      	cmp	r2, r3
     9fe:	d901      	bls.n	a04 <memcmp+0x54>
     a00:	2301      	movs	r3, #1
     a02:	e000      	b.n	a06 <memcmp+0x56>
     a04:	2300      	movs	r3, #0
     a06:	4618      	mov	r0, r3
     a08:	3724      	adds	r7, #36	; 0x24
     a0a:	46bd      	mov	sp, r7
     a0c:	bc80      	pop	{r7}
     a0e:	4770      	bx	lr

00000a10 <strcmp>:
     a10:	b480      	push	{r7}
     a12:	b085      	sub	sp, #20
     a14:	af00      	add	r7, sp, #0
     a16:	6078      	str	r0, [r7, #4]
     a18:	6039      	str	r1, [r7, #0]
     a1a:	687b      	ldr	r3, [r7, #4]
     a1c:	60fb      	str	r3, [r7, #12]
     a1e:	683b      	ldr	r3, [r7, #0]
     a20:	60bb      	str	r3, [r7, #8]
     a22:	e005      	b.n	a30 <strcmp+0x20>
     a24:	68fb      	ldr	r3, [r7, #12]
     a26:	3301      	adds	r3, #1
     a28:	60fb      	str	r3, [r7, #12]
     a2a:	68bb      	ldr	r3, [r7, #8]
     a2c:	3301      	adds	r3, #1
     a2e:	60bb      	str	r3, [r7, #8]
     a30:	68fb      	ldr	r3, [r7, #12]
     a32:	781b      	ldrb	r3, [r3, #0]
     a34:	2b00      	cmp	r3, #0
     a36:	d009      	beq.n	a4c <strcmp+0x3c>
     a38:	68bb      	ldr	r3, [r7, #8]
     a3a:	781b      	ldrb	r3, [r3, #0]
     a3c:	2b00      	cmp	r3, #0
     a3e:	d005      	beq.n	a4c <strcmp+0x3c>
     a40:	68fb      	ldr	r3, [r7, #12]
     a42:	781a      	ldrb	r2, [r3, #0]
     a44:	68bb      	ldr	r3, [r7, #8]
     a46:	781b      	ldrb	r3, [r3, #0]
     a48:	429a      	cmp	r2, r3
     a4a:	d0eb      	beq.n	a24 <strcmp+0x14>
     a4c:	68fb      	ldr	r3, [r7, #12]
     a4e:	781b      	ldrb	r3, [r3, #0]
     a50:	461a      	mov	r2, r3
     a52:	68bb      	ldr	r3, [r7, #8]
     a54:	781b      	ldrb	r3, [r3, #0]
     a56:	1ad3      	subs	r3, r2, r3
     a58:	4618      	mov	r0, r3
     a5a:	3714      	adds	r7, #20
     a5c:	46bd      	mov	sp, r7
     a5e:	bc80      	pop	{r7}
     a60:	4770      	bx	lr

00000a62 <strncmp>:
     a62:	b480      	push	{r7}
     a64:	b089      	sub	sp, #36	; 0x24
     a66:	af00      	add	r7, sp, #0
     a68:	60f8      	str	r0, [r7, #12]
     a6a:	60b9      	str	r1, [r7, #8]
     a6c:	607a      	str	r2, [r7, #4]
     a6e:	68fb      	ldr	r3, [r7, #12]
     a70:	61fb      	str	r3, [r7, #28]
     a72:	68bb      	ldr	r3, [r7, #8]
     a74:	61bb      	str	r3, [r7, #24]
     a76:	2300      	movs	r3, #0
     a78:	617b      	str	r3, [r7, #20]
     a7a:	e019      	b.n	ab0 <strncmp+0x4e>
     a7c:	69fb      	ldr	r3, [r7, #28]
     a7e:	781a      	ldrb	r2, [r3, #0]
     a80:	69bb      	ldr	r3, [r7, #24]
     a82:	781b      	ldrb	r3, [r3, #0]
     a84:	429a      	cmp	r2, r3
     a86:	d901      	bls.n	a8c <strncmp+0x2a>
     a88:	2301      	movs	r3, #1
     a8a:	e016      	b.n	aba <strncmp+0x58>
     a8c:	69fb      	ldr	r3, [r7, #28]
     a8e:	781a      	ldrb	r2, [r3, #0]
     a90:	69bb      	ldr	r3, [r7, #24]
     a92:	781b      	ldrb	r3, [r3, #0]
     a94:	429a      	cmp	r2, r3
     a96:	d202      	bcs.n	a9e <strncmp+0x3c>
     a98:	f04f 33ff 	mov.w	r3, #4294967295	; 0xffffffff
     a9c:	e00d      	b.n	aba <strncmp+0x58>
     a9e:	697b      	ldr	r3, [r7, #20]
     aa0:	3301      	adds	r3, #1
     aa2:	617b      	str	r3, [r7, #20]
     aa4:	69fb      	ldr	r3, [r7, #28]
     aa6:	3301      	adds	r3, #1
     aa8:	61fb      	str	r3, [r7, #28]
     aaa:	69bb      	ldr	r3, [r7, #24]
     aac:	3301      	adds	r3, #1
     aae:	61bb      	str	r3, [r7, #24]
     ab0:	697b      	ldr	r3, [r7, #20]
     ab2:	687a      	ldr	r2, [r7, #4]
     ab4:	429a      	cmp	r2, r3
     ab6:	d8e1      	bhi.n	a7c <strncmp+0x1a>
     ab8:	2300      	movs	r3, #0
     aba:	4618      	mov	r0, r3
     abc:	3724      	adds	r7, #36	; 0x24
     abe:	46bd      	mov	sp, r7
     ac0:	bc80      	pop	{r7}
     ac2:	4770      	bx	lr

00000ac4 <strtoul>:
     ac4:	b580      	push	{r7, lr}
     ac6:	b086      	sub	sp, #24
     ac8:	af00      	add	r7, sp, #0
     aca:	6078      	str	r0, [r7, #4]
     acc:	6039      	str	r1, [r7, #0]
     ace:	687b      	ldr	r3, [r7, #4]
     ad0:	617b      	str	r3, [r7, #20]
     ad2:	230a      	movs	r3, #10
     ad4:	613b      	str	r3, [r7, #16]
     ad6:	2300      	movs	r3, #0
     ad8:	60fb      	str	r3, [r7, #12]
     ada:	2300      	movs	r3, #0
     adc:	60bb      	str	r3, [r7, #8]
     ade:	697b      	ldr	r3, [r7, #20]
     ae0:	781b      	ldrb	r3, [r3, #0]
     ae2:	2b30      	cmp	r3, #48	; 0x30
     ae4:	d155      	bne.n	b92 <strtoul+0xce>
     ae6:	697b      	ldr	r3, [r7, #20]
     ae8:	3301      	adds	r3, #1
     aea:	781b      	ldrb	r3, [r3, #0]
     aec:	2b78      	cmp	r3, #120	; 0x78
     aee:	d004      	beq.n	afa <strtoul+0x36>
     af0:	697b      	ldr	r3, [r7, #20]
     af2:	3301      	adds	r3, #1
     af4:	781b      	ldrb	r3, [r3, #0]
     af6:	2b58      	cmp	r3, #88	; 0x58
     af8:	d14b      	bne.n	b92 <strtoul+0xce>
     afa:	697b      	ldr	r3, [r7, #20]
     afc:	3302      	adds	r3, #2
     afe:	617b      	str	r3, [r7, #20]
     b00:	2310      	movs	r3, #16
     b02:	613b      	str	r3, [r7, #16]
     b04:	e045      	b.n	b92 <strtoul+0xce>
     b06:	693b      	ldr	r3, [r7, #16]
     b08:	2b10      	cmp	r3, #16
     b0a:	d129      	bne.n	b60 <strtoul+0x9c>
     b0c:	697b      	ldr	r3, [r7, #20]
     b0e:	781b      	ldrb	r3, [r3, #0]
     b10:	4618      	mov	r0, r3
     b12:	f7ff fc3e 	bl	392 <is_hex_asc>
     b16:	4603      	mov	r3, r0
     b18:	2b00      	cmp	r3, #0
     b1a:	d102      	bne.n	b22 <strtoul+0x5e>
     b1c:	f04f 33ff 	mov.w	r3, #4294967295	; 0xffffffff
     b20:	e03f      	b.n	ba2 <strtoul+0xde>
     b22:	697b      	ldr	r3, [r7, #20]
     b24:	781b      	ldrb	r3, [r3, #0]
     b26:	2b2f      	cmp	r3, #47	; 0x2f
     b28:	d908      	bls.n	b3c <strtoul+0x78>
     b2a:	697b      	ldr	r3, [r7, #20]
     b2c:	781b      	ldrb	r3, [r3, #0]
     b2e:	2b39      	cmp	r3, #57	; 0x39
     b30:	d804      	bhi.n	b3c <strtoul+0x78>
     b32:	697b      	ldr	r3, [r7, #20]
     b34:	781b      	ldrb	r3, [r3, #0]
     b36:	3b30      	subs	r3, #48	; 0x30
     b38:	60bb      	str	r3, [r7, #8]
     b3a:	e020      	b.n	b7e <strtoul+0xba>
     b3c:	697b      	ldr	r3, [r7, #20]
     b3e:	781b      	ldrb	r3, [r3, #0]
     b40:	2b60      	cmp	r3, #96	; 0x60
     b42:	d908      	bls.n	b56 <strtoul+0x92>
     b44:	697b      	ldr	r3, [r7, #20]
     b46:	781b      	ldrb	r3, [r3, #0]
     b48:	2b66      	cmp	r3, #102	; 0x66
     b4a:	d804      	bhi.n	b56 <strtoul+0x92>
     b4c:	697b      	ldr	r3, [r7, #20]
     b4e:	781b      	ldrb	r3, [r3, #0]
     b50:	3b57      	subs	r3, #87	; 0x57
     b52:	60bb      	str	r3, [r7, #8]
     b54:	e013      	b.n	b7e <strtoul+0xba>
     b56:	697b      	ldr	r3, [r7, #20]
     b58:	781b      	ldrb	r3, [r3, #0]
     b5a:	3b37      	subs	r3, #55	; 0x37
     b5c:	60bb      	str	r3, [r7, #8]
     b5e:	e00e      	b.n	b7e <strtoul+0xba>
     b60:	697b      	ldr	r3, [r7, #20]
     b62:	781b      	ldrb	r3, [r3, #0]
     b64:	4618      	mov	r0, r3
     b66:	f7ff fbdb 	bl	320 <is_dec_asc>
     b6a:	4603      	mov	r3, r0
     b6c:	2b00      	cmp	r3, #0
     b6e:	d102      	bne.n	b76 <strtoul+0xb2>
     b70:	f06f 0301 	mvn.w	r3, #1
     b74:	e015      	b.n	ba2 <strtoul+0xde>
     b76:	697b      	ldr	r3, [r7, #20]
     b78:	781b      	ldrb	r3, [r3, #0]
     b7a:	3b30      	subs	r3, #48	; 0x30
     b7c:	60bb      	str	r3, [r7, #8]
     b7e:	68fb      	ldr	r3, [r7, #12]
     b80:	693a      	ldr	r2, [r7, #16]
     b82:	fb02 f303 	mul.w	r3, r2, r3
     b86:	68ba      	ldr	r2, [r7, #8]
     b88:	4413      	add	r3, r2
     b8a:	60fb      	str	r3, [r7, #12]
     b8c:	697b      	ldr	r3, [r7, #20]
     b8e:	3301      	adds	r3, #1
     b90:	617b      	str	r3, [r7, #20]
     b92:	697b      	ldr	r3, [r7, #20]
     b94:	781b      	ldrb	r3, [r3, #0]
     b96:	2b00      	cmp	r3, #0
     b98:	d1b5      	bne.n	b06 <strtoul+0x42>
     b9a:	683b      	ldr	r3, [r7, #0]
     b9c:	68fa      	ldr	r2, [r7, #12]
     b9e:	601a      	str	r2, [r3, #0]
     ba0:	2300      	movs	r3, #0
     ba2:	4618      	mov	r0, r3
     ba4:	3718      	adds	r7, #24
     ba6:	46bd      	mov	sp, r7
     ba8:	bd80      	pop	{r7, pc}

00000baa <strtol>:
     baa:	b580      	push	{r7, lr}
     bac:	b084      	sub	sp, #16
     bae:	af00      	add	r7, sp, #0
     bb0:	6078      	str	r0, [r7, #4]
     bb2:	6039      	str	r1, [r7, #0]
     bb4:	687b      	ldr	r3, [r7, #4]
     bb6:	60fb      	str	r3, [r7, #12]
     bb8:	68fb      	ldr	r3, [r7, #12]
     bba:	781b      	ldrb	r3, [r3, #0]
     bbc:	2b2d      	cmp	r3, #45	; 0x2d
     bbe:	d10e      	bne.n	bde <strtol+0x34>
     bc0:	68fb      	ldr	r3, [r7, #12]
     bc2:	3301      	adds	r3, #1
     bc4:	60fb      	str	r3, [r7, #12]
     bc6:	6839      	ldr	r1, [r7, #0]
     bc8:	68f8      	ldr	r0, [r7, #12]
     bca:	f7ff ff7b 	bl	ac4 <strtoul>
     bce:	60b8      	str	r0, [r7, #8]
     bd0:	683b      	ldr	r3, [r7, #0]
     bd2:	681b      	ldr	r3, [r3, #0]
     bd4:	425a      	negs	r2, r3
     bd6:	683b      	ldr	r3, [r7, #0]
     bd8:	601a      	str	r2, [r3, #0]
     bda:	68bb      	ldr	r3, [r7, #8]
     bdc:	e004      	b.n	be8 <strtol+0x3e>
     bde:	6839      	ldr	r1, [r7, #0]
     be0:	68f8      	ldr	r0, [r7, #12]
     be2:	f7ff ff6f 	bl	ac4 <strtoul>
     be6:	4603      	mov	r3, r0
     be8:	4618      	mov	r0, r3
     bea:	3710      	adds	r7, #16
     bec:	46bd      	mov	sp, r7
     bee:	bd80      	pop	{r7, pc}

00000bf0 <strlen>:
     bf0:	b480      	push	{r7}
     bf2:	b085      	sub	sp, #20
     bf4:	af00      	add	r7, sp, #0
     bf6:	6078      	str	r0, [r7, #4]
     bf8:	687b      	ldr	r3, [r7, #4]
     bfa:	60fb      	str	r3, [r7, #12]
     bfc:	bf00      	nop
     bfe:	68fb      	ldr	r3, [r7, #12]
     c00:	1c5a      	adds	r2, r3, #1
     c02:	60fa      	str	r2, [r7, #12]
     c04:	781b      	ldrb	r3, [r3, #0]
     c06:	2b00      	cmp	r3, #0
     c08:	d1f9      	bne.n	bfe <strlen+0xe>
     c0a:	68fa      	ldr	r2, [r7, #12]
     c0c:	687b      	ldr	r3, [r7, #4]
     c0e:	1ad3      	subs	r3, r2, r3
     c10:	4618      	mov	r0, r3
     c12:	3714      	adds	r7, #20
     c14:	46bd      	mov	sp, r7
     c16:	bc80      	pop	{r7}
     c18:	4770      	bx	lr

00000c1a <strcpy>:
     c1a:	b480      	push	{r7}
     c1c:	b085      	sub	sp, #20
     c1e:	af00      	add	r7, sp, #0
     c20:	6078      	str	r0, [r7, #4]
     c22:	6039      	str	r1, [r7, #0]
     c24:	687b      	ldr	r3, [r7, #4]
     c26:	60fb      	str	r3, [r7, #12]
     c28:	683b      	ldr	r3, [r7, #0]
     c2a:	60bb      	str	r3, [r7, #8]
     c2c:	e009      	b.n	c42 <strcpy+0x28>
     c2e:	68bb      	ldr	r3, [r7, #8]
     c30:	781a      	ldrb	r2, [r3, #0]
     c32:	68fb      	ldr	r3, [r7, #12]
     c34:	701a      	strb	r2, [r3, #0]
     c36:	68fb      	ldr	r3, [r7, #12]
     c38:	3301      	adds	r3, #1
     c3a:	60fb      	str	r3, [r7, #12]
     c3c:	68bb      	ldr	r3, [r7, #8]
     c3e:	3301      	adds	r3, #1
     c40:	60bb      	str	r3, [r7, #8]
     c42:	68bb      	ldr	r3, [r7, #8]
     c44:	781b      	ldrb	r3, [r3, #0]
     c46:	2b00      	cmp	r3, #0
     c48:	d1f1      	bne.n	c2e <strcpy+0x14>
     c4a:	68fb      	ldr	r3, [r7, #12]
     c4c:	2200      	movs	r2, #0
     c4e:	701a      	strb	r2, [r3, #0]
     c50:	2300      	movs	r3, #0
     c52:	4618      	mov	r0, r3
     c54:	3714      	adds	r7, #20
     c56:	46bd      	mov	sp, r7
     c58:	bc80      	pop	{r7}
     c5a:	4770      	bx	lr

00000c5c <reset_handler>:
     c5c:	f04f 0021 	mov.w	r0, #33	; 0x21
     c60:	f3ef 8014 	mrs	r0, CONTROL
     c64:	f04f 0102 	mov.w	r1, #2
     c68:	ea40 0001 	orr.w	r0, r0, r1
     c6c:	f380 8814 	msr	CONTROL, r0
     c70:	4817      	ldr	r0, [pc, #92]	; (cd0 <enable_irq+0x6>)
     c72:	4685      	mov	sp, r0
     c74:	4817      	ldr	r0, [pc, #92]	; (cd4 <enable_irq+0xa>)
     c76:	4780      	blx	r0
     c78:	e7fe      	b.n	c78 <reset_handler+0x1c>

00000c7a <get_psp>:
     c7a:	f3ef 8009 	mrs	r0, PSP
     c7e:	47f0      	blx	lr

00000c80 <set_psp>:
     c80:	f380 8809 	msr	PSP, r0
     c84:	47f0      	blx	lr

00000c86 <get_msp>:
     c86:	f3ef 8008 	mrs	r0, MSP
     c8a:	47f0      	blx	lr

00000c8c <get_control_reg>:
     c8c:	f3ef 8014 	mrs	r0, CONTROL
     c90:	47f0      	blx	lr

00000c92 <pendsv_handler>:
     c92:	f3ef 8009 	mrs	r0, PSP
     c96:	b120      	cbz	r0, ca2 <pendsv_handler_nosave>
     c98:	e920 0ff0 	stmdb	r0!, {r4, r5, r6, r7, r8, r9, sl, fp}
     c9c:	490e      	ldr	r1, [pc, #56]	; (cd8 <enable_irq+0xe>)
     c9e:	6809      	ldr	r1, [r1, #0]
     ca0:	6008      	str	r0, [r1, #0]

00000ca2 <pendsv_handler_nosave>:
     ca2:	480d      	ldr	r0, [pc, #52]	; (cd8 <enable_irq+0xe>)
     ca4:	490d      	ldr	r1, [pc, #52]	; (cdc <enable_irq+0x12>)
     ca6:	680a      	ldr	r2, [r1, #0]
     ca8:	6002      	str	r2, [r0, #0]
     caa:	6810      	ldr	r0, [r2, #0]
     cac:	e8b0 0ff0 	ldmia.w	r0!, {r4, r5, r6, r7, r8, r9, sl, fp}
     cb0:	f380 8809 	msr	PSP, r0
     cb4:	f04e 0e04 	orr.w	lr, lr, #4
     cb8:	4770      	bx	lr

00000cba <get_primask>:
     cba:	f3ef 8010 	mrs	r0, PRIMASK
     cbe:	47f0      	blx	lr

00000cc0 <set_primask>:
     cc0:	f380 8810 	msr	PRIMASK, r0
     cc4:	47f0      	blx	lr

00000cc6 <disable_irq>:
     cc6:	b672      	cpsid	i
     cc8:	47f0      	blx	lr

00000cca <enable_irq>:
     cca:	b662      	cpsie	i
     ccc:	47f0      	blx	lr
     cce:	80000000 	andhi	r0, r0, r0
     cd2:	2c292000 	stccs	0, cr2, [r9], #-0
     cd6:	00000000 	andeq	r0, r0, r0
     cda:	00042000 	andeq	r2, r4, r0
     cde:	 	strlt	r2, [r0], #0

00000ce0 <idle_task_entry>:
     ce0:	b480      	push	{r7}
     ce2:	b083      	sub	sp, #12
     ce4:	af00      	add	r7, sp, #0
     ce6:	6078      	str	r0, [r7, #4]
     ce8:	e7fe      	b.n	ce8 <idle_task_entry+0x8>

00000cea <task_init>:
     cea:	b580      	push	{r7, lr}
     cec:	b084      	sub	sp, #16
     cee:	af00      	add	r7, sp, #0
     cf0:	60f8      	str	r0, [r7, #12]
     cf2:	60b9      	str	r1, [r7, #8]
     cf4:	607a      	str	r2, [r7, #4]
     cf6:	603b      	str	r3, [r7, #0]
     cf8:	4954      	ldr	r1, [pc, #336]	; (e4c <task_init+0x162>)
     cfa:	4855      	ldr	r0, [pc, #340]	; (e50 <task_init+0x166>)
     cfc:	f7ff fd52 	bl	7a4 <printk>
     d00:	69bb      	ldr	r3, [r7, #24]
     d02:	3b04      	subs	r3, #4
     d04:	61bb      	str	r3, [r7, #24]
     d06:	69bb      	ldr	r3, [r7, #24]
     d08:	f04f 7280 	mov.w	r2, #16777216	; 0x1000000
     d0c:	601a      	str	r2, [r3, #0]
     d0e:	69bb      	ldr	r3, [r7, #24]
     d10:	3b04      	subs	r3, #4
     d12:	61bb      	str	r3, [r7, #24]
     d14:	68ba      	ldr	r2, [r7, #8]
     d16:	69bb      	ldr	r3, [r7, #24]
     d18:	601a      	str	r2, [r3, #0]
     d1a:	69bb      	ldr	r3, [r7, #24]
     d1c:	3b04      	subs	r3, #4
     d1e:	61bb      	str	r3, [r7, #24]
     d20:	69bb      	ldr	r3, [r7, #24]
     d22:	220e      	movs	r2, #14
     d24:	601a      	str	r2, [r3, #0]
     d26:	69bb      	ldr	r3, [r7, #24]
     d28:	3b04      	subs	r3, #4
     d2a:	61bb      	str	r3, [r7, #24]
     d2c:	69bb      	ldr	r3, [r7, #24]
     d2e:	220c      	movs	r2, #12
     d30:	601a      	str	r2, [r3, #0]
     d32:	69bb      	ldr	r3, [r7, #24]
     d34:	3b04      	subs	r3, #4
     d36:	61bb      	str	r3, [r7, #24]
     d38:	69bb      	ldr	r3, [r7, #24]
     d3a:	2203      	movs	r2, #3
     d3c:	601a      	str	r2, [r3, #0]
     d3e:	69bb      	ldr	r3, [r7, #24]
     d40:	3b04      	subs	r3, #4
     d42:	61bb      	str	r3, [r7, #24]
     d44:	69bb      	ldr	r3, [r7, #24]
     d46:	2202      	movs	r2, #2
     d48:	601a      	str	r2, [r3, #0]
     d4a:	69bb      	ldr	r3, [r7, #24]
     d4c:	3b04      	subs	r3, #4
     d4e:	61bb      	str	r3, [r7, #24]
     d50:	69bb      	ldr	r3, [r7, #24]
     d52:	2201      	movs	r2, #1
     d54:	601a      	str	r2, [r3, #0]
     d56:	69bb      	ldr	r3, [r7, #24]
     d58:	3b04      	subs	r3, #4
     d5a:	61bb      	str	r3, [r7, #24]
     d5c:	687a      	ldr	r2, [r7, #4]
     d5e:	69bb      	ldr	r3, [r7, #24]
     d60:	601a      	str	r2, [r3, #0]
     d62:	69bb      	ldr	r3, [r7, #24]
     d64:	3b04      	subs	r3, #4
     d66:	61bb      	str	r3, [r7, #24]
     d68:	69bb      	ldr	r3, [r7, #24]
     d6a:	220b      	movs	r2, #11
     d6c:	601a      	str	r2, [r3, #0]
     d6e:	69bb      	ldr	r3, [r7, #24]
     d70:	3b04      	subs	r3, #4
     d72:	61bb      	str	r3, [r7, #24]
     d74:	69bb      	ldr	r3, [r7, #24]
     d76:	220a      	movs	r2, #10
     d78:	601a      	str	r2, [r3, #0]
     d7a:	69bb      	ldr	r3, [r7, #24]
     d7c:	3b04      	subs	r3, #4
     d7e:	61bb      	str	r3, [r7, #24]
     d80:	69bb      	ldr	r3, [r7, #24]
     d82:	2209      	movs	r2, #9
     d84:	601a      	str	r2, [r3, #0]
     d86:	69bb      	ldr	r3, [r7, #24]
     d88:	3b04      	subs	r3, #4
     d8a:	61bb      	str	r3, [r7, #24]
     d8c:	69bb      	ldr	r3, [r7, #24]
     d8e:	2208      	movs	r2, #8
     d90:	601a      	str	r2, [r3, #0]
     d92:	69bb      	ldr	r3, [r7, #24]
     d94:	3b04      	subs	r3, #4
     d96:	61bb      	str	r3, [r7, #24]
     d98:	69bb      	ldr	r3, [r7, #24]
     d9a:	2207      	movs	r2, #7
     d9c:	601a      	str	r2, [r3, #0]
     d9e:	69bb      	ldr	r3, [r7, #24]
     da0:	3b04      	subs	r3, #4
     da2:	61bb      	str	r3, [r7, #24]
     da4:	69bb      	ldr	r3, [r7, #24]
     da6:	2206      	movs	r2, #6
     da8:	601a      	str	r2, [r3, #0]
     daa:	69bb      	ldr	r3, [r7, #24]
     dac:	3b04      	subs	r3, #4
     dae:	61bb      	str	r3, [r7, #24]
     db0:	69bb      	ldr	r3, [r7, #24]
     db2:	2205      	movs	r2, #5
     db4:	601a      	str	r2, [r3, #0]
     db6:	69bb      	ldr	r3, [r7, #24]
     db8:	3b04      	subs	r3, #4
     dba:	61bb      	str	r3, [r7, #24]
     dbc:	69bb      	ldr	r3, [r7, #24]
     dbe:	2204      	movs	r2, #4
     dc0:	601a      	str	r2, [r3, #0]
     dc2:	68fb      	ldr	r3, [r7, #12]
     dc4:	69ba      	ldr	r2, [r7, #24]
     dc6:	601a      	str	r2, [r3, #0]
     dc8:	68fb      	ldr	r3, [r7, #12]
     dca:	2200      	movs	r2, #0
     dcc:	605a      	str	r2, [r3, #4]
     dce:	68fb      	ldr	r3, [r7, #12]
     dd0:	2200      	movs	r2, #0
     dd2:	615a      	str	r2, [r3, #20]
     dd4:	68fb      	ldr	r3, [r7, #12]
     dd6:	330c      	adds	r3, #12
     dd8:	4618      	mov	r0, r3
     dda:	f000 fc5d 	bl	1698 <list_node_init>
     dde:	68fb      	ldr	r3, [r7, #12]
     de0:	683a      	ldr	r2, [r7, #0]
     de2:	609a      	str	r2, [r3, #8]
     de4:	68fb      	ldr	r3, [r7, #12]
     de6:	220a      	movs	r2, #10
     de8:	621a      	str	r2, [r3, #32]
     dea:	68fb      	ldr	r3, [r7, #12]
     dec:	3318      	adds	r3, #24
     dee:	4618      	mov	r0, r3
     df0:	f000 fc52 	bl	1698 <list_node_init>
     df4:	683a      	ldr	r2, [r7, #0]
     df6:	4613      	mov	r3, r2
     df8:	005b      	lsls	r3, r3, #1
     dfa:	4413      	add	r3, r2
     dfc:	009b      	lsls	r3, r3, #2
     dfe:	4a15      	ldr	r2, [pc, #84]	; (e54 <task_init+0x16a>)
     e00:	441a      	add	r2, r3
     e02:	68fb      	ldr	r3, [r7, #12]
     e04:	3318      	adds	r3, #24
     e06:	4619      	mov	r1, r3
     e08:	4610      	mov	r0, r2
     e0a:	f000 fd29 	bl	1860 <list_append_last>
     e0e:	6839      	ldr	r1, [r7, #0]
     e10:	4811      	ldr	r0, [pc, #68]	; (e58 <task_init+0x16e>)
     e12:	f000 fbd2 	bl	15ba <bitmap_set>
     e16:	68fb      	ldr	r3, [r7, #12]
     e18:	2200      	movs	r2, #0
     e1a:	625a      	str	r2, [r3, #36]	; 0x24
     e1c:	68fb      	ldr	r3, [r7, #12]
     e1e:	2200      	movs	r2, #0
     e20:	629a      	str	r2, [r3, #40]	; 0x28
     e22:	68fb      	ldr	r3, [r7, #12]
     e24:	2200      	movs	r2, #0
     e26:	62da      	str	r2, [r3, #44]	; 0x2c
     e28:	68fb      	ldr	r3, [r7, #12]
     e2a:	2200      	movs	r2, #0
     e2c:	f883 2030 	strb.w	r2, [r3, #48]	; 0x30
     e30:	68fb      	ldr	r3, [r7, #12]
     e32:	2200      	movs	r2, #0
     e34:	635a      	str	r2, [r3, #52]	; 0x34
     e36:	68fb      	ldr	r3, [r7, #12]
     e38:	2200      	movs	r2, #0
     e3a:	639a      	str	r2, [r3, #56]	; 0x38
     e3c:	68fb      	ldr	r3, [r7, #12]
     e3e:	2200      	movs	r2, #0
     e40:	63da      	str	r2, [r3, #60]	; 0x3c
     e42:	bf00      	nop
     e44:	3710      	adds	r7, #16
     e46:	46bd      	mov	sp, r7
     e48:	bd80      	pop	{r7, pc}
     e4a:	bf00      	nop
     e4c:	00002d74 	andeq	r2, r0, r4, ror sp
     e50:	00002d2c 	andeq	r2, r0, ip, lsr #26
     e54:	20000008 	andcs	r0, r0, r8
     e58:	200011d8 	ldrdcs	r1, [r0], -r8

00000e5c <task_sched>:
     e5c:	b580      	push	{r7, lr}
     e5e:	b082      	sub	sp, #8
     e60:	af00      	add	r7, sp, #0
     e62:	f000 f931 	bl	10c8 <task_enter_critical>
     e66:	6078      	str	r0, [r7, #4]
     e68:	4b0d      	ldr	r3, [pc, #52]	; (ea0 <task_sched+0x44>)
     e6a:	781b      	ldrb	r3, [r3, #0]
     e6c:	2b00      	cmp	r3, #0
     e6e:	d10d      	bne.n	e8c <task_sched+0x30>
     e70:	f000 f97e 	bl	1170 <task_highest_ready>
     e74:	6038      	str	r0, [r7, #0]
     e76:	4b0b      	ldr	r3, [pc, #44]	; (ea4 <task_sched+0x48>)
     e78:	681b      	ldr	r3, [r3, #0]
     e7a:	683a      	ldr	r2, [r7, #0]
     e7c:	429a      	cmp	r2, r3
     e7e:	d007      	beq.n	e90 <task_sched+0x34>
     e80:	4a09      	ldr	r2, [pc, #36]	; (ea8 <task_sched+0x4c>)
     e82:	683b      	ldr	r3, [r7, #0]
     e84:	6013      	str	r3, [r2, #0]
     e86:	f000 f811 	bl	eac <task_switch>
     e8a:	e002      	b.n	e92 <task_sched+0x36>
     e8c:	bf00      	nop
     e8e:	e000      	b.n	e92 <task_sched+0x36>
     e90:	bf00      	nop
     e92:	6878      	ldr	r0, [r7, #4]
     e94:	f000 f925 	bl	10e2 <task_exit_critical>
     e98:	bf00      	nop
     e9a:	3708      	adds	r7, #8
     e9c:	46bd      	mov	sp, r7
     e9e:	bd80      	pop	{r7, pc}
     ea0:	200011d4 	ldrdcs	r1, [r0], -r4
     ea4:	20000000 	andcs	r0, r0, r0
     ea8:	20000004 	andcs	r0, r0, r4

00000eac <task_switch>:
     eac:	b480      	push	{r7}
     eae:	af00      	add	r7, sp, #0
     eb0:	4b03      	ldr	r3, [pc, #12]	; (ec0 <task_switch+0x14>)
     eb2:	f04f 5280 	mov.w	r2, #268435456	; 0x10000000
     eb6:	601a      	str	r2, [r3, #0]
     eb8:	bf00      	nop
     eba:	46bd      	mov	sp, r7
     ebc:	bc80      	pop	{r7}
     ebe:	4770      	bx	lr
     ec0:	e000ed04 	and	lr, r0, r4, lsl #26

00000ec4 <task_run_first>:
     ec4:	b580      	push	{r7, lr}
     ec6:	af00      	add	r7, sp, #0
     ec8:	4906      	ldr	r1, [pc, #24]	; (ee4 <task_run_first+0x20>)
     eca:	4807      	ldr	r0, [pc, #28]	; (ee8 <task_run_first+0x24>)
     ecc:	f7ff fc6a 	bl	7a4 <printk>
     ed0:	4b06      	ldr	r3, [pc, #24]	; (eec <task_run_first+0x28>)
     ed2:	22ff      	movs	r2, #255	; 0xff
     ed4:	701a      	strb	r2, [r3, #0]
     ed6:	4b06      	ldr	r3, [pc, #24]	; (ef0 <task_run_first+0x2c>)
     ed8:	f04f 5280 	mov.w	r2, #268435456	; 0x10000000
     edc:	601a      	str	r2, [r3, #0]
     ede:	bf00      	nop
     ee0:	bd80      	pop	{r7, pc}
     ee2:	bf00      	nop
     ee4:	00002d80 	andeq	r2, r0, r0, lsl #27
     ee8:	00002d2c 	andeq	r2, r0, ip, lsr #26
     eec:	e000ed22 	and	lr, r0, r2, lsr #26
     ef0:	e000ed04 	and	lr, r0, r4, lsl #26

00000ef4 <task_delay>:
     ef4:	b580      	push	{r7, lr}
     ef6:	b084      	sub	sp, #16
     ef8:	af00      	add	r7, sp, #0
     efa:	6078      	str	r0, [r7, #4]
     efc:	f000 f8e4 	bl	10c8 <task_enter_critical>
     f00:	60f8      	str	r0, [r7, #12]
     f02:	4b0a      	ldr	r3, [pc, #40]	; (f2c <task_delay+0x38>)
     f04:	681b      	ldr	r3, [r3, #0]
     f06:	6879      	ldr	r1, [r7, #4]
     f08:	4618      	mov	r0, r3
     f0a:	f000 f99b 	bl	1244 <task_delay_wait>
     f0e:	4b07      	ldr	r3, [pc, #28]	; (f2c <task_delay+0x38>)
     f10:	681b      	ldr	r3, [r3, #0]
     f12:	4618      	mov	r0, r3
     f14:	f000 f968 	bl	11e8 <task_unready>
     f18:	68f8      	ldr	r0, [r7, #12]
     f1a:	f000 f8e2 	bl	10e2 <task_exit_critical>
     f1e:	f7ff ff9d 	bl	e5c <task_sched>
     f22:	bf00      	nop
     f24:	3710      	adds	r7, #16
     f26:	46bd      	mov	sp, r7
     f28:	bd80      	pop	{r7, pc}
     f2a:	bf00      	nop
     f2c:	20000000 	andcs	r0, r0, r0

00000f30 <task_delay_s>:
     f30:	b580      	push	{r7, lr}
     f32:	b082      	sub	sp, #8
     f34:	af00      	add	r7, sp, #0
     f36:	6078      	str	r0, [r7, #4]
     f38:	687b      	ldr	r3, [r7, #4]
     f3a:	2264      	movs	r2, #100	; 0x64
     f3c:	fb02 f303 	mul.w	r3, r2, r3
     f40:	4618      	mov	r0, r3
     f42:	f7ff ffd7 	bl	ef4 <task_delay>
     f46:	bf00      	nop
     f48:	3708      	adds	r7, #8
     f4a:	46bd      	mov	sp, r7
     f4c:	bd80      	pop	{r7, pc}

00000f4e <task_system_tick_handler>:
     f4e:	b580      	push	{r7, lr}
     f50:	b084      	sub	sp, #16
     f52:	af00      	add	r7, sp, #0
     f54:	f000 f8b8 	bl	10c8 <task_enter_critical>
     f58:	60b8      	str	r0, [r7, #8]
     f5a:	4b38      	ldr	r3, [pc, #224]	; (103c <task_system_tick_handler+0xee>)
     f5c:	607b      	str	r3, [r7, #4]
     f5e:	687b      	ldr	r3, [r7, #4]
     f60:	685b      	ldr	r3, [r3, #4]
     f62:	60fb      	str	r3, [r7, #12]
     f64:	2300      	movs	r3, #0
     f66:	603b      	str	r3, [r7, #0]
     f68:	e01d      	b.n	fa6 <task_system_tick_handler+0x58>
     f6a:	68fb      	ldr	r3, [r7, #12]
     f6c:	3b0c      	subs	r3, #12
     f6e:	603b      	str	r3, [r7, #0]
     f70:	68fb      	ldr	r3, [r7, #12]
     f72:	685b      	ldr	r3, [r3, #4]
     f74:	60fb      	str	r3, [r7, #12]
     f76:	683b      	ldr	r3, [r7, #0]
     f78:	685b      	ldr	r3, [r3, #4]
     f7a:	1e5a      	subs	r2, r3, #1
     f7c:	683b      	ldr	r3, [r7, #0]
     f7e:	605a      	str	r2, [r3, #4]
     f80:	683b      	ldr	r3, [r7, #0]
     f82:	685b      	ldr	r3, [r3, #4]
     f84:	2b00      	cmp	r3, #0
     f86:	d10e      	bne.n	fa6 <task_system_tick_handler+0x58>
     f88:	683b      	ldr	r3, [r7, #0]
     f8a:	6b5b      	ldr	r3, [r3, #52]	; 0x34
     f8c:	2b00      	cmp	r3, #0
     f8e:	d004      	beq.n	f9a <task_system_tick_handler+0x4c>
     f90:	2201      	movs	r2, #1
     f92:	2100      	movs	r1, #0
     f94:	6838      	ldr	r0, [r7, #0]
     f96:	f000 fd98 	bl	1aca <event_remove_task>
     f9a:	6838      	ldr	r0, [r7, #0]
     f9c:	f000 f96c 	bl	1278 <task_delay_wakeup>
     fa0:	6838      	ldr	r0, [r7, #0]
     fa2:	f000 f901 	bl	11a8 <task_ready>
     fa6:	68fa      	ldr	r2, [r7, #12]
     fa8:	687b      	ldr	r3, [r7, #4]
     faa:	429a      	cmp	r2, r3
     fac:	d1dd      	bne.n	f6a <task_system_tick_handler+0x1c>
     fae:	4b24      	ldr	r3, [pc, #144]	; (1040 <task_system_tick_handler+0xf2>)
     fb0:	681b      	ldr	r3, [r3, #0]
     fb2:	6a1a      	ldr	r2, [r3, #32]
     fb4:	3a01      	subs	r2, #1
     fb6:	621a      	str	r2, [r3, #32]
     fb8:	6a1b      	ldr	r3, [r3, #32]
     fba:	2b00      	cmp	r3, #0
     fbc:	d132      	bne.n	1024 <task_system_tick_handler+0xd6>
     fbe:	4b20      	ldr	r3, [pc, #128]	; (1040 <task_system_tick_handler+0xf2>)
     fc0:	681b      	ldr	r3, [r3, #0]
     fc2:	689a      	ldr	r2, [r3, #8]
     fc4:	4613      	mov	r3, r2
     fc6:	005b      	lsls	r3, r3, #1
     fc8:	4413      	add	r3, r2
     fca:	009b      	lsls	r3, r3, #2
     fcc:	4a1d      	ldr	r2, [pc, #116]	; (1044 <task_system_tick_handler+0xf6>)
     fce:	4413      	add	r3, r2
     fd0:	4618      	mov	r0, r3
     fd2:	f000 fb85 	bl	16e0 <list_count>
     fd6:	4603      	mov	r3, r0
     fd8:	2b00      	cmp	r3, #0
     fda:	d023      	beq.n	1024 <task_system_tick_handler+0xd6>
     fdc:	4b18      	ldr	r3, [pc, #96]	; (1040 <task_system_tick_handler+0xf2>)
     fde:	681b      	ldr	r3, [r3, #0]
     fe0:	689a      	ldr	r2, [r3, #8]
     fe2:	4613      	mov	r3, r2
     fe4:	005b      	lsls	r3, r3, #1
     fe6:	4413      	add	r3, r2
     fe8:	009b      	lsls	r3, r3, #2
     fea:	4a16      	ldr	r2, [pc, #88]	; (1044 <task_system_tick_handler+0xf6>)
     fec:	441a      	add	r2, r3
     fee:	4b14      	ldr	r3, [pc, #80]	; (1040 <task_system_tick_handler+0xf2>)
     ff0:	681b      	ldr	r3, [r3, #0]
     ff2:	3318      	adds	r3, #24
     ff4:	4619      	mov	r1, r3
     ff6:	4610      	mov	r0, r2
     ff8:	f000 fc90 	bl	191c <list_remove>
     ffc:	4b10      	ldr	r3, [pc, #64]	; (1040 <task_system_tick_handler+0xf2>)
     ffe:	681b      	ldr	r3, [r3, #0]
    1000:	689a      	ldr	r2, [r3, #8]
    1002:	4613      	mov	r3, r2
    1004:	005b      	lsls	r3, r3, #1
    1006:	4413      	add	r3, r2
    1008:	009b      	lsls	r3, r3, #2
    100a:	4a0e      	ldr	r2, [pc, #56]	; (1044 <task_system_tick_handler+0xf6>)
    100c:	441a      	add	r2, r3
    100e:	4b0c      	ldr	r3, [pc, #48]	; (1040 <task_system_tick_handler+0xf2>)
    1010:	681b      	ldr	r3, [r3, #0]
    1012:	3318      	adds	r3, #24
    1014:	4619      	mov	r1, r3
    1016:	4610      	mov	r0, r2
    1018:	f000 fc22 	bl	1860 <list_append_last>
    101c:	4b08      	ldr	r3, [pc, #32]	; (1040 <task_system_tick_handler+0xf2>)
    101e:	681b      	ldr	r3, [r3, #0]
    1020:	220a      	movs	r2, #10
    1022:	621a      	str	r2, [r3, #32]
    1024:	f001 fa4e 	bl	24c4 <timer_module_tick_notify>
    1028:	68b8      	ldr	r0, [r7, #8]
    102a:	f000 f85a 	bl	10e2 <task_exit_critical>
    102e:	f7ff ff15 	bl	e5c <task_sched>
    1032:	bf00      	nop
    1034:	3710      	adds	r7, #16
    1036:	46bd      	mov	sp, r7
    1038:	bd80      	pop	{r7, pc}
    103a:	bf00      	nop
    103c:	200011dc 	ldrdcs	r1, [r0], -ip
    1040:	20000000 	andcs	r0, r0, r0
    1044:	20000008 	andcs	r0, r0, r8

00001048 <init_task_module>:
    1048:	b580      	push	{r7, lr}
    104a:	b084      	sub	sp, #16
    104c:	af02      	add	r7, sp, #8
    104e:	4b16      	ldr	r3, [pc, #88]	; (10a8 <init_task_module+0x60>)
    1050:	2200      	movs	r2, #0
    1052:	701a      	strb	r2, [r3, #0]
    1054:	2300      	movs	r3, #0
    1056:	607b      	str	r3, [r7, #4]
    1058:	4814      	ldr	r0, [pc, #80]	; (10ac <init_task_module+0x64>)
    105a:	f000 fa9b 	bl	1594 <bitmap_init>
    105e:	4814      	ldr	r0, [pc, #80]	; (10b0 <init_task_module+0x68>)
    1060:	f000 fb2c 	bl	16bc <list_init>
    1064:	2300      	movs	r3, #0
    1066:	607b      	str	r3, [r7, #4]
    1068:	e00c      	b.n	1084 <init_task_module+0x3c>
    106a:	687a      	ldr	r2, [r7, #4]
    106c:	4613      	mov	r3, r2
    106e:	005b      	lsls	r3, r3, #1
    1070:	4413      	add	r3, r2
    1072:	009b      	lsls	r3, r3, #2
    1074:	4a0f      	ldr	r2, [pc, #60]	; (10b4 <init_task_module+0x6c>)
    1076:	4413      	add	r3, r2
    1078:	4618      	mov	r0, r3
    107a:	f000 fb1f 	bl	16bc <list_init>
    107e:	687b      	ldr	r3, [r7, #4]
    1080:	3301      	adds	r3, #1
    1082:	607b      	str	r3, [r7, #4]
    1084:	687b      	ldr	r3, [r7, #4]
    1086:	2b1f      	cmp	r3, #31
    1088:	d9ef      	bls.n	106a <init_task_module+0x22>
    108a:	4b0b      	ldr	r3, [pc, #44]	; (10b8 <init_task_module+0x70>)
    108c:	9300      	str	r3, [sp, #0]
    108e:	231f      	movs	r3, #31
    1090:	2200      	movs	r2, #0
    1092:	490a      	ldr	r1, [pc, #40]	; (10bc <init_task_module+0x74>)
    1094:	480a      	ldr	r0, [pc, #40]	; (10c0 <init_task_module+0x78>)
    1096:	f7ff fe28 	bl	cea <task_init>
    109a:	4b0a      	ldr	r3, [pc, #40]	; (10c4 <init_task_module+0x7c>)
    109c:	4a08      	ldr	r2, [pc, #32]	; (10c0 <init_task_module+0x78>)
    109e:	601a      	str	r2, [r3, #0]
    10a0:	bf00      	nop
    10a2:	3708      	adds	r7, #8
    10a4:	46bd      	mov	sp, r7
    10a6:	bd80      	pop	{r7, pc}
    10a8:	200011d4 	ldrdcs	r1, [r0], -r4
    10ac:	200011d8 	ldrdcs	r1, [r0], -r8
    10b0:	200011dc 	ldrdcs	r1, [r0], -ip
    10b4:	20000008 	andcs	r0, r0, r8
    10b8:	200011d4 	ldrdcs	r1, [r0], -r4
    10bc:	00000ce1 	andeq	r0, r0, r1, ror #25
    10c0:	20000188 	andcs	r0, r0, r8, lsl #3
    10c4:	200001d0 	ldrdcs	r0, [r0], -r0	; <UNPREDICTABLE>

000010c8 <task_enter_critical>:
    10c8:	b580      	push	{r7, lr}
    10ca:	b082      	sub	sp, #8
    10cc:	af00      	add	r7, sp, #0
    10ce:	f7ff fdf4 	bl	cba <get_primask>
    10d2:	6078      	str	r0, [r7, #4]
    10d4:	f7ff fdf7 	bl	cc6 <disable_irq>
    10d8:	687b      	ldr	r3, [r7, #4]
    10da:	4618      	mov	r0, r3
    10dc:	3708      	adds	r7, #8
    10de:	46bd      	mov	sp, r7
    10e0:	bd80      	pop	{r7, pc}

000010e2 <task_exit_critical>:
    10e2:	b580      	push	{r7, lr}
    10e4:	b082      	sub	sp, #8
    10e6:	af00      	add	r7, sp, #0
    10e8:	6078      	str	r0, [r7, #4]
    10ea:	6878      	ldr	r0, [r7, #4]
    10ec:	f7ff fde8 	bl	cc0 <set_primask>
    10f0:	f7ff fdeb 	bl	cca <enable_irq>
    10f4:	bf00      	nop
    10f6:	3708      	adds	r7, #8
    10f8:	46bd      	mov	sp, r7
    10fa:	bd80      	pop	{r7, pc}

000010fc <task_sched_disable>:
    10fc:	b580      	push	{r7, lr}
    10fe:	b082      	sub	sp, #8
    1100:	af00      	add	r7, sp, #0
    1102:	f7ff ffe1 	bl	10c8 <task_enter_critical>
    1106:	6078      	str	r0, [r7, #4]
    1108:	4b08      	ldr	r3, [pc, #32]	; (112c <task_sched_disable+0x30>)
    110a:	781b      	ldrb	r3, [r3, #0]
    110c:	2bff      	cmp	r3, #255	; 0xff
    110e:	d005      	beq.n	111c <task_sched_disable+0x20>
    1110:	4b06      	ldr	r3, [pc, #24]	; (112c <task_sched_disable+0x30>)
    1112:	781b      	ldrb	r3, [r3, #0]
    1114:	3301      	adds	r3, #1
    1116:	b2da      	uxtb	r2, r3
    1118:	4b04      	ldr	r3, [pc, #16]	; (112c <task_sched_disable+0x30>)
    111a:	701a      	strb	r2, [r3, #0]
    111c:	6878      	ldr	r0, [r7, #4]
    111e:	f7ff ffe0 	bl	10e2 <task_exit_critical>
    1122:	bf00      	nop
    1124:	3708      	adds	r7, #8
    1126:	46bd      	mov	sp, r7
    1128:	bd80      	pop	{r7, pc}
    112a:	bf00      	nop
    112c:	200011d4 	ldrdcs	r1, [r0], -r4

00001130 <task_sched_enable>:
    1130:	b580      	push	{r7, lr}
    1132:	b082      	sub	sp, #8
    1134:	af00      	add	r7, sp, #0
    1136:	f7ff ffc7 	bl	10c8 <task_enter_critical>
    113a:	6078      	str	r0, [r7, #4]
    113c:	4b0b      	ldr	r3, [pc, #44]	; (116c <task_sched_enable+0x3c>)
    113e:	781b      	ldrb	r3, [r3, #0]
    1140:	2b00      	cmp	r3, #0
    1142:	d00b      	beq.n	115c <task_sched_enable+0x2c>
    1144:	4b09      	ldr	r3, [pc, #36]	; (116c <task_sched_enable+0x3c>)
    1146:	781b      	ldrb	r3, [r3, #0]
    1148:	3b01      	subs	r3, #1
    114a:	b2da      	uxtb	r2, r3
    114c:	4b07      	ldr	r3, [pc, #28]	; (116c <task_sched_enable+0x3c>)
    114e:	701a      	strb	r2, [r3, #0]
    1150:	4b06      	ldr	r3, [pc, #24]	; (116c <task_sched_enable+0x3c>)
    1152:	781b      	ldrb	r3, [r3, #0]
    1154:	2b00      	cmp	r3, #0
    1156:	d101      	bne.n	115c <task_sched_enable+0x2c>
    1158:	f7ff fe80 	bl	e5c <task_sched>
    115c:	6878      	ldr	r0, [r7, #4]
    115e:	f7ff ffc0 	bl	10e2 <task_exit_critical>
    1162:	bf00      	nop
    1164:	3708      	adds	r7, #8
    1166:	46bd      	mov	sp, r7
    1168:	bd80      	pop	{r7, pc}
    116a:	bf00      	nop
    116c:	200011d4 	ldrdcs	r1, [r0], -r4

00001170 <task_highest_ready>:
    1170:	b580      	push	{r7, lr}
    1172:	b082      	sub	sp, #8
    1174:	af00      	add	r7, sp, #0
    1176:	480a      	ldr	r0, [pc, #40]	; (11a0 <task_highest_ready+0x30>)
    1178:	f000 fa46 	bl	1608 <bitmap_get_first_set>
    117c:	6078      	str	r0, [r7, #4]
    117e:	687a      	ldr	r2, [r7, #4]
    1180:	4613      	mov	r3, r2
    1182:	005b      	lsls	r3, r3, #1
    1184:	4413      	add	r3, r2
    1186:	009b      	lsls	r3, r3, #2
    1188:	4a06      	ldr	r2, [pc, #24]	; (11a4 <task_highest_ready+0x34>)
    118a:	4413      	add	r3, r2
    118c:	4618      	mov	r0, r3
    118e:	f000 fab9 	bl	1704 <list_head>
    1192:	6038      	str	r0, [r7, #0]
    1194:	683b      	ldr	r3, [r7, #0]
    1196:	3b18      	subs	r3, #24
    1198:	4618      	mov	r0, r3
    119a:	3708      	adds	r7, #8
    119c:	46bd      	mov	sp, r7
    119e:	bd80      	pop	{r7, pc}
    11a0:	200011d8 	ldrdcs	r1, [r0], -r8
    11a4:	20000008 	andcs	r0, r0, r8

000011a8 <task_ready>:
    11a8:	b580      	push	{r7, lr}
    11aa:	b082      	sub	sp, #8
    11ac:	af00      	add	r7, sp, #0
    11ae:	6078      	str	r0, [r7, #4]
    11b0:	687b      	ldr	r3, [r7, #4]
    11b2:	689a      	ldr	r2, [r3, #8]
    11b4:	4613      	mov	r3, r2
    11b6:	005b      	lsls	r3, r3, #1
    11b8:	4413      	add	r3, r2
    11ba:	009b      	lsls	r3, r3, #2
    11bc:	4a08      	ldr	r2, [pc, #32]	; (11e0 <task_ready+0x38>)
    11be:	441a      	add	r2, r3
    11c0:	687b      	ldr	r3, [r7, #4]
    11c2:	3318      	adds	r3, #24
    11c4:	4619      	mov	r1, r3
    11c6:	4610      	mov	r0, r2
    11c8:	f000 fb4a 	bl	1860 <list_append_last>
    11cc:	687b      	ldr	r3, [r7, #4]
    11ce:	689b      	ldr	r3, [r3, #8]
    11d0:	4619      	mov	r1, r3
    11d2:	4804      	ldr	r0, [pc, #16]	; (11e4 <task_ready+0x3c>)
    11d4:	f000 f9f1 	bl	15ba <bitmap_set>
    11d8:	bf00      	nop
    11da:	3708      	adds	r7, #8
    11dc:	46bd      	mov	sp, r7
    11de:	bd80      	pop	{r7, pc}
    11e0:	20000008 	andcs	r0, r0, r8
    11e4:	200011d8 	ldrdcs	r1, [r0], -r8

000011e8 <task_unready>:
    11e8:	b580      	push	{r7, lr}
    11ea:	b082      	sub	sp, #8
    11ec:	af00      	add	r7, sp, #0
    11ee:	6078      	str	r0, [r7, #4]
    11f0:	687b      	ldr	r3, [r7, #4]
    11f2:	689a      	ldr	r2, [r3, #8]
    11f4:	4613      	mov	r3, r2
    11f6:	005b      	lsls	r3, r3, #1
    11f8:	4413      	add	r3, r2
    11fa:	009b      	lsls	r3, r3, #2
    11fc:	4a0f      	ldr	r2, [pc, #60]	; (123c <task_unready+0x54>)
    11fe:	441a      	add	r2, r3
    1200:	687b      	ldr	r3, [r7, #4]
    1202:	3318      	adds	r3, #24
    1204:	4619      	mov	r1, r3
    1206:	4610      	mov	r0, r2
    1208:	f000 fb88 	bl	191c <list_remove>
    120c:	687b      	ldr	r3, [r7, #4]
    120e:	689a      	ldr	r2, [r3, #8]
    1210:	4613      	mov	r3, r2
    1212:	005b      	lsls	r3, r3, #1
    1214:	4413      	add	r3, r2
    1216:	009b      	lsls	r3, r3, #2
    1218:	4a08      	ldr	r2, [pc, #32]	; (123c <task_unready+0x54>)
    121a:	4413      	add	r3, r2
    121c:	4618      	mov	r0, r3
    121e:	f000 fa5f 	bl	16e0 <list_count>
    1222:	4603      	mov	r3, r0
    1224:	2b00      	cmp	r3, #0
    1226:	d105      	bne.n	1234 <task_unready+0x4c>
    1228:	687b      	ldr	r3, [r7, #4]
    122a:	689b      	ldr	r3, [r3, #8]
    122c:	4619      	mov	r1, r3
    122e:	4804      	ldr	r0, [pc, #16]	; (1240 <task_unready+0x58>)
    1230:	f000 f9d6 	bl	15e0 <bitmap_clear>
    1234:	bf00      	nop
    1236:	3708      	adds	r7, #8
    1238:	46bd      	mov	sp, r7
    123a:	bd80      	pop	{r7, pc}
    123c:	20000008 	andcs	r0, r0, r8
    1240:	200011d8 	ldrdcs	r1, [r0], -r8

00001244 <task_delay_wait>:
    1244:	b580      	push	{r7, lr}
    1246:	b082      	sub	sp, #8
    1248:	af00      	add	r7, sp, #0
    124a:	6078      	str	r0, [r7, #4]
    124c:	6039      	str	r1, [r7, #0]
    124e:	687b      	ldr	r3, [r7, #4]
    1250:	683a      	ldr	r2, [r7, #0]
    1252:	605a      	str	r2, [r3, #4]
    1254:	687b      	ldr	r3, [r7, #4]
    1256:	330c      	adds	r3, #12
    1258:	4619      	mov	r1, r3
    125a:	4806      	ldr	r0, [pc, #24]	; (1274 <task_delay_wait+0x30>)
    125c:	f000 fad7 	bl	180e <list_insert_head>
    1260:	687b      	ldr	r3, [r7, #4]
    1262:	695b      	ldr	r3, [r3, #20]
    1264:	f043 0202 	orr.w	r2, r3, #2
    1268:	687b      	ldr	r3, [r7, #4]
    126a:	615a      	str	r2, [r3, #20]
    126c:	bf00      	nop
    126e:	3708      	adds	r7, #8
    1270:	46bd      	mov	sp, r7
    1272:	bd80      	pop	{r7, pc}
    1274:	200011dc 	ldrdcs	r1, [r0], -ip

00001278 <task_delay_wakeup>:
    1278:	b580      	push	{r7, lr}
    127a:	b082      	sub	sp, #8
    127c:	af00      	add	r7, sp, #0
    127e:	6078      	str	r0, [r7, #4]
    1280:	687b      	ldr	r3, [r7, #4]
    1282:	330c      	adds	r3, #12
    1284:	4619      	mov	r1, r3
    1286:	4806      	ldr	r0, [pc, #24]	; (12a0 <task_delay_wakeup+0x28>)
    1288:	f000 fb48 	bl	191c <list_remove>
    128c:	687b      	ldr	r3, [r7, #4]
    128e:	695b      	ldr	r3, [r3, #20]
    1290:	f023 0202 	bic.w	r2, r3, #2
    1294:	687b      	ldr	r3, [r7, #4]
    1296:	615a      	str	r2, [r3, #20]
    1298:	bf00      	nop
    129a:	3708      	adds	r7, #8
    129c:	46bd      	mov	sp, r7
    129e:	bd80      	pop	{r7, pc}
    12a0:	200011dc 	ldrdcs	r1, [r0], -ip

000012a4 <task_suspend>:
    12a4:	b580      	push	{r7, lr}
    12a6:	b084      	sub	sp, #16
    12a8:	af00      	add	r7, sp, #0
    12aa:	6078      	str	r0, [r7, #4]
    12ac:	f7ff ff0c 	bl	10c8 <task_enter_critical>
    12b0:	60f8      	str	r0, [r7, #12]
    12b2:	687b      	ldr	r3, [r7, #4]
    12b4:	695b      	ldr	r3, [r3, #20]
    12b6:	f003 0302 	and.w	r3, r3, #2
    12ba:	2b00      	cmp	r3, #0
    12bc:	d116      	bne.n	12ec <task_suspend+0x48>
    12be:	687b      	ldr	r3, [r7, #4]
    12c0:	6a5b      	ldr	r3, [r3, #36]	; 0x24
    12c2:	1c59      	adds	r1, r3, #1
    12c4:	687a      	ldr	r2, [r7, #4]
    12c6:	6251      	str	r1, [r2, #36]	; 0x24
    12c8:	2b00      	cmp	r3, #0
    12ca:	d10f      	bne.n	12ec <task_suspend+0x48>
    12cc:	687b      	ldr	r3, [r7, #4]
    12ce:	695b      	ldr	r3, [r3, #20]
    12d0:	f043 0204 	orr.w	r2, r3, #4
    12d4:	687b      	ldr	r3, [r7, #4]
    12d6:	615a      	str	r2, [r3, #20]
    12d8:	6878      	ldr	r0, [r7, #4]
    12da:	f7ff ff85 	bl	11e8 <task_unready>
    12de:	4b07      	ldr	r3, [pc, #28]	; (12fc <task_suspend+0x58>)
    12e0:	681b      	ldr	r3, [r3, #0]
    12e2:	687a      	ldr	r2, [r7, #4]
    12e4:	429a      	cmp	r2, r3
    12e6:	d101      	bne.n	12ec <task_suspend+0x48>
    12e8:	f7ff fdb8 	bl	e5c <task_sched>
    12ec:	68f8      	ldr	r0, [r7, #12]
    12ee:	f7ff fef8 	bl	10e2 <task_exit_critical>
    12f2:	bf00      	nop
    12f4:	3710      	adds	r7, #16
    12f6:	46bd      	mov	sp, r7
    12f8:	bd80      	pop	{r7, pc}
    12fa:	bf00      	nop
    12fc:	20000000 	andcs	r0, r0, r0

00001300 <task_resume>:
    1300:	b580      	push	{r7, lr}
    1302:	b084      	sub	sp, #16
    1304:	af00      	add	r7, sp, #0
    1306:	6078      	str	r0, [r7, #4]
    1308:	f7ff fede 	bl	10c8 <task_enter_critical>
    130c:	60f8      	str	r0, [r7, #12]
    130e:	687b      	ldr	r3, [r7, #4]
    1310:	695b      	ldr	r3, [r3, #20]
    1312:	f003 0304 	and.w	r3, r3, #4
    1316:	2b00      	cmp	r3, #0
    1318:	d013      	beq.n	1342 <task_resume+0x42>
    131a:	687b      	ldr	r3, [r7, #4]
    131c:	6a5b      	ldr	r3, [r3, #36]	; 0x24
    131e:	1e5a      	subs	r2, r3, #1
    1320:	687b      	ldr	r3, [r7, #4]
    1322:	625a      	str	r2, [r3, #36]	; 0x24
    1324:	687b      	ldr	r3, [r7, #4]
    1326:	6a5b      	ldr	r3, [r3, #36]	; 0x24
    1328:	2b00      	cmp	r3, #0
    132a:	d10a      	bne.n	1342 <task_resume+0x42>
    132c:	687b      	ldr	r3, [r7, #4]
    132e:	695b      	ldr	r3, [r3, #20]
    1330:	f023 0204 	bic.w	r2, r3, #4
    1334:	687b      	ldr	r3, [r7, #4]
    1336:	615a      	str	r2, [r3, #20]
    1338:	6878      	ldr	r0, [r7, #4]
    133a:	f7ff ff35 	bl	11a8 <task_ready>
    133e:	f7ff fd8d 	bl	e5c <task_sched>
    1342:	68f8      	ldr	r0, [r7, #12]
    1344:	f7ff fecd 	bl	10e2 <task_exit_critical>
    1348:	bf00      	nop
    134a:	3710      	adds	r7, #16
    134c:	46bd      	mov	sp, r7
    134e:	bd80      	pop	{r7, pc}

00001350 <task_remove_from_prio_table>:
    1350:	b580      	push	{r7, lr}
    1352:	b082      	sub	sp, #8
    1354:	af00      	add	r7, sp, #0
    1356:	6078      	str	r0, [r7, #4]
    1358:	687b      	ldr	r3, [r7, #4]
    135a:	689a      	ldr	r2, [r3, #8]
    135c:	4613      	mov	r3, r2
    135e:	005b      	lsls	r3, r3, #1
    1360:	4413      	add	r3, r2
    1362:	009b      	lsls	r3, r3, #2
    1364:	4a0f      	ldr	r2, [pc, #60]	; (13a4 <task_remove_from_prio_table+0x54>)
    1366:	441a      	add	r2, r3
    1368:	687b      	ldr	r3, [r7, #4]
    136a:	3318      	adds	r3, #24
    136c:	4619      	mov	r1, r3
    136e:	4610      	mov	r0, r2
    1370:	f000 fad4 	bl	191c <list_remove>
    1374:	687b      	ldr	r3, [r7, #4]
    1376:	689a      	ldr	r2, [r3, #8]
    1378:	4613      	mov	r3, r2
    137a:	005b      	lsls	r3, r3, #1
    137c:	4413      	add	r3, r2
    137e:	009b      	lsls	r3, r3, #2
    1380:	4a08      	ldr	r2, [pc, #32]	; (13a4 <task_remove_from_prio_table+0x54>)
    1382:	4413      	add	r3, r2
    1384:	4618      	mov	r0, r3
    1386:	f000 f9ab 	bl	16e0 <list_count>
    138a:	4603      	mov	r3, r0
    138c:	2b00      	cmp	r3, #0
    138e:	d105      	bne.n	139c <task_remove_from_prio_table+0x4c>
    1390:	687b      	ldr	r3, [r7, #4]
    1392:	689b      	ldr	r3, [r3, #8]
    1394:	4619      	mov	r1, r3
    1396:	4804      	ldr	r0, [pc, #16]	; (13a8 <task_remove_from_prio_table+0x58>)
    1398:	f000 f922 	bl	15e0 <bitmap_clear>
    139c:	bf00      	nop
    139e:	3708      	adds	r7, #8
    13a0:	46bd      	mov	sp, r7
    13a2:	bd80      	pop	{r7, pc}
    13a4:	20000008 	andcs	r0, r0, r8
    13a8:	200011d8 	ldrdcs	r1, [r0], -r8

000013ac <task_remove_from_delay_list>:
    13ac:	b580      	push	{r7, lr}
    13ae:	b082      	sub	sp, #8
    13b0:	af00      	add	r7, sp, #0
    13b2:	6078      	str	r0, [r7, #4]
    13b4:	687b      	ldr	r3, [r7, #4]
    13b6:	330c      	adds	r3, #12
    13b8:	4619      	mov	r1, r3
    13ba:	4803      	ldr	r0, [pc, #12]	; (13c8 <task_remove_from_delay_list+0x1c>)
    13bc:	f000 faae 	bl	191c <list_remove>
    13c0:	bf00      	nop
    13c2:	3708      	adds	r7, #8
    13c4:	46bd      	mov	sp, r7
    13c6:	bd80      	pop	{r7, pc}
    13c8:	200011dc 	ldrdcs	r1, [r0], -ip

000013cc <task_set_clean_callbk>:
    13cc:	b480      	push	{r7}
    13ce:	b085      	sub	sp, #20
    13d0:	af00      	add	r7, sp, #0
    13d2:	60f8      	str	r0, [r7, #12]
    13d4:	60b9      	str	r1, [r7, #8]
    13d6:	607a      	str	r2, [r7, #4]
    13d8:	68fb      	ldr	r3, [r7, #12]
    13da:	68ba      	ldr	r2, [r7, #8]
    13dc:	629a      	str	r2, [r3, #40]	; 0x28
    13de:	68fb      	ldr	r3, [r7, #12]
    13e0:	687a      	ldr	r2, [r7, #4]
    13e2:	62da      	str	r2, [r3, #44]	; 0x2c
    13e4:	bf00      	nop
    13e6:	3714      	adds	r7, #20
    13e8:	46bd      	mov	sp, r7
    13ea:	bc80      	pop	{r7}
    13ec:	4770      	bx	lr

000013ee <task_force_delete>:
    13ee:	b580      	push	{r7, lr}
    13f0:	b084      	sub	sp, #16
    13f2:	af00      	add	r7, sp, #0
    13f4:	6078      	str	r0, [r7, #4]
    13f6:	f7ff fe67 	bl	10c8 <task_enter_critical>
    13fa:	60f8      	str	r0, [r7, #12]
    13fc:	687b      	ldr	r3, [r7, #4]
    13fe:	695b      	ldr	r3, [r3, #20]
    1400:	f003 0302 	and.w	r3, r3, #2
    1404:	2b00      	cmp	r3, #0
    1406:	d003      	beq.n	1410 <task_force_delete+0x22>
    1408:	6878      	ldr	r0, [r7, #4]
    140a:	f7ff ffcf 	bl	13ac <task_remove_from_delay_list>
    140e:	e008      	b.n	1422 <task_force_delete+0x34>
    1410:	687b      	ldr	r3, [r7, #4]
    1412:	695b      	ldr	r3, [r3, #20]
    1414:	f003 0304 	and.w	r3, r3, #4
    1418:	2b00      	cmp	r3, #0
    141a:	d102      	bne.n	1422 <task_force_delete+0x34>
    141c:	6878      	ldr	r0, [r7, #4]
    141e:	f7ff ff97 	bl	1350 <task_remove_from_prio_table>
    1422:	687b      	ldr	r3, [r7, #4]
    1424:	6a9b      	ldr	r3, [r3, #40]	; 0x28
    1426:	2b00      	cmp	r3, #0
    1428:	d005      	beq.n	1436 <task_force_delete+0x48>
    142a:	687b      	ldr	r3, [r7, #4]
    142c:	6a9b      	ldr	r3, [r3, #40]	; 0x28
    142e:	687a      	ldr	r2, [r7, #4]
    1430:	6ad2      	ldr	r2, [r2, #44]	; 0x2c
    1432:	4610      	mov	r0, r2
    1434:	4798      	blx	r3
    1436:	4b07      	ldr	r3, [pc, #28]	; (1454 <task_force_delete+0x66>)
    1438:	681b      	ldr	r3, [r3, #0]
    143a:	687a      	ldr	r2, [r7, #4]
    143c:	429a      	cmp	r2, r3
    143e:	d101      	bne.n	1444 <task_force_delete+0x56>
    1440:	f7ff fd0c 	bl	e5c <task_sched>
    1444:	68f8      	ldr	r0, [r7, #12]
    1446:	f7ff fe4c 	bl	10e2 <task_exit_critical>
    144a:	bf00      	nop
    144c:	3710      	adds	r7, #16
    144e:	46bd      	mov	sp, r7
    1450:	bd80      	pop	{r7, pc}
    1452:	bf00      	nop
    1454:	20000000 	andcs	r0, r0, r0

00001458 <task_request_delete>:
    1458:	b580      	push	{r7, lr}
    145a:	b084      	sub	sp, #16
    145c:	af00      	add	r7, sp, #0
    145e:	6078      	str	r0, [r7, #4]
    1460:	f7ff fe32 	bl	10c8 <task_enter_critical>
    1464:	60f8      	str	r0, [r7, #12]
    1466:	687b      	ldr	r3, [r7, #4]
    1468:	2201      	movs	r2, #1
    146a:	f883 2030 	strb.w	r2, [r3, #48]	; 0x30
    146e:	68f8      	ldr	r0, [r7, #12]
    1470:	f7ff fe37 	bl	10e2 <task_exit_critical>
    1474:	bf00      	nop
    1476:	3710      	adds	r7, #16
    1478:	46bd      	mov	sp, r7
    147a:	bd80      	pop	{r7, pc}

0000147c <is_task_request_delete>:
    147c:	b580      	push	{r7, lr}
    147e:	b082      	sub	sp, #8
    1480:	af00      	add	r7, sp, #0
    1482:	f7ff fe21 	bl	10c8 <task_enter_critical>
    1486:	6078      	str	r0, [r7, #4]
    1488:	4b06      	ldr	r3, [pc, #24]	; (14a4 <is_task_request_delete+0x28>)
    148a:	681b      	ldr	r3, [r3, #0]
    148c:	f893 3030 	ldrb.w	r3, [r3, #48]	; 0x30
    1490:	70fb      	strb	r3, [r7, #3]
    1492:	6878      	ldr	r0, [r7, #4]
    1494:	f7ff fe25 	bl	10e2 <task_exit_critical>
    1498:	78fb      	ldrb	r3, [r7, #3]
    149a:	4618      	mov	r0, r3
    149c:	3708      	adds	r7, #8
    149e:	46bd      	mov	sp, r7
    14a0:	bd80      	pop	{r7, pc}
    14a2:	bf00      	nop
    14a4:	20000000 	andcs	r0, r0, r0

000014a8 <task_delete_self>:
    14a8:	b580      	push	{r7, lr}
    14aa:	b082      	sub	sp, #8
    14ac:	af00      	add	r7, sp, #0
    14ae:	f7ff fe0b 	bl	10c8 <task_enter_critical>
    14b2:	4603      	mov	r3, r0
    14b4:	71fb      	strb	r3, [r7, #7]
    14b6:	4b0e      	ldr	r3, [pc, #56]	; (14f0 <task_delete_self+0x48>)
    14b8:	681b      	ldr	r3, [r3, #0]
    14ba:	4618      	mov	r0, r3
    14bc:	f7ff ff48 	bl	1350 <task_remove_from_prio_table>
    14c0:	4b0b      	ldr	r3, [pc, #44]	; (14f0 <task_delete_self+0x48>)
    14c2:	681b      	ldr	r3, [r3, #0]
    14c4:	6a9b      	ldr	r3, [r3, #40]	; 0x28
    14c6:	2b00      	cmp	r3, #0
    14c8:	d007      	beq.n	14da <task_delete_self+0x32>
    14ca:	4b09      	ldr	r3, [pc, #36]	; (14f0 <task_delete_self+0x48>)
    14cc:	681b      	ldr	r3, [r3, #0]
    14ce:	6a9b      	ldr	r3, [r3, #40]	; 0x28
    14d0:	4a07      	ldr	r2, [pc, #28]	; (14f0 <task_delete_self+0x48>)
    14d2:	6812      	ldr	r2, [r2, #0]
    14d4:	6ad2      	ldr	r2, [r2, #44]	; 0x2c
    14d6:	4610      	mov	r0, r2
    14d8:	4798      	blx	r3
    14da:	f7ff fcbf 	bl	e5c <task_sched>
    14de:	79fb      	ldrb	r3, [r7, #7]
    14e0:	4618      	mov	r0, r3
    14e2:	f7ff fdfe 	bl	10e2 <task_exit_critical>
    14e6:	bf00      	nop
    14e8:	3708      	adds	r7, #8
    14ea:	46bd      	mov	sp, r7
    14ec:	bd80      	pop	{r7, pc}
    14ee:	bf00      	nop
    14f0:	20000000 	andcs	r0, r0, r0

000014f4 <task_get_info>:
    14f4:	b580      	push	{r7, lr}
    14f6:	b084      	sub	sp, #16
    14f8:	af00      	add	r7, sp, #0
    14fa:	6078      	str	r0, [r7, #4]
    14fc:	6039      	str	r1, [r7, #0]
    14fe:	f7ff fde3 	bl	10c8 <task_enter_critical>
    1502:	60f8      	str	r0, [r7, #12]
    1504:	687b      	ldr	r3, [r7, #4]
    1506:	685a      	ldr	r2, [r3, #4]
    1508:	683b      	ldr	r3, [r7, #0]
    150a:	601a      	str	r2, [r3, #0]
    150c:	687b      	ldr	r3, [r7, #4]
    150e:	689a      	ldr	r2, [r3, #8]
    1510:	683b      	ldr	r3, [r7, #0]
    1512:	605a      	str	r2, [r3, #4]
    1514:	687b      	ldr	r3, [r7, #4]
    1516:	695a      	ldr	r2, [r3, #20]
    1518:	683b      	ldr	r3, [r7, #0]
    151a:	609a      	str	r2, [r3, #8]
    151c:	687b      	ldr	r3, [r7, #4]
    151e:	6a1a      	ldr	r2, [r3, #32]
    1520:	683b      	ldr	r3, [r7, #0]
    1522:	60da      	str	r2, [r3, #12]
    1524:	687b      	ldr	r3, [r7, #4]
    1526:	6a5a      	ldr	r2, [r3, #36]	; 0x24
    1528:	683b      	ldr	r3, [r7, #0]
    152a:	611a      	str	r2, [r3, #16]
    152c:	68f8      	ldr	r0, [r7, #12]
    152e:	f7ff fdd8 	bl	10e2 <task_exit_critical>
    1532:	bf00      	nop
    1534:	3710      	adds	r7, #16
    1536:	46bd      	mov	sp, r7
    1538:	bd80      	pop	{r7, pc}

0000153a <dump_task_info>:
    153a:	b580      	push	{r7, lr}
    153c:	b082      	sub	sp, #8
    153e:	af00      	add	r7, sp, #0
    1540:	6078      	str	r0, [r7, #4]
    1542:	480f      	ldr	r0, [pc, #60]	; (1580 <dump_task_info+0x46>)
    1544:	f7ff f92e 	bl	7a4 <printk>
    1548:	687b      	ldr	r3, [r7, #4]
    154a:	681b      	ldr	r3, [r3, #0]
    154c:	4619      	mov	r1, r3
    154e:	480d      	ldr	r0, [pc, #52]	; (1584 <dump_task_info+0x4a>)
    1550:	f7ff f928 	bl	7a4 <printk>
    1554:	687b      	ldr	r3, [r7, #4]
    1556:	685b      	ldr	r3, [r3, #4]
    1558:	4619      	mov	r1, r3
    155a:	480b      	ldr	r0, [pc, #44]	; (1588 <dump_task_info+0x4e>)
    155c:	f7ff f922 	bl	7a4 <printk>
    1560:	687b      	ldr	r3, [r7, #4]
    1562:	68db      	ldr	r3, [r3, #12]
    1564:	4619      	mov	r1, r3
    1566:	4809      	ldr	r0, [pc, #36]	; (158c <dump_task_info+0x52>)
    1568:	f7ff f91c 	bl	7a4 <printk>
    156c:	687b      	ldr	r3, [r7, #4]
    156e:	691b      	ldr	r3, [r3, #16]
    1570:	4619      	mov	r1, r3
    1572:	4807      	ldr	r0, [pc, #28]	; (1590 <dump_task_info+0x56>)
    1574:	f7ff f916 	bl	7a4 <printk>
    1578:	bf00      	nop
    157a:	3708      	adds	r7, #8
    157c:	46bd      	mov	sp, r7
    157e:	bd80      	pop	{r7, pc}
    1580:	00002d30 	andeq	r2, r0, r0, lsr sp
    1584:	00002d3c 	andeq	r2, r0, ip, lsr sp
    1588:	00002d4c 	andeq	r2, r0, ip, asr #26
    158c:	00002d58 	andeq	r2, r0, r8, asr sp
    1590:	00002d64 	andeq	r2, r0, r4, ror #26

00001594 <bitmap_init>:
    1594:	b480      	push	{r7}
    1596:	b083      	sub	sp, #12
    1598:	af00      	add	r7, sp, #0
    159a:	6078      	str	r0, [r7, #4]
    159c:	687b      	ldr	r3, [r7, #4]
    159e:	2200      	movs	r2, #0
    15a0:	601a      	str	r2, [r3, #0]
    15a2:	bf00      	nop
    15a4:	370c      	adds	r7, #12
    15a6:	46bd      	mov	sp, r7
    15a8:	bc80      	pop	{r7}
    15aa:	4770      	bx	lr

000015ac <bitmap_count>:
    15ac:	b480      	push	{r7}
    15ae:	af00      	add	r7, sp, #0
    15b0:	2320      	movs	r3, #32
    15b2:	4618      	mov	r0, r3
    15b4:	46bd      	mov	sp, r7
    15b6:	bc80      	pop	{r7}
    15b8:	4770      	bx	lr

000015ba <bitmap_set>:
    15ba:	b480      	push	{r7}
    15bc:	b083      	sub	sp, #12
    15be:	af00      	add	r7, sp, #0
    15c0:	6078      	str	r0, [r7, #4]
    15c2:	6039      	str	r1, [r7, #0]
    15c4:	687b      	ldr	r3, [r7, #4]
    15c6:	681b      	ldr	r3, [r3, #0]
    15c8:	2101      	movs	r1, #1
    15ca:	683a      	ldr	r2, [r7, #0]
    15cc:	fa01 f202 	lsl.w	r2, r1, r2
    15d0:	431a      	orrs	r2, r3
    15d2:	687b      	ldr	r3, [r7, #4]
    15d4:	601a      	str	r2, [r3, #0]
    15d6:	bf00      	nop
    15d8:	370c      	adds	r7, #12
    15da:	46bd      	mov	sp, r7
    15dc:	bc80      	pop	{r7}
    15de:	4770      	bx	lr

000015e0 <bitmap_clear>:
    15e0:	b480      	push	{r7}
    15e2:	b083      	sub	sp, #12
    15e4:	af00      	add	r7, sp, #0
    15e6:	6078      	str	r0, [r7, #4]
    15e8:	6039      	str	r1, [r7, #0]
    15ea:	687b      	ldr	r3, [r7, #4]
    15ec:	681b      	ldr	r3, [r3, #0]
    15ee:	2101      	movs	r1, #1
    15f0:	683a      	ldr	r2, [r7, #0]
    15f2:	fa01 f202 	lsl.w	r2, r1, r2
    15f6:	43d2      	mvns	r2, r2
    15f8:	401a      	ands	r2, r3
    15fa:	687b      	ldr	r3, [r7, #4]
    15fc:	601a      	str	r2, [r3, #0]
    15fe:	bf00      	nop
    1600:	370c      	adds	r7, #12
    1602:	46bd      	mov	sp, r7
    1604:	bc80      	pop	{r7}
    1606:	4770      	bx	lr

00001608 <bitmap_get_first_set>:
    1608:	b580      	push	{r7, lr}
    160a:	b084      	sub	sp, #16
    160c:	af00      	add	r7, sp, #0
    160e:	6078      	str	r0, [r7, #4]
    1610:	2320      	movs	r3, #32
    1612:	60fb      	str	r3, [r7, #12]
    1614:	687b      	ldr	r3, [r7, #4]
    1616:	681b      	ldr	r3, [r3, #0]
    1618:	b2db      	uxtb	r3, r3
    161a:	2b00      	cmp	r3, #0
    161c:	d006      	beq.n	162c <bitmap_get_first_set+0x24>
    161e:	687b      	ldr	r3, [r7, #4]
    1620:	681b      	ldr	r3, [r3, #0]
    1622:	b2db      	uxtb	r3, r3
    1624:	4a1b      	ldr	r2, [pc, #108]	; (1694 <bitmap_get_first_set+0x8c>)
    1626:	5cd3      	ldrb	r3, [r2, r3]
    1628:	60fb      	str	r3, [r7, #12]
    162a:	e02e      	b.n	168a <bitmap_get_first_set+0x82>
    162c:	687b      	ldr	r3, [r7, #4]
    162e:	681b      	ldr	r3, [r3, #0]
    1630:	f403 437f 	and.w	r3, r3, #65280	; 0xff00
    1634:	2b00      	cmp	r3, #0
    1636:	d008      	beq.n	164a <bitmap_get_first_set+0x42>
    1638:	687b      	ldr	r3, [r7, #4]
    163a:	681b      	ldr	r3, [r3, #0]
    163c:	0a1b      	lsrs	r3, r3, #8
    163e:	b2db      	uxtb	r3, r3
    1640:	4a14      	ldr	r2, [pc, #80]	; (1694 <bitmap_get_first_set+0x8c>)
    1642:	5cd3      	ldrb	r3, [r2, r3]
    1644:	3308      	adds	r3, #8
    1646:	60fb      	str	r3, [r7, #12]
    1648:	e01f      	b.n	168a <bitmap_get_first_set+0x82>
    164a:	687b      	ldr	r3, [r7, #4]
    164c:	681b      	ldr	r3, [r3, #0]
    164e:	f403 037f 	and.w	r3, r3, #16711680	; 0xff0000
    1652:	2b00      	cmp	r3, #0
    1654:	d008      	beq.n	1668 <bitmap_get_first_set+0x60>
    1656:	687b      	ldr	r3, [r7, #4]
    1658:	681b      	ldr	r3, [r3, #0]
    165a:	0c1b      	lsrs	r3, r3, #16
    165c:	b2db      	uxtb	r3, r3
    165e:	4a0d      	ldr	r2, [pc, #52]	; (1694 <bitmap_get_first_set+0x8c>)
    1660:	5cd3      	ldrb	r3, [r2, r3]
    1662:	3310      	adds	r3, #16
    1664:	60fb      	str	r3, [r7, #12]
    1666:	e010      	b.n	168a <bitmap_get_first_set+0x82>
    1668:	687b      	ldr	r3, [r7, #4]
    166a:	681b      	ldr	r3, [r3, #0]
    166c:	f003 437f 	and.w	r3, r3, #4278190080	; 0xff000000
    1670:	2b00      	cmp	r3, #0
    1672:	d007      	beq.n	1684 <bitmap_get_first_set+0x7c>
    1674:	687b      	ldr	r3, [r7, #4]
    1676:	681b      	ldr	r3, [r3, #0]
    1678:	0e1b      	lsrs	r3, r3, #24
    167a:	4a06      	ldr	r2, [pc, #24]	; (1694 <bitmap_get_first_set+0x8c>)
    167c:	5cd3      	ldrb	r3, [r2, r3]
    167e:	3318      	adds	r3, #24
    1680:	60fb      	str	r3, [r7, #12]
    1682:	e002      	b.n	168a <bitmap_get_first_set+0x82>
    1684:	f7ff ff92 	bl	15ac <bitmap_count>
    1688:	60f8      	str	r0, [r7, #12]
    168a:	68fb      	ldr	r3, [r7, #12]
    168c:	4618      	mov	r0, r3
    168e:	3710      	adds	r7, #16
    1690:	46bd      	mov	sp, r7
    1692:	bd80      	pop	{r7, pc}
    1694:	00002d90 	muleq	r0, r0, sp

00001698 <list_node_init>:
    1698:	b480      	push	{r7}
    169a:	b083      	sub	sp, #12
    169c:	af00      	add	r7, sp, #0
    169e:	6078      	str	r0, [r7, #4]
    16a0:	687b      	ldr	r3, [r7, #4]
    16a2:	2b00      	cmp	r3, #0
    16a4:	d005      	beq.n	16b2 <list_node_init+0x1a>
    16a6:	687b      	ldr	r3, [r7, #4]
    16a8:	687a      	ldr	r2, [r7, #4]
    16aa:	601a      	str	r2, [r3, #0]
    16ac:	687b      	ldr	r3, [r7, #4]
    16ae:	687a      	ldr	r2, [r7, #4]
    16b0:	605a      	str	r2, [r3, #4]
    16b2:	bf00      	nop
    16b4:	370c      	adds	r7, #12
    16b6:	46bd      	mov	sp, r7
    16b8:	bc80      	pop	{r7}
    16ba:	4770      	bx	lr

000016bc <list_init>:
    16bc:	b580      	push	{r7, lr}
    16be:	b082      	sub	sp, #8
    16c0:	af00      	add	r7, sp, #0
    16c2:	6078      	str	r0, [r7, #4]
    16c4:	687b      	ldr	r3, [r7, #4]
    16c6:	2b00      	cmp	r3, #0
    16c8:	d006      	beq.n	16d8 <list_init+0x1c>
    16ca:	687b      	ldr	r3, [r7, #4]
    16cc:	2200      	movs	r2, #0
    16ce:	609a      	str	r2, [r3, #8]
    16d0:	687b      	ldr	r3, [r7, #4]
    16d2:	4618      	mov	r0, r3
    16d4:	f7ff ffe0 	bl	1698 <list_node_init>
    16d8:	bf00      	nop
    16da:	3708      	adds	r7, #8
    16dc:	46bd      	mov	sp, r7
    16de:	bd80      	pop	{r7, pc}

000016e0 <list_count>:
    16e0:	b480      	push	{r7}
    16e2:	b085      	sub	sp, #20
    16e4:	af00      	add	r7, sp, #0
    16e6:	6078      	str	r0, [r7, #4]
    16e8:	2300      	movs	r3, #0
    16ea:	60fb      	str	r3, [r7, #12]
    16ec:	687b      	ldr	r3, [r7, #4]
    16ee:	2b00      	cmp	r3, #0
    16f0:	d002      	beq.n	16f8 <list_count+0x18>
    16f2:	687b      	ldr	r3, [r7, #4]
    16f4:	689b      	ldr	r3, [r3, #8]
    16f6:	60fb      	str	r3, [r7, #12]
    16f8:	68fb      	ldr	r3, [r7, #12]
    16fa:	4618      	mov	r0, r3
    16fc:	3714      	adds	r7, #20
    16fe:	46bd      	mov	sp, r7
    1700:	bc80      	pop	{r7}
    1702:	4770      	bx	lr

00001704 <list_head>:
    1704:	b480      	push	{r7}
    1706:	b085      	sub	sp, #20
    1708:	af00      	add	r7, sp, #0
    170a:	6078      	str	r0, [r7, #4]
    170c:	687b      	ldr	r3, [r7, #4]
    170e:	60bb      	str	r3, [r7, #8]
    1710:	2300      	movs	r3, #0
    1712:	60fb      	str	r3, [r7, #12]
    1714:	687b      	ldr	r3, [r7, #4]
    1716:	689b      	ldr	r3, [r3, #8]
    1718:	2b00      	cmp	r3, #0
    171a:	d002      	beq.n	1722 <list_head+0x1e>
    171c:	68bb      	ldr	r3, [r7, #8]
    171e:	685b      	ldr	r3, [r3, #4]
    1720:	60fb      	str	r3, [r7, #12]
    1722:	68fb      	ldr	r3, [r7, #12]
    1724:	4618      	mov	r0, r3
    1726:	3714      	adds	r7, #20
    1728:	46bd      	mov	sp, r7
    172a:	bc80      	pop	{r7}
    172c:	4770      	bx	lr

0000172e <list_tail>:
    172e:	b480      	push	{r7}
    1730:	b085      	sub	sp, #20
    1732:	af00      	add	r7, sp, #0
    1734:	6078      	str	r0, [r7, #4]
    1736:	687b      	ldr	r3, [r7, #4]
    1738:	60bb      	str	r3, [r7, #8]
    173a:	2300      	movs	r3, #0
    173c:	60fb      	str	r3, [r7, #12]
    173e:	687b      	ldr	r3, [r7, #4]
    1740:	689b      	ldr	r3, [r3, #8]
    1742:	2b00      	cmp	r3, #0
    1744:	d002      	beq.n	174c <list_tail+0x1e>
    1746:	68bb      	ldr	r3, [r7, #8]
    1748:	681b      	ldr	r3, [r3, #0]
    174a:	60fb      	str	r3, [r7, #12]
    174c:	68fb      	ldr	r3, [r7, #12]
    174e:	4618      	mov	r0, r3
    1750:	3714      	adds	r7, #20
    1752:	46bd      	mov	sp, r7
    1754:	bc80      	pop	{r7}
    1756:	4770      	bx	lr

00001758 <node_prev>:
    1758:	b480      	push	{r7}
    175a:	b085      	sub	sp, #20
    175c:	af00      	add	r7, sp, #0
    175e:	6078      	str	r0, [r7, #4]
    1760:	2300      	movs	r3, #0
    1762:	60fb      	str	r3, [r7, #12]
    1764:	687b      	ldr	r3, [r7, #4]
    1766:	2b00      	cmp	r3, #0
    1768:	d002      	beq.n	1770 <node_prev+0x18>
    176a:	687b      	ldr	r3, [r7, #4]
    176c:	681b      	ldr	r3, [r3, #0]
    176e:	60fb      	str	r3, [r7, #12]
    1770:	68fb      	ldr	r3, [r7, #12]
    1772:	4618      	mov	r0, r3
    1774:	3714      	adds	r7, #20
    1776:	46bd      	mov	sp, r7
    1778:	bc80      	pop	{r7}
    177a:	4770      	bx	lr

0000177c <node_next>:
    177c:	b480      	push	{r7}
    177e:	b085      	sub	sp, #20
    1780:	af00      	add	r7, sp, #0
    1782:	6078      	str	r0, [r7, #4]
    1784:	2300      	movs	r3, #0
    1786:	60fb      	str	r3, [r7, #12]
    1788:	687b      	ldr	r3, [r7, #4]
    178a:	2b00      	cmp	r3, #0
    178c:	d002      	beq.n	1794 <node_next+0x18>
    178e:	687b      	ldr	r3, [r7, #4]
    1790:	685b      	ldr	r3, [r3, #4]
    1792:	60fb      	str	r3, [r7, #12]
    1794:	68fb      	ldr	r3, [r7, #12]
    1796:	4618      	mov	r0, r3
    1798:	3714      	adds	r7, #20
    179a:	46bd      	mov	sp, r7
    179c:	bc80      	pop	{r7}
    179e:	4770      	bx	lr

000017a0 <list_remove_all>:
    17a0:	b480      	push	{r7}
    17a2:	b087      	sub	sp, #28
    17a4:	af00      	add	r7, sp, #0
    17a6:	6078      	str	r0, [r7, #4]
    17a8:	2300      	movs	r3, #0
    17aa:	60fb      	str	r3, [r7, #12]
    17ac:	2300      	movs	r3, #0
    17ae:	613b      	str	r3, [r7, #16]
    17b0:	2300      	movs	r3, #0
    17b2:	60bb      	str	r3, [r7, #8]
    17b4:	687b      	ldr	r3, [r7, #4]
    17b6:	2b00      	cmp	r3, #0
    17b8:	d023      	beq.n	1802 <list_remove_all+0x62>
    17ba:	687b      	ldr	r3, [r7, #4]
    17bc:	60fb      	str	r3, [r7, #12]
    17be:	68fb      	ldr	r3, [r7, #12]
    17c0:	685b      	ldr	r3, [r3, #4]
    17c2:	613b      	str	r3, [r7, #16]
    17c4:	687b      	ldr	r3, [r7, #4]
    17c6:	689b      	ldr	r3, [r3, #8]
    17c8:	617b      	str	r3, [r7, #20]
    17ca:	e00d      	b.n	17e8 <list_remove_all+0x48>
    17cc:	693b      	ldr	r3, [r7, #16]
    17ce:	60bb      	str	r3, [r7, #8]
    17d0:	68bb      	ldr	r3, [r7, #8]
    17d2:	685b      	ldr	r3, [r3, #4]
    17d4:	613b      	str	r3, [r7, #16]
    17d6:	68bb      	ldr	r3, [r7, #8]
    17d8:	68ba      	ldr	r2, [r7, #8]
    17da:	605a      	str	r2, [r3, #4]
    17dc:	68bb      	ldr	r3, [r7, #8]
    17de:	68ba      	ldr	r2, [r7, #8]
    17e0:	601a      	str	r2, [r3, #0]
    17e2:	697b      	ldr	r3, [r7, #20]
    17e4:	3b01      	subs	r3, #1
    17e6:	617b      	str	r3, [r7, #20]
    17e8:	697b      	ldr	r3, [r7, #20]
    17ea:	2b00      	cmp	r3, #0
    17ec:	d1ee      	bne.n	17cc <list_remove_all+0x2c>
    17ee:	68fb      	ldr	r3, [r7, #12]
    17f0:	68fa      	ldr	r2, [r7, #12]
    17f2:	601a      	str	r2, [r3, #0]
    17f4:	68fb      	ldr	r3, [r7, #12]
    17f6:	68fa      	ldr	r2, [r7, #12]
    17f8:	605a      	str	r2, [r3, #4]
    17fa:	687b      	ldr	r3, [r7, #4]
    17fc:	2200      	movs	r2, #0
    17fe:	609a      	str	r2, [r3, #8]
    1800:	e000      	b.n	1804 <list_remove_all+0x64>
    1802:	bf00      	nop
    1804:	bf00      	nop
    1806:	371c      	adds	r7, #28
    1808:	46bd      	mov	sp, r7
    180a:	bc80      	pop	{r7}
    180c:	4770      	bx	lr

0000180e <list_insert_head>:
    180e:	b480      	push	{r7}
    1810:	b085      	sub	sp, #20
    1812:	af00      	add	r7, sp, #0
    1814:	6078      	str	r0, [r7, #4]
    1816:	6039      	str	r1, [r7, #0]
    1818:	2300      	movs	r3, #0
    181a:	60fb      	str	r3, [r7, #12]
    181c:	2300      	movs	r3, #0
    181e:	60bb      	str	r3, [r7, #8]
    1820:	687b      	ldr	r3, [r7, #4]
    1822:	2b00      	cmp	r3, #0
    1824:	d016      	beq.n	1854 <list_insert_head+0x46>
    1826:	687b      	ldr	r3, [r7, #4]
    1828:	60fb      	str	r3, [r7, #12]
    182a:	68fb      	ldr	r3, [r7, #12]
    182c:	685b      	ldr	r3, [r3, #4]
    182e:	60bb      	str	r3, [r7, #8]
    1830:	68fb      	ldr	r3, [r7, #12]
    1832:	683a      	ldr	r2, [r7, #0]
    1834:	605a      	str	r2, [r3, #4]
    1836:	68bb      	ldr	r3, [r7, #8]
    1838:	683a      	ldr	r2, [r7, #0]
    183a:	601a      	str	r2, [r3, #0]
    183c:	683b      	ldr	r3, [r7, #0]
    183e:	68fa      	ldr	r2, [r7, #12]
    1840:	601a      	str	r2, [r3, #0]
    1842:	683b      	ldr	r3, [r7, #0]
    1844:	68ba      	ldr	r2, [r7, #8]
    1846:	605a      	str	r2, [r3, #4]
    1848:	687b      	ldr	r3, [r7, #4]
    184a:	689b      	ldr	r3, [r3, #8]
    184c:	1c5a      	adds	r2, r3, #1
    184e:	687b      	ldr	r3, [r7, #4]
    1850:	609a      	str	r2, [r3, #8]
    1852:	e000      	b.n	1856 <list_insert_head+0x48>
    1854:	bf00      	nop
    1856:	bf00      	nop
    1858:	3714      	adds	r7, #20
    185a:	46bd      	mov	sp, r7
    185c:	bc80      	pop	{r7}
    185e:	4770      	bx	lr

00001860 <list_append_last>:
    1860:	b480      	push	{r7}
    1862:	b085      	sub	sp, #20
    1864:	af00      	add	r7, sp, #0
    1866:	6078      	str	r0, [r7, #4]
    1868:	6039      	str	r1, [r7, #0]
    186a:	2300      	movs	r3, #0
    186c:	60fb      	str	r3, [r7, #12]
    186e:	2300      	movs	r3, #0
    1870:	60bb      	str	r3, [r7, #8]
    1872:	687b      	ldr	r3, [r7, #4]
    1874:	2b00      	cmp	r3, #0
    1876:	d016      	beq.n	18a6 <list_append_last+0x46>
    1878:	687b      	ldr	r3, [r7, #4]
    187a:	60fb      	str	r3, [r7, #12]
    187c:	68fb      	ldr	r3, [r7, #12]
    187e:	681b      	ldr	r3, [r3, #0]
    1880:	60bb      	str	r3, [r7, #8]
    1882:	683b      	ldr	r3, [r7, #0]
    1884:	68fa      	ldr	r2, [r7, #12]
    1886:	605a      	str	r2, [r3, #4]
    1888:	683b      	ldr	r3, [r7, #0]
    188a:	68ba      	ldr	r2, [r7, #8]
    188c:	601a      	str	r2, [r3, #0]
    188e:	68bb      	ldr	r3, [r7, #8]
    1890:	683a      	ldr	r2, [r7, #0]
    1892:	605a      	str	r2, [r3, #4]
    1894:	68fb      	ldr	r3, [r7, #12]
    1896:	683a      	ldr	r2, [r7, #0]
    1898:	601a      	str	r2, [r3, #0]
    189a:	687b      	ldr	r3, [r7, #4]
    189c:	689b      	ldr	r3, [r3, #8]
    189e:	1c5a      	adds	r2, r3, #1
    18a0:	687b      	ldr	r3, [r7, #4]
    18a2:	609a      	str	r2, [r3, #8]
    18a4:	e000      	b.n	18a8 <list_append_last+0x48>
    18a6:	bf00      	nop
    18a8:	bf00      	nop
    18aa:	3714      	adds	r7, #20
    18ac:	46bd      	mov	sp, r7
    18ae:	bc80      	pop	{r7}
    18b0:	4770      	bx	lr

000018b2 <list_remove_first>:
    18b2:	b480      	push	{r7}
    18b4:	b087      	sub	sp, #28
    18b6:	af00      	add	r7, sp, #0
    18b8:	6078      	str	r0, [r7, #4]
    18ba:	2300      	movs	r3, #0
    18bc:	613b      	str	r3, [r7, #16]
    18be:	2300      	movs	r3, #0
    18c0:	60fb      	str	r3, [r7, #12]
    18c2:	2300      	movs	r3, #0
    18c4:	617b      	str	r3, [r7, #20]
    18c6:	687b      	ldr	r3, [r7, #4]
    18c8:	2b00      	cmp	r3, #0
    18ca:	d020      	beq.n	190e <list_remove_first+0x5c>
    18cc:	687b      	ldr	r3, [r7, #4]
    18ce:	613b      	str	r3, [r7, #16]
    18d0:	693b      	ldr	r3, [r7, #16]
    18d2:	685b      	ldr	r3, [r3, #4]
    18d4:	617b      	str	r3, [r7, #20]
    18d6:	697a      	ldr	r2, [r7, #20]
    18d8:	693b      	ldr	r3, [r7, #16]
    18da:	429a      	cmp	r2, r3
    18dc:	d102      	bne.n	18e4 <list_remove_first+0x32>
    18de:	2300      	movs	r3, #0
    18e0:	617b      	str	r3, [r7, #20]
    18e2:	e015      	b.n	1910 <list_remove_first+0x5e>
    18e4:	697b      	ldr	r3, [r7, #20]
    18e6:	685b      	ldr	r3, [r3, #4]
    18e8:	60fb      	str	r3, [r7, #12]
    18ea:	693b      	ldr	r3, [r7, #16]
    18ec:	68fa      	ldr	r2, [r7, #12]
    18ee:	605a      	str	r2, [r3, #4]
    18f0:	68fb      	ldr	r3, [r7, #12]
    18f2:	693a      	ldr	r2, [r7, #16]
    18f4:	601a      	str	r2, [r3, #0]
    18f6:	697b      	ldr	r3, [r7, #20]
    18f8:	697a      	ldr	r2, [r7, #20]
    18fa:	605a      	str	r2, [r3, #4]
    18fc:	697b      	ldr	r3, [r7, #20]
    18fe:	697a      	ldr	r2, [r7, #20]
    1900:	601a      	str	r2, [r3, #0]
    1902:	687b      	ldr	r3, [r7, #4]
    1904:	689b      	ldr	r3, [r3, #8]
    1906:	1e5a      	subs	r2, r3, #1
    1908:	687b      	ldr	r3, [r7, #4]
    190a:	609a      	str	r2, [r3, #8]
    190c:	e000      	b.n	1910 <list_remove_first+0x5e>
    190e:	bf00      	nop
    1910:	697b      	ldr	r3, [r7, #20]
    1912:	4618      	mov	r0, r3
    1914:	371c      	adds	r7, #28
    1916:	46bd      	mov	sp, r7
    1918:	bc80      	pop	{r7}
    191a:	4770      	bx	lr

0000191c <list_remove>:
    191c:	b480      	push	{r7}
    191e:	b085      	sub	sp, #20
    1920:	af00      	add	r7, sp, #0
    1922:	6078      	str	r0, [r7, #4]
    1924:	6039      	str	r1, [r7, #0]
    1926:	2300      	movs	r3, #0
    1928:	60fb      	str	r3, [r7, #12]
    192a:	2300      	movs	r3, #0
    192c:	60bb      	str	r3, [r7, #8]
    192e:	687b      	ldr	r3, [r7, #4]
    1930:	2b00      	cmp	r3, #0
    1932:	d01a      	beq.n	196a <list_remove+0x4e>
    1934:	683b      	ldr	r3, [r7, #0]
    1936:	2b00      	cmp	r3, #0
    1938:	d017      	beq.n	196a <list_remove+0x4e>
    193a:	683b      	ldr	r3, [r7, #0]
    193c:	685b      	ldr	r3, [r3, #4]
    193e:	60fb      	str	r3, [r7, #12]
    1940:	683b      	ldr	r3, [r7, #0]
    1942:	681b      	ldr	r3, [r3, #0]
    1944:	60bb      	str	r3, [r7, #8]
    1946:	68fb      	ldr	r3, [r7, #12]
    1948:	2b00      	cmp	r3, #0
    194a:	d010      	beq.n	196e <list_remove+0x52>
    194c:	68bb      	ldr	r3, [r7, #8]
    194e:	2b00      	cmp	r3, #0
    1950:	d00d      	beq.n	196e <list_remove+0x52>
    1952:	68bb      	ldr	r3, [r7, #8]
    1954:	68fa      	ldr	r2, [r7, #12]
    1956:	605a      	str	r2, [r3, #4]
    1958:	68fb      	ldr	r3, [r7, #12]
    195a:	68ba      	ldr	r2, [r7, #8]
    195c:	601a      	str	r2, [r3, #0]
    195e:	687b      	ldr	r3, [r7, #4]
    1960:	689b      	ldr	r3, [r3, #8]
    1962:	1e5a      	subs	r2, r3, #1
    1964:	687b      	ldr	r3, [r7, #4]
    1966:	609a      	str	r2, [r3, #8]
    1968:	e002      	b.n	1970 <list_remove+0x54>
    196a:	bf00      	nop
    196c:	e000      	b.n	1970 <list_remove+0x54>
    196e:	bf00      	nop
    1970:	bf00      	nop
    1972:	3714      	adds	r7, #20
    1974:	46bd      	mov	sp, r7
    1976:	bc80      	pop	{r7}
    1978:	4770      	bx	lr
    197a:	bf00      	nop

0000197c <event_init>:
    197c:	b580      	push	{r7, lr}
    197e:	b082      	sub	sp, #8
    1980:	af00      	add	r7, sp, #0
    1982:	6078      	str	r0, [r7, #4]
    1984:	6039      	str	r1, [r7, #0]
    1986:	687b      	ldr	r3, [r7, #4]
    1988:	683a      	ldr	r2, [r7, #0]
    198a:	601a      	str	r2, [r3, #0]
    198c:	687b      	ldr	r3, [r7, #4]
    198e:	3304      	adds	r3, #4
    1990:	4618      	mov	r0, r3
    1992:	f7ff fe93 	bl	16bc <list_init>
    1996:	bf00      	nop
    1998:	3708      	adds	r7, #8
    199a:	46bd      	mov	sp, r7
    199c:	bd80      	pop	{r7, pc}

0000199e <event_wait>:
    199e:	b580      	push	{r7, lr}
    19a0:	b086      	sub	sp, #24
    19a2:	af00      	add	r7, sp, #0
    19a4:	60f8      	str	r0, [r7, #12]
    19a6:	60b9      	str	r1, [r7, #8]
    19a8:	607a      	str	r2, [r7, #4]
    19aa:	603b      	str	r3, [r7, #0]
    19ac:	f7ff fb8c 	bl	10c8 <task_enter_critical>
    19b0:	6178      	str	r0, [r7, #20]
    19b2:	68bb      	ldr	r3, [r7, #8]
    19b4:	695a      	ldr	r2, [r3, #20]
    19b6:	683b      	ldr	r3, [r7, #0]
    19b8:	431a      	orrs	r2, r3
    19ba:	68bb      	ldr	r3, [r7, #8]
    19bc:	615a      	str	r2, [r3, #20]
    19be:	68bb      	ldr	r3, [r7, #8]
    19c0:	68fa      	ldr	r2, [r7, #12]
    19c2:	635a      	str	r2, [r3, #52]	; 0x34
    19c4:	68bb      	ldr	r3, [r7, #8]
    19c6:	2200      	movs	r2, #0
    19c8:	63da      	str	r2, [r3, #60]	; 0x3c
    19ca:	68b8      	ldr	r0, [r7, #8]
    19cc:	f7ff fc0c 	bl	11e8 <task_unready>
    19d0:	68fb      	ldr	r3, [r7, #12]
    19d2:	1d1a      	adds	r2, r3, #4
    19d4:	68bb      	ldr	r3, [r7, #8]
    19d6:	3318      	adds	r3, #24
    19d8:	4619      	mov	r1, r3
    19da:	4610      	mov	r0, r2
    19dc:	f7ff ff40 	bl	1860 <list_append_last>
    19e0:	6a3b      	ldr	r3, [r7, #32]
    19e2:	2b00      	cmp	r3, #0
    19e4:	d003      	beq.n	19ee <event_wait+0x50>
    19e6:	6a39      	ldr	r1, [r7, #32]
    19e8:	68b8      	ldr	r0, [r7, #8]
    19ea:	f7ff fc2b 	bl	1244 <task_delay_wait>
    19ee:	6978      	ldr	r0, [r7, #20]
    19f0:	f7ff fb77 	bl	10e2 <task_exit_critical>
    19f4:	bf00      	nop
    19f6:	3718      	adds	r7, #24
    19f8:	46bd      	mov	sp, r7
    19fa:	bd80      	pop	{r7, pc}

000019fc <event_wakeup>:
    19fc:	b580      	push	{r7, lr}
    19fe:	b088      	sub	sp, #32
    1a00:	af00      	add	r7, sp, #0
    1a02:	60f8      	str	r0, [r7, #12]
    1a04:	60b9      	str	r1, [r7, #8]
    1a06:	607a      	str	r2, [r7, #4]
    1a08:	2300      	movs	r3, #0
    1a0a:	61bb      	str	r3, [r7, #24]
    1a0c:	2300      	movs	r3, #0
    1a0e:	61fb      	str	r3, [r7, #28]
    1a10:	f7ff fb5a 	bl	10c8 <task_enter_critical>
    1a14:	6178      	str	r0, [r7, #20]
    1a16:	68fb      	ldr	r3, [r7, #12]
    1a18:	3304      	adds	r3, #4
    1a1a:	4618      	mov	r0, r3
    1a1c:	f7ff ff49 	bl	18b2 <list_remove_first>
    1a20:	61b8      	str	r0, [r7, #24]
    1a22:	69bb      	ldr	r3, [r7, #24]
    1a24:	2b00      	cmp	r3, #0
    1a26:	d018      	beq.n	1a5a <event_wakeup+0x5e>
    1a28:	69bb      	ldr	r3, [r7, #24]
    1a2a:	3b18      	subs	r3, #24
    1a2c:	61fb      	str	r3, [r7, #28]
    1a2e:	69fb      	ldr	r3, [r7, #28]
    1a30:	2200      	movs	r2, #0
    1a32:	635a      	str	r2, [r3, #52]	; 0x34
    1a34:	69fb      	ldr	r3, [r7, #28]
    1a36:	68ba      	ldr	r2, [r7, #8]
    1a38:	639a      	str	r2, [r3, #56]	; 0x38
    1a3a:	69fb      	ldr	r3, [r7, #28]
    1a3c:	695b      	ldr	r3, [r3, #20]
    1a3e:	f423 027f 	bic.w	r2, r3, #16711680	; 0xff0000
    1a42:	69fb      	ldr	r3, [r7, #28]
    1a44:	615a      	str	r2, [r3, #20]
    1a46:	69fb      	ldr	r3, [r7, #28]
    1a48:	685b      	ldr	r3, [r3, #4]
    1a4a:	2b00      	cmp	r3, #0
    1a4c:	d002      	beq.n	1a54 <event_wakeup+0x58>
    1a4e:	69f8      	ldr	r0, [r7, #28]
    1a50:	f7ff fc12 	bl	1278 <task_delay_wakeup>
    1a54:	69f8      	ldr	r0, [r7, #28]
    1a56:	f7ff fba7 	bl	11a8 <task_ready>
    1a5a:	6978      	ldr	r0, [r7, #20]
    1a5c:	f7ff fb41 	bl	10e2 <task_exit_critical>
    1a60:	69fb      	ldr	r3, [r7, #28]
    1a62:	4618      	mov	r0, r3
    1a64:	3720      	adds	r7, #32
    1a66:	46bd      	mov	sp, r7
    1a68:	bd80      	pop	{r7, pc}

00001a6a <event_wakeup_task>:
    1a6a:	b580      	push	{r7, lr}
    1a6c:	b086      	sub	sp, #24
    1a6e:	af00      	add	r7, sp, #0
    1a70:	60f8      	str	r0, [r7, #12]
    1a72:	60b9      	str	r1, [r7, #8]
    1a74:	607a      	str	r2, [r7, #4]
    1a76:	603b      	str	r3, [r7, #0]
    1a78:	f7ff fb26 	bl	10c8 <task_enter_critical>
    1a7c:	6178      	str	r0, [r7, #20]
    1a7e:	68fb      	ldr	r3, [r7, #12]
    1a80:	1d1a      	adds	r2, r3, #4
    1a82:	68bb      	ldr	r3, [r7, #8]
    1a84:	3318      	adds	r3, #24
    1a86:	4619      	mov	r1, r3
    1a88:	4610      	mov	r0, r2
    1a8a:	f7ff ff47 	bl	191c <list_remove>
    1a8e:	68bb      	ldr	r3, [r7, #8]
    1a90:	2200      	movs	r2, #0
    1a92:	635a      	str	r2, [r3, #52]	; 0x34
    1a94:	68bb      	ldr	r3, [r7, #8]
    1a96:	687a      	ldr	r2, [r7, #4]
    1a98:	639a      	str	r2, [r3, #56]	; 0x38
    1a9a:	68bb      	ldr	r3, [r7, #8]
    1a9c:	695b      	ldr	r3, [r3, #20]
    1a9e:	f423 027f 	bic.w	r2, r3, #16711680	; 0xff0000
    1aa2:	68bb      	ldr	r3, [r7, #8]
    1aa4:	615a      	str	r2, [r3, #20]
    1aa6:	68bb      	ldr	r3, [r7, #8]
    1aa8:	685b      	ldr	r3, [r3, #4]
    1aaa:	2b00      	cmp	r3, #0
    1aac:	d002      	beq.n	1ab4 <event_wakeup_task+0x4a>
    1aae:	68b8      	ldr	r0, [r7, #8]
    1ab0:	f7ff fbe2 	bl	1278 <task_delay_wakeup>
    1ab4:	68b8      	ldr	r0, [r7, #8]
    1ab6:	f7ff fb77 	bl	11a8 <task_ready>
    1aba:	6978      	ldr	r0, [r7, #20]
    1abc:	f7ff fb11 	bl	10e2 <task_exit_critical>
    1ac0:	68bb      	ldr	r3, [r7, #8]
    1ac2:	4618      	mov	r0, r3
    1ac4:	3718      	adds	r7, #24
    1ac6:	46bd      	mov	sp, r7
    1ac8:	bd80      	pop	{r7, pc}

00001aca <event_remove_task>:
    1aca:	b580      	push	{r7, lr}
    1acc:	b086      	sub	sp, #24
    1ace:	af00      	add	r7, sp, #0
    1ad0:	60f8      	str	r0, [r7, #12]
    1ad2:	60b9      	str	r1, [r7, #8]
    1ad4:	607a      	str	r2, [r7, #4]
    1ad6:	f7ff faf7 	bl	10c8 <task_enter_critical>
    1ada:	6178      	str	r0, [r7, #20]
    1adc:	68fb      	ldr	r3, [r7, #12]
    1ade:	6b5b      	ldr	r3, [r3, #52]	; 0x34
    1ae0:	1d1a      	adds	r2, r3, #4
    1ae2:	68fb      	ldr	r3, [r7, #12]
    1ae4:	3318      	adds	r3, #24
    1ae6:	4619      	mov	r1, r3
    1ae8:	4610      	mov	r0, r2
    1aea:	f7ff ff17 	bl	191c <list_remove>
    1aee:	68fb      	ldr	r3, [r7, #12]
    1af0:	2200      	movs	r2, #0
    1af2:	635a      	str	r2, [r3, #52]	; 0x34
    1af4:	68fb      	ldr	r3, [r7, #12]
    1af6:	68ba      	ldr	r2, [r7, #8]
    1af8:	639a      	str	r2, [r3, #56]	; 0x38
    1afa:	68fb      	ldr	r3, [r7, #12]
    1afc:	687a      	ldr	r2, [r7, #4]
    1afe:	63da      	str	r2, [r3, #60]	; 0x3c
    1b00:	68fb      	ldr	r3, [r7, #12]
    1b02:	695b      	ldr	r3, [r3, #20]
    1b04:	f423 027f 	bic.w	r2, r3, #16711680	; 0xff0000
    1b08:	68fb      	ldr	r3, [r7, #12]
    1b0a:	615a      	str	r2, [r3, #20]
    1b0c:	6978      	ldr	r0, [r7, #20]
    1b0e:	f7ff fae8 	bl	10e2 <task_exit_critical>
    1b12:	bf00      	nop
    1b14:	3718      	adds	r7, #24
    1b16:	46bd      	mov	sp, r7
    1b18:	bd80      	pop	{r7, pc}

00001b1a <event_remove_all>:
    1b1a:	b580      	push	{r7, lr}
    1b1c:	b088      	sub	sp, #32
    1b1e:	af00      	add	r7, sp, #0
    1b20:	60f8      	str	r0, [r7, #12]
    1b22:	60b9      	str	r1, [r7, #8]
    1b24:	607a      	str	r2, [r7, #4]
    1b26:	2300      	movs	r3, #0
    1b28:	61fb      	str	r3, [r7, #28]
    1b2a:	2300      	movs	r3, #0
    1b2c:	61bb      	str	r3, [r7, #24]
    1b2e:	f7ff facb 	bl	10c8 <task_enter_critical>
    1b32:	6178      	str	r0, [r7, #20]
    1b34:	491d      	ldr	r1, [pc, #116]	; (1bac <event_remove_all+0x92>)
    1b36:	481e      	ldr	r0, [pc, #120]	; (1bb0 <event_remove_all+0x96>)
    1b38:	f7fe fe34 	bl	7a4 <printk>
    1b3c:	68fb      	ldr	r3, [r7, #12]
    1b3e:	3304      	adds	r3, #4
    1b40:	4618      	mov	r0, r3
    1b42:	f7ff fdcd 	bl	16e0 <list_count>
    1b46:	61b8      	str	r0, [r7, #24]
    1b48:	e01e      	b.n	1b88 <event_remove_all+0x6e>
    1b4a:	481a      	ldr	r0, [pc, #104]	; (1bb4 <event_remove_all+0x9a>)
    1b4c:	f7fe fe2a 	bl	7a4 <printk>
    1b50:	69fb      	ldr	r3, [r7, #28]
    1b52:	3b18      	subs	r3, #24
    1b54:	613b      	str	r3, [r7, #16]
    1b56:	693b      	ldr	r3, [r7, #16]
    1b58:	2200      	movs	r2, #0
    1b5a:	635a      	str	r2, [r3, #52]	; 0x34
    1b5c:	693b      	ldr	r3, [r7, #16]
    1b5e:	68ba      	ldr	r2, [r7, #8]
    1b60:	639a      	str	r2, [r3, #56]	; 0x38
    1b62:	693b      	ldr	r3, [r7, #16]
    1b64:	687a      	ldr	r2, [r7, #4]
    1b66:	63da      	str	r2, [r3, #60]	; 0x3c
    1b68:	693b      	ldr	r3, [r7, #16]
    1b6a:	695b      	ldr	r3, [r3, #20]
    1b6c:	f423 027f 	bic.w	r2, r3, #16711680	; 0xff0000
    1b70:	693b      	ldr	r3, [r7, #16]
    1b72:	615a      	str	r2, [r3, #20]
    1b74:	693b      	ldr	r3, [r7, #16]
    1b76:	685b      	ldr	r3, [r3, #4]
    1b78:	2b00      	cmp	r3, #0
    1b7a:	d002      	beq.n	1b82 <event_remove_all+0x68>
    1b7c:	6938      	ldr	r0, [r7, #16]
    1b7e:	f7ff fb7b 	bl	1278 <task_delay_wakeup>
    1b82:	6938      	ldr	r0, [r7, #16]
    1b84:	f7ff fb10 	bl	11a8 <task_ready>
    1b88:	68fb      	ldr	r3, [r7, #12]
    1b8a:	3304      	adds	r3, #4
    1b8c:	4618      	mov	r0, r3
    1b8e:	f7ff fe90 	bl	18b2 <list_remove_first>
    1b92:	61f8      	str	r0, [r7, #28]
    1b94:	69fb      	ldr	r3, [r7, #28]
    1b96:	2b00      	cmp	r3, #0
    1b98:	d1d7      	bne.n	1b4a <event_remove_all+0x30>
    1b9a:	6978      	ldr	r0, [r7, #20]
    1b9c:	f7ff faa1 	bl	10e2 <task_exit_critical>
    1ba0:	69bb      	ldr	r3, [r7, #24]
    1ba2:	4618      	mov	r0, r3
    1ba4:	3720      	adds	r7, #32
    1ba6:	46bd      	mov	sp, r7
    1ba8:	bd80      	pop	{r7, pc}
    1baa:	bf00      	nop
    1bac:	00002ea4 	andeq	r2, r0, r4, lsr #29
    1bb0:	00002e90 	muleq	r0, r0, lr
    1bb4:	00002e98 	muleq	r0, r8, lr

00001bb8 <event_wait_count>:
    1bb8:	b580      	push	{r7, lr}
    1bba:	b084      	sub	sp, #16
    1bbc:	af00      	add	r7, sp, #0
    1bbe:	6078      	str	r0, [r7, #4]
    1bc0:	2300      	movs	r3, #0
    1bc2:	60fb      	str	r3, [r7, #12]
    1bc4:	f7ff fa80 	bl	10c8 <task_enter_critical>
    1bc8:	60b8      	str	r0, [r7, #8]
    1bca:	687b      	ldr	r3, [r7, #4]
    1bcc:	3304      	adds	r3, #4
    1bce:	4618      	mov	r0, r3
    1bd0:	f7ff fd86 	bl	16e0 <list_count>
    1bd4:	60f8      	str	r0, [r7, #12]
    1bd6:	68b8      	ldr	r0, [r7, #8]
    1bd8:	f7ff fa83 	bl	10e2 <task_exit_critical>
    1bdc:	68fb      	ldr	r3, [r7, #12]
    1bde:	4618      	mov	r0, r3
    1be0:	3710      	adds	r7, #16
    1be2:	46bd      	mov	sp, r7
    1be4:	bd80      	pop	{r7, pc}
    1be6:	bf00      	nop

00001be8 <sem_init>:
    1be8:	b580      	push	{r7, lr}
    1bea:	b084      	sub	sp, #16
    1bec:	af00      	add	r7, sp, #0
    1bee:	60f8      	str	r0, [r7, #12]
    1bf0:	60b9      	str	r1, [r7, #8]
    1bf2:	607a      	str	r2, [r7, #4]
    1bf4:	68fb      	ldr	r3, [r7, #12]
    1bf6:	f44f 3180 	mov.w	r1, #65536	; 0x10000
    1bfa:	4618      	mov	r0, r3
    1bfc:	f7ff febe 	bl	197c <event_init>
    1c00:	687b      	ldr	r3, [r7, #4]
    1c02:	2b00      	cmp	r3, #0
    1c04:	d103      	bne.n	1c0e <sem_init+0x26>
    1c06:	68fb      	ldr	r3, [r7, #12]
    1c08:	68ba      	ldr	r2, [r7, #8]
    1c0a:	611a      	str	r2, [r3, #16]
    1c0c:	e006      	b.n	1c1c <sem_init+0x34>
    1c0e:	68ba      	ldr	r2, [r7, #8]
    1c10:	687b      	ldr	r3, [r7, #4]
    1c12:	429a      	cmp	r2, r3
    1c14:	bf28      	it	cs
    1c16:	461a      	movcs	r2, r3
    1c18:	68fb      	ldr	r3, [r7, #12]
    1c1a:	611a      	str	r2, [r3, #16]
    1c1c:	bf00      	nop
    1c1e:	3710      	adds	r7, #16
    1c20:	46bd      	mov	sp, r7
    1c22:	bd80      	pop	{r7, pc}

00001c24 <sem_acquire>:
    1c24:	b580      	push	{r7, lr}
    1c26:	b086      	sub	sp, #24
    1c28:	af02      	add	r7, sp, #8
    1c2a:	6078      	str	r0, [r7, #4]
    1c2c:	6039      	str	r1, [r7, #0]
    1c2e:	f7ff fa4b 	bl	10c8 <task_enter_critical>
    1c32:	60f8      	str	r0, [r7, #12]
    1c34:	687b      	ldr	r3, [r7, #4]
    1c36:	691b      	ldr	r3, [r3, #16]
    1c38:	2b00      	cmp	r3, #0
    1c3a:	d009      	beq.n	1c50 <sem_acquire+0x2c>
    1c3c:	687b      	ldr	r3, [r7, #4]
    1c3e:	691b      	ldr	r3, [r3, #16]
    1c40:	1e5a      	subs	r2, r3, #1
    1c42:	687b      	ldr	r3, [r7, #4]
    1c44:	611a      	str	r2, [r3, #16]
    1c46:	68f8      	ldr	r0, [r7, #12]
    1c48:	f7ff fa4b 	bl	10e2 <task_exit_critical>
    1c4c:	2300      	movs	r3, #0
    1c4e:	e011      	b.n	1c74 <sem_acquire+0x50>
    1c50:	6878      	ldr	r0, [r7, #4]
    1c52:	4b0a      	ldr	r3, [pc, #40]	; (1c7c <sem_acquire+0x58>)
    1c54:	6819      	ldr	r1, [r3, #0]
    1c56:	683b      	ldr	r3, [r7, #0]
    1c58:	9300      	str	r3, [sp, #0]
    1c5a:	f44f 3380 	mov.w	r3, #65536	; 0x10000
    1c5e:	2200      	movs	r2, #0
    1c60:	f7ff fe9d 	bl	199e <event_wait>
    1c64:	68f8      	ldr	r0, [r7, #12]
    1c66:	f7ff fa3c 	bl	10e2 <task_exit_critical>
    1c6a:	f7ff f8f7 	bl	e5c <task_sched>
    1c6e:	4b03      	ldr	r3, [pc, #12]	; (1c7c <sem_acquire+0x58>)
    1c70:	681b      	ldr	r3, [r3, #0]
    1c72:	6bdb      	ldr	r3, [r3, #60]	; 0x3c
    1c74:	4618      	mov	r0, r3
    1c76:	3710      	adds	r7, #16
    1c78:	46bd      	mov	sp, r7
    1c7a:	bd80      	pop	{r7, pc}
    1c7c:	20000000 	andcs	r0, r0, r0

00001c80 <sem_acquire_no_wait>:
    1c80:	b580      	push	{r7, lr}
    1c82:	b084      	sub	sp, #16
    1c84:	af00      	add	r7, sp, #0
    1c86:	6078      	str	r0, [r7, #4]
    1c88:	f7ff fa1e 	bl	10c8 <task_enter_critical>
    1c8c:	60f8      	str	r0, [r7, #12]
    1c8e:	687b      	ldr	r3, [r7, #4]
    1c90:	691b      	ldr	r3, [r3, #16]
    1c92:	2b00      	cmp	r3, #0
    1c94:	d009      	beq.n	1caa <sem_acquire_no_wait+0x2a>
    1c96:	687b      	ldr	r3, [r7, #4]
    1c98:	691b      	ldr	r3, [r3, #16]
    1c9a:	1e5a      	subs	r2, r3, #1
    1c9c:	687b      	ldr	r3, [r7, #4]
    1c9e:	611a      	str	r2, [r3, #16]
    1ca0:	68f8      	ldr	r0, [r7, #12]
    1ca2:	f7ff fa1e 	bl	10e2 <task_exit_critical>
    1ca6:	2300      	movs	r3, #0
    1ca8:	e005      	b.n	1cb6 <sem_acquire_no_wait+0x36>
    1caa:	68f8      	ldr	r0, [r7, #12]
    1cac:	f7ff fa19 	bl	10e2 <task_exit_critical>
    1cb0:	4b03      	ldr	r3, [pc, #12]	; (1cc0 <sem_acquire_no_wait+0x40>)
    1cb2:	681b      	ldr	r3, [r3, #0]
    1cb4:	6bdb      	ldr	r3, [r3, #60]	; 0x3c
    1cb6:	4618      	mov	r0, r3
    1cb8:	3710      	adds	r7, #16
    1cba:	46bd      	mov	sp, r7
    1cbc:	bd80      	pop	{r7, pc}
    1cbe:	bf00      	nop
    1cc0:	20000000 	andcs	r0, r0, r0

00001cc4 <sem_release>:
    1cc4:	b580      	push	{r7, lr}
    1cc6:	b084      	sub	sp, #16
    1cc8:	af00      	add	r7, sp, #0
    1cca:	6078      	str	r0, [r7, #4]
    1ccc:	f7ff f9fc 	bl	10c8 <task_enter_critical>
    1cd0:	60f8      	str	r0, [r7, #12]
    1cd2:	687b      	ldr	r3, [r7, #4]
    1cd4:	4618      	mov	r0, r3
    1cd6:	f7ff ff6f 	bl	1bb8 <event_wait_count>
    1cda:	4603      	mov	r3, r0
    1cdc:	2b00      	cmp	r3, #0
    1cde:	d010      	beq.n	1d02 <sem_release+0x3e>
    1ce0:	687b      	ldr	r3, [r7, #4]
    1ce2:	2200      	movs	r2, #0
    1ce4:	2100      	movs	r1, #0
    1ce6:	4618      	mov	r0, r3
    1ce8:	f7ff fe88 	bl	19fc <event_wakeup>
    1cec:	60b8      	str	r0, [r7, #8]
    1cee:	68bb      	ldr	r3, [r7, #8]
    1cf0:	689a      	ldr	r2, [r3, #8]
    1cf2:	4b11      	ldr	r3, [pc, #68]	; (1d38 <sem_release+0x74>)
    1cf4:	681b      	ldr	r3, [r3, #0]
    1cf6:	689b      	ldr	r3, [r3, #8]
    1cf8:	429a      	cmp	r2, r3
    1cfa:	d215      	bcs.n	1d28 <sem_release+0x64>
    1cfc:	f7ff f8ae 	bl	e5c <task_sched>
    1d00:	e012      	b.n	1d28 <sem_release+0x64>
    1d02:	687b      	ldr	r3, [r7, #4]
    1d04:	691b      	ldr	r3, [r3, #16]
    1d06:	1c5a      	adds	r2, r3, #1
    1d08:	687b      	ldr	r3, [r7, #4]
    1d0a:	611a      	str	r2, [r3, #16]
    1d0c:	687b      	ldr	r3, [r7, #4]
    1d0e:	695b      	ldr	r3, [r3, #20]
    1d10:	2b00      	cmp	r3, #0
    1d12:	d009      	beq.n	1d28 <sem_release+0x64>
    1d14:	687b      	ldr	r3, [r7, #4]
    1d16:	691a      	ldr	r2, [r3, #16]
    1d18:	687b      	ldr	r3, [r7, #4]
    1d1a:	695b      	ldr	r3, [r3, #20]
    1d1c:	429a      	cmp	r2, r3
    1d1e:	d903      	bls.n	1d28 <sem_release+0x64>
    1d20:	687b      	ldr	r3, [r7, #4]
    1d22:	695a      	ldr	r2, [r3, #20]
    1d24:	687b      	ldr	r3, [r7, #4]
    1d26:	611a      	str	r2, [r3, #16]
    1d28:	68f8      	ldr	r0, [r7, #12]
    1d2a:	f7ff f9da 	bl	10e2 <task_exit_critical>
    1d2e:	bf00      	nop
    1d30:	3710      	adds	r7, #16
    1d32:	46bd      	mov	sp, r7
    1d34:	bd80      	pop	{r7, pc}
    1d36:	bf00      	nop
    1d38:	20000000 	andcs	r0, r0, r0

00001d3c <sem_get_info>:
    1d3c:	b580      	push	{r7, lr}
    1d3e:	b084      	sub	sp, #16
    1d40:	af00      	add	r7, sp, #0
    1d42:	6078      	str	r0, [r7, #4]
    1d44:	6039      	str	r1, [r7, #0]
    1d46:	f7ff f9bf 	bl	10c8 <task_enter_critical>
    1d4a:	60f8      	str	r0, [r7, #12]
    1d4c:	687b      	ldr	r3, [r7, #4]
    1d4e:	691a      	ldr	r2, [r3, #16]
    1d50:	683b      	ldr	r3, [r7, #0]
    1d52:	601a      	str	r2, [r3, #0]
    1d54:	687b      	ldr	r3, [r7, #4]
    1d56:	695a      	ldr	r2, [r3, #20]
    1d58:	683b      	ldr	r3, [r7, #0]
    1d5a:	605a      	str	r2, [r3, #4]
    1d5c:	687b      	ldr	r3, [r7, #4]
    1d5e:	4618      	mov	r0, r3
    1d60:	f7ff ff2a 	bl	1bb8 <event_wait_count>
    1d64:	4602      	mov	r2, r0
    1d66:	683b      	ldr	r3, [r7, #0]
    1d68:	609a      	str	r2, [r3, #8]
    1d6a:	68f8      	ldr	r0, [r7, #12]
    1d6c:	f7ff f9b9 	bl	10e2 <task_exit_critical>
    1d70:	bf00      	nop
    1d72:	3710      	adds	r7, #16
    1d74:	46bd      	mov	sp, r7
    1d76:	bd80      	pop	{r7, pc}

00001d78 <sem_destory>:
    1d78:	b580      	push	{r7, lr}
    1d7a:	b084      	sub	sp, #16
    1d7c:	af00      	add	r7, sp, #0
    1d7e:	6078      	str	r0, [r7, #4]
    1d80:	f7ff f9a2 	bl	10c8 <task_enter_critical>
    1d84:	60f8      	str	r0, [r7, #12]
    1d86:	687b      	ldr	r3, [r7, #4]
    1d88:	2202      	movs	r2, #2
    1d8a:	2100      	movs	r1, #0
    1d8c:	4618      	mov	r0, r3
    1d8e:	f7ff fec4 	bl	1b1a <event_remove_all>
    1d92:	60b8      	str	r0, [r7, #8]
    1d94:	687b      	ldr	r3, [r7, #4]
    1d96:	2200      	movs	r2, #0
    1d98:	611a      	str	r2, [r3, #16]
    1d9a:	68f8      	ldr	r0, [r7, #12]
    1d9c:	f7ff f9a1 	bl	10e2 <task_exit_critical>
    1da0:	68bb      	ldr	r3, [r7, #8]
    1da2:	2b00      	cmp	r3, #0
    1da4:	d001      	beq.n	1daa <sem_destory+0x32>
    1da6:	f7ff f859 	bl	e5c <task_sched>
    1daa:	68bb      	ldr	r3, [r7, #8]
    1dac:	4618      	mov	r0, r3
    1dae:	3710      	adds	r7, #16
    1db0:	46bd      	mov	sp, r7
    1db2:	bd80      	pop	{r7, pc}

00001db4 <mbox_init>:
    1db4:	b580      	push	{r7, lr}
    1db6:	b084      	sub	sp, #16
    1db8:	af00      	add	r7, sp, #0
    1dba:	60f8      	str	r0, [r7, #12]
    1dbc:	60b9      	str	r1, [r7, #8]
    1dbe:	607a      	str	r2, [r7, #4]
    1dc0:	68fb      	ldr	r3, [r7, #12]
    1dc2:	f44f 3100 	mov.w	r1, #131072	; 0x20000
    1dc6:	4618      	mov	r0, r3
    1dc8:	f7ff fdd8 	bl	197c <event_init>
    1dcc:	68fb      	ldr	r3, [r7, #12]
    1dce:	68ba      	ldr	r2, [r7, #8]
    1dd0:	621a      	str	r2, [r3, #32]
    1dd2:	68fb      	ldr	r3, [r7, #12]
    1dd4:	687a      	ldr	r2, [r7, #4]
    1dd6:	61da      	str	r2, [r3, #28]
    1dd8:	68fb      	ldr	r3, [r7, #12]
    1dda:	2200      	movs	r2, #0
    1ddc:	615a      	str	r2, [r3, #20]
    1dde:	68fb      	ldr	r3, [r7, #12]
    1de0:	2200      	movs	r2, #0
    1de2:	619a      	str	r2, [r3, #24]
    1de4:	68fb      	ldr	r3, [r7, #12]
    1de6:	2200      	movs	r2, #0
    1de8:	611a      	str	r2, [r3, #16]
    1dea:	bf00      	nop
    1dec:	3710      	adds	r7, #16
    1dee:	46bd      	mov	sp, r7
    1df0:	bd80      	pop	{r7, pc}

00001df2 <mbox_get>:
    1df2:	b580      	push	{r7, lr}
    1df4:	b088      	sub	sp, #32
    1df6:	af02      	add	r7, sp, #8
    1df8:	60f8      	str	r0, [r7, #12]
    1dfa:	60b9      	str	r1, [r7, #8]
    1dfc:	607a      	str	r2, [r7, #4]
    1dfe:	f7ff f963 	bl	10c8 <task_enter_critical>
    1e02:	6178      	str	r0, [r7, #20]
    1e04:	68fb      	ldr	r3, [r7, #12]
    1e06:	691b      	ldr	r3, [r3, #16]
    1e08:	2b00      	cmp	r3, #0
    1e0a:	d01e      	beq.n	1e4a <mbox_get+0x58>
    1e0c:	68fb      	ldr	r3, [r7, #12]
    1e0e:	691b      	ldr	r3, [r3, #16]
    1e10:	1e5a      	subs	r2, r3, #1
    1e12:	68fb      	ldr	r3, [r7, #12]
    1e14:	611a      	str	r2, [r3, #16]
    1e16:	68fb      	ldr	r3, [r7, #12]
    1e18:	6a1a      	ldr	r2, [r3, #32]
    1e1a:	68fb      	ldr	r3, [r7, #12]
    1e1c:	695b      	ldr	r3, [r3, #20]
    1e1e:	1c58      	adds	r0, r3, #1
    1e20:	68f9      	ldr	r1, [r7, #12]
    1e22:	6148      	str	r0, [r1, #20]
    1e24:	009b      	lsls	r3, r3, #2
    1e26:	4413      	add	r3, r2
    1e28:	681a      	ldr	r2, [r3, #0]
    1e2a:	68bb      	ldr	r3, [r7, #8]
    1e2c:	601a      	str	r2, [r3, #0]
    1e2e:	68fb      	ldr	r3, [r7, #12]
    1e30:	695a      	ldr	r2, [r3, #20]
    1e32:	68fb      	ldr	r3, [r7, #12]
    1e34:	69db      	ldr	r3, [r3, #28]
    1e36:	429a      	cmp	r2, r3
    1e38:	d302      	bcc.n	1e40 <mbox_get+0x4e>
    1e3a:	68fb      	ldr	r3, [r7, #12]
    1e3c:	2200      	movs	r2, #0
    1e3e:	615a      	str	r2, [r3, #20]
    1e40:	6978      	ldr	r0, [r7, #20]
    1e42:	f7ff f94e 	bl	10e2 <task_exit_critical>
    1e46:	2300      	movs	r3, #0
    1e48:	e016      	b.n	1e78 <mbox_get+0x86>
    1e4a:	68f8      	ldr	r0, [r7, #12]
    1e4c:	4b0c      	ldr	r3, [pc, #48]	; (1e80 <mbox_get+0x8e>)
    1e4e:	6819      	ldr	r1, [r3, #0]
    1e50:	687b      	ldr	r3, [r7, #4]
    1e52:	9300      	str	r3, [sp, #0]
    1e54:	f44f 3300 	mov.w	r3, #131072	; 0x20000
    1e58:	2200      	movs	r2, #0
    1e5a:	f7ff fda0 	bl	199e <event_wait>
    1e5e:	6978      	ldr	r0, [r7, #20]
    1e60:	f7ff f93f 	bl	10e2 <task_exit_critical>
    1e64:	f7fe fffa 	bl	e5c <task_sched>
    1e68:	4b05      	ldr	r3, [pc, #20]	; (1e80 <mbox_get+0x8e>)
    1e6a:	681b      	ldr	r3, [r3, #0]
    1e6c:	6b9a      	ldr	r2, [r3, #56]	; 0x38
    1e6e:	68bb      	ldr	r3, [r7, #8]
    1e70:	601a      	str	r2, [r3, #0]
    1e72:	4b03      	ldr	r3, [pc, #12]	; (1e80 <mbox_get+0x8e>)
    1e74:	681b      	ldr	r3, [r3, #0]
    1e76:	6bdb      	ldr	r3, [r3, #60]	; 0x3c
    1e78:	4618      	mov	r0, r3
    1e7a:	3718      	adds	r7, #24
    1e7c:	46bd      	mov	sp, r7
    1e7e:	bd80      	pop	{r7, pc}
    1e80:	20000000 	andcs	r0, r0, r0

00001e84 <mbox_get_no_wait>:
    1e84:	b580      	push	{r7, lr}
    1e86:	b084      	sub	sp, #16
    1e88:	af00      	add	r7, sp, #0
    1e8a:	6078      	str	r0, [r7, #4]
    1e8c:	6039      	str	r1, [r7, #0]
    1e8e:	f7ff f91b 	bl	10c8 <task_enter_critical>
    1e92:	60f8      	str	r0, [r7, #12]
    1e94:	687b      	ldr	r3, [r7, #4]
    1e96:	691b      	ldr	r3, [r3, #16]
    1e98:	2b00      	cmp	r3, #0
    1e9a:	d01e      	beq.n	1eda <mbox_get_no_wait+0x56>
    1e9c:	687b      	ldr	r3, [r7, #4]
    1e9e:	691b      	ldr	r3, [r3, #16]
    1ea0:	1e5a      	subs	r2, r3, #1
    1ea2:	687b      	ldr	r3, [r7, #4]
    1ea4:	611a      	str	r2, [r3, #16]
    1ea6:	687b      	ldr	r3, [r7, #4]
    1ea8:	6a1a      	ldr	r2, [r3, #32]
    1eaa:	687b      	ldr	r3, [r7, #4]
    1eac:	695b      	ldr	r3, [r3, #20]
    1eae:	1c58      	adds	r0, r3, #1
    1eb0:	6879      	ldr	r1, [r7, #4]
    1eb2:	6148      	str	r0, [r1, #20]
    1eb4:	009b      	lsls	r3, r3, #2
    1eb6:	4413      	add	r3, r2
    1eb8:	681a      	ldr	r2, [r3, #0]
    1eba:	683b      	ldr	r3, [r7, #0]
    1ebc:	601a      	str	r2, [r3, #0]
    1ebe:	687b      	ldr	r3, [r7, #4]
    1ec0:	695a      	ldr	r2, [r3, #20]
    1ec2:	687b      	ldr	r3, [r7, #4]
    1ec4:	69db      	ldr	r3, [r3, #28]
    1ec6:	429a      	cmp	r2, r3
    1ec8:	d302      	bcc.n	1ed0 <mbox_get_no_wait+0x4c>
    1eca:	687b      	ldr	r3, [r7, #4]
    1ecc:	2200      	movs	r2, #0
    1ece:	615a      	str	r2, [r3, #20]
    1ed0:	68f8      	ldr	r0, [r7, #12]
    1ed2:	f7ff f906 	bl	10e2 <task_exit_critical>
    1ed6:	2300      	movs	r3, #0
    1ed8:	e005      	b.n	1ee6 <mbox_get_no_wait+0x62>
    1eda:	68f8      	ldr	r0, [r7, #12]
    1edc:	f7ff f901 	bl	10e2 <task_exit_critical>
    1ee0:	4b03      	ldr	r3, [pc, #12]	; (1ef0 <mbox_get_no_wait+0x6c>)
    1ee2:	681b      	ldr	r3, [r3, #0]
    1ee4:	6bdb      	ldr	r3, [r3, #60]	; 0x3c
    1ee6:	4618      	mov	r0, r3
    1ee8:	3710      	adds	r7, #16
    1eea:	46bd      	mov	sp, r7
    1eec:	bd80      	pop	{r7, pc}
    1eee:	bf00      	nop
    1ef0:	20000000 	andcs	r0, r0, r0

00001ef4 <mbox_send>:
    1ef4:	b580      	push	{r7, lr}
    1ef6:	b086      	sub	sp, #24
    1ef8:	af00      	add	r7, sp, #0
    1efa:	60f8      	str	r0, [r7, #12]
    1efc:	60b9      	str	r1, [r7, #8]
    1efe:	607a      	str	r2, [r7, #4]
    1f00:	f7ff f8e2 	bl	10c8 <task_enter_critical>
    1f04:	6178      	str	r0, [r7, #20]
    1f06:	2300      	movs	r3, #0
    1f08:	613b      	str	r3, [r7, #16]
    1f0a:	68fb      	ldr	r3, [r7, #12]
    1f0c:	4618      	mov	r0, r3
    1f0e:	f7ff fe53 	bl	1bb8 <event_wait_count>
    1f12:	4603      	mov	r3, r0
    1f14:	2b00      	cmp	r3, #0
    1f16:	d010      	beq.n	1f3a <mbox_send+0x46>
    1f18:	68fb      	ldr	r3, [r7, #12]
    1f1a:	2200      	movs	r2, #0
    1f1c:	68b9      	ldr	r1, [r7, #8]
    1f1e:	4618      	mov	r0, r3
    1f20:	f7ff fd6c 	bl	19fc <event_wakeup>
    1f24:	6138      	str	r0, [r7, #16]
    1f26:	693b      	ldr	r3, [r7, #16]
    1f28:	689a      	ldr	r2, [r3, #8]
    1f2a:	4b28      	ldr	r3, [pc, #160]	; (1fcc <mbox_send+0xd8>)
    1f2c:	681b      	ldr	r3, [r3, #0]
    1f2e:	689b      	ldr	r3, [r3, #8]
    1f30:	429a      	cmp	r2, r3
    1f32:	d243      	bcs.n	1fbc <mbox_send+0xc8>
    1f34:	f7fe ff92 	bl	e5c <task_sched>
    1f38:	e040      	b.n	1fbc <mbox_send+0xc8>
    1f3a:	68fb      	ldr	r3, [r7, #12]
    1f3c:	691a      	ldr	r2, [r3, #16]
    1f3e:	68fb      	ldr	r3, [r7, #12]
    1f40:	69db      	ldr	r3, [r3, #28]
    1f42:	429a      	cmp	r2, r3
    1f44:	d304      	bcc.n	1f50 <mbox_send+0x5c>
    1f46:	6978      	ldr	r0, [r7, #20]
    1f48:	f7ff f8cb 	bl	10e2 <task_exit_critical>
    1f4c:	2303      	movs	r3, #3
    1f4e:	e039      	b.n	1fc4 <mbox_send+0xd0>
    1f50:	687a      	ldr	r2, [r7, #4]
    1f52:	4b1f      	ldr	r3, [pc, #124]	; (1fd0 <mbox_send+0xdc>)
    1f54:	4013      	ands	r3, r2
    1f56:	2b00      	cmp	r3, #0
    1f58:	d017      	beq.n	1f8a <mbox_send+0x96>
    1f5a:	68fb      	ldr	r3, [r7, #12]
    1f5c:	695b      	ldr	r3, [r3, #20]
    1f5e:	2b00      	cmp	r3, #0
    1f60:	d105      	bne.n	1f6e <mbox_send+0x7a>
    1f62:	68fb      	ldr	r3, [r7, #12]
    1f64:	69db      	ldr	r3, [r3, #28]
    1f66:	1e5a      	subs	r2, r3, #1
    1f68:	68fb      	ldr	r3, [r7, #12]
    1f6a:	615a      	str	r2, [r3, #20]
    1f6c:	e004      	b.n	1f78 <mbox_send+0x84>
    1f6e:	68fb      	ldr	r3, [r7, #12]
    1f70:	695b      	ldr	r3, [r3, #20]
    1f72:	1e5a      	subs	r2, r3, #1
    1f74:	68fb      	ldr	r3, [r7, #12]
    1f76:	615a      	str	r2, [r3, #20]
    1f78:	68fb      	ldr	r3, [r7, #12]
    1f7a:	6a1a      	ldr	r2, [r3, #32]
    1f7c:	68fb      	ldr	r3, [r7, #12]
    1f7e:	695b      	ldr	r3, [r3, #20]
    1f80:	009b      	lsls	r3, r3, #2
    1f82:	4413      	add	r3, r2
    1f84:	68ba      	ldr	r2, [r7, #8]
    1f86:	601a      	str	r2, [r3, #0]
    1f88:	e013      	b.n	1fb2 <mbox_send+0xbe>
    1f8a:	68fb      	ldr	r3, [r7, #12]
    1f8c:	6a1a      	ldr	r2, [r3, #32]
    1f8e:	68fb      	ldr	r3, [r7, #12]
    1f90:	699b      	ldr	r3, [r3, #24]
    1f92:	1c58      	adds	r0, r3, #1
    1f94:	68f9      	ldr	r1, [r7, #12]
    1f96:	6188      	str	r0, [r1, #24]
    1f98:	009b      	lsls	r3, r3, #2
    1f9a:	4413      	add	r3, r2
    1f9c:	68ba      	ldr	r2, [r7, #8]
    1f9e:	601a      	str	r2, [r3, #0]
    1fa0:	68fb      	ldr	r3, [r7, #12]
    1fa2:	699a      	ldr	r2, [r3, #24]
    1fa4:	68fb      	ldr	r3, [r7, #12]
    1fa6:	69db      	ldr	r3, [r3, #28]
    1fa8:	429a      	cmp	r2, r3
    1faa:	d302      	bcc.n	1fb2 <mbox_send+0xbe>
    1fac:	68fb      	ldr	r3, [r7, #12]
    1fae:	2200      	movs	r2, #0
    1fb0:	619a      	str	r2, [r3, #24]
    1fb2:	68fb      	ldr	r3, [r7, #12]
    1fb4:	691b      	ldr	r3, [r3, #16]
    1fb6:	1c5a      	adds	r2, r3, #1
    1fb8:	68fb      	ldr	r3, [r7, #12]
    1fba:	611a      	str	r2, [r3, #16]
    1fbc:	6978      	ldr	r0, [r7, #20]
    1fbe:	f7ff f890 	bl	10e2 <task_exit_critical>
    1fc2:	2300      	movs	r3, #0
    1fc4:	4618      	mov	r0, r3
    1fc6:	3718      	adds	r7, #24
    1fc8:	46bd      	mov	sp, r7
    1fca:	bd80      	pop	{r7, pc}
    1fcc:	20000000 	andcs	r0, r0, r0
    1fd0:	12345678 	eorsne	r5, r4, #120, 12	; 0x7800000

00001fd4 <mbox_flush>:
    1fd4:	b580      	push	{r7, lr}
    1fd6:	b084      	sub	sp, #16
    1fd8:	af00      	add	r7, sp, #0
    1fda:	6078      	str	r0, [r7, #4]
    1fdc:	f7ff f874 	bl	10c8 <task_enter_critical>
    1fe0:	60f8      	str	r0, [r7, #12]
    1fe2:	687b      	ldr	r3, [r7, #4]
    1fe4:	4618      	mov	r0, r3
    1fe6:	f7ff fde7 	bl	1bb8 <event_wait_count>
    1fea:	4603      	mov	r3, r0
    1fec:	2b00      	cmp	r3, #0
    1fee:	d108      	bne.n	2002 <mbox_flush+0x2e>
    1ff0:	687b      	ldr	r3, [r7, #4]
    1ff2:	2200      	movs	r2, #0
    1ff4:	615a      	str	r2, [r3, #20]
    1ff6:	687b      	ldr	r3, [r7, #4]
    1ff8:	2200      	movs	r2, #0
    1ffa:	619a      	str	r2, [r3, #24]
    1ffc:	687b      	ldr	r3, [r7, #4]
    1ffe:	2200      	movs	r2, #0
    2000:	611a      	str	r2, [r3, #16]
    2002:	68f8      	ldr	r0, [r7, #12]
    2004:	f7ff f86d 	bl	10e2 <task_exit_critical>
    2008:	bf00      	nop
    200a:	3710      	adds	r7, #16
    200c:	46bd      	mov	sp, r7
    200e:	bd80      	pop	{r7, pc}

00002010 <mbox_destory>:
    2010:	b580      	push	{r7, lr}
    2012:	b084      	sub	sp, #16
    2014:	af00      	add	r7, sp, #0
    2016:	6078      	str	r0, [r7, #4]
    2018:	f7ff f856 	bl	10c8 <task_enter_critical>
    201c:	60f8      	str	r0, [r7, #12]
    201e:	687b      	ldr	r3, [r7, #4]
    2020:	2202      	movs	r2, #2
    2022:	2100      	movs	r1, #0
    2024:	4618      	mov	r0, r3
    2026:	f7ff fd78 	bl	1b1a <event_remove_all>
    202a:	60b8      	str	r0, [r7, #8]
    202c:	68f8      	ldr	r0, [r7, #12]
    202e:	f7ff f858 	bl	10e2 <task_exit_critical>
    2032:	68bb      	ldr	r3, [r7, #8]
    2034:	2b00      	cmp	r3, #0
    2036:	d001      	beq.n	203c <mbox_destory+0x2c>
    2038:	f7fe ff10 	bl	e5c <task_sched>
    203c:	68bb      	ldr	r3, [r7, #8]
    203e:	4618      	mov	r0, r3
    2040:	3710      	adds	r7, #16
    2042:	46bd      	mov	sp, r7
    2044:	bd80      	pop	{r7, pc}

00002046 <mbox_get_info>:
    2046:	b580      	push	{r7, lr}
    2048:	b084      	sub	sp, #16
    204a:	af00      	add	r7, sp, #0
    204c:	6078      	str	r0, [r7, #4]
    204e:	6039      	str	r1, [r7, #0]
    2050:	f7ff f83a 	bl	10c8 <task_enter_critical>
    2054:	60f8      	str	r0, [r7, #12]
    2056:	687b      	ldr	r3, [r7, #4]
    2058:	691a      	ldr	r2, [r3, #16]
    205a:	683b      	ldr	r3, [r7, #0]
    205c:	601a      	str	r2, [r3, #0]
    205e:	687b      	ldr	r3, [r7, #4]
    2060:	69da      	ldr	r2, [r3, #28]
    2062:	683b      	ldr	r3, [r7, #0]
    2064:	605a      	str	r2, [r3, #4]
    2066:	687b      	ldr	r3, [r7, #4]
    2068:	4618      	mov	r0, r3
    206a:	f7ff fda5 	bl	1bb8 <event_wait_count>
    206e:	4602      	mov	r2, r0
    2070:	683b      	ldr	r3, [r7, #0]
    2072:	609a      	str	r2, [r3, #8]
    2074:	68f8      	ldr	r0, [r7, #12]
    2076:	f7ff f834 	bl	10e2 <task_exit_critical>
    207a:	bf00      	nop
    207c:	3710      	adds	r7, #16
    207e:	46bd      	mov	sp, r7
    2080:	bd80      	pop	{r7, pc}
    2082:	bf00      	nop

00002084 <mem_block_init>:
    2084:	b580      	push	{r7, lr}
    2086:	b086      	sub	sp, #24
    2088:	af00      	add	r7, sp, #0
    208a:	60f8      	str	r0, [r7, #12]
    208c:	60b9      	str	r1, [r7, #8]
    208e:	607a      	str	r2, [r7, #4]
    2090:	603b      	str	r3, [r7, #0]
    2092:	68bb      	ldr	r3, [r7, #8]
    2094:	617b      	str	r3, [r7, #20]
    2096:	687b      	ldr	r3, [r7, #4]
    2098:	683a      	ldr	r2, [r7, #0]
    209a:	fb02 f303 	mul.w	r3, r2, r3
    209e:	697a      	ldr	r2, [r7, #20]
    20a0:	4413      	add	r3, r2
    20a2:	613b      	str	r3, [r7, #16]
    20a4:	687b      	ldr	r3, [r7, #4]
    20a6:	2b07      	cmp	r3, #7
    20a8:	d926      	bls.n	20f8 <mem_block_init+0x74>
    20aa:	68fb      	ldr	r3, [r7, #12]
    20ac:	f44f 3140 	mov.w	r1, #196608	; 0x30000
    20b0:	4618      	mov	r0, r3
    20b2:	f7ff fc63 	bl	197c <event_init>
    20b6:	68fb      	ldr	r3, [r7, #12]
    20b8:	68ba      	ldr	r2, [r7, #8]
    20ba:	611a      	str	r2, [r3, #16]
    20bc:	68fb      	ldr	r3, [r7, #12]
    20be:	687a      	ldr	r2, [r7, #4]
    20c0:	615a      	str	r2, [r3, #20]
    20c2:	68fb      	ldr	r3, [r7, #12]
    20c4:	683a      	ldr	r2, [r7, #0]
    20c6:	619a      	str	r2, [r3, #24]
    20c8:	68fb      	ldr	r3, [r7, #12]
    20ca:	331c      	adds	r3, #28
    20cc:	4618      	mov	r0, r3
    20ce:	f7ff faf5 	bl	16bc <list_init>
    20d2:	e00c      	b.n	20ee <mem_block_init+0x6a>
    20d4:	6978      	ldr	r0, [r7, #20]
    20d6:	f7ff fadf 	bl	1698 <list_node_init>
    20da:	68fb      	ldr	r3, [r7, #12]
    20dc:	331c      	adds	r3, #28
    20de:	6979      	ldr	r1, [r7, #20]
    20e0:	4618      	mov	r0, r3
    20e2:	f7ff fbbd 	bl	1860 <list_append_last>
    20e6:	697a      	ldr	r2, [r7, #20]
    20e8:	687b      	ldr	r3, [r7, #4]
    20ea:	4413      	add	r3, r2
    20ec:	617b      	str	r3, [r7, #20]
    20ee:	697a      	ldr	r2, [r7, #20]
    20f0:	693b      	ldr	r3, [r7, #16]
    20f2:	429a      	cmp	r2, r3
    20f4:	d3ee      	bcc.n	20d4 <mem_block_init+0x50>
    20f6:	e000      	b.n	20fa <mem_block_init+0x76>
    20f8:	bf00      	nop
    20fa:	bf00      	nop
    20fc:	3718      	adds	r7, #24
    20fe:	46bd      	mov	sp, r7
    2100:	bd80      	pop	{r7, pc}

00002102 <mem_block_alloc>:
    2102:	b580      	push	{r7, lr}
    2104:	b088      	sub	sp, #32
    2106:	af02      	add	r7, sp, #8
    2108:	60f8      	str	r0, [r7, #12]
    210a:	60b9      	str	r1, [r7, #8]
    210c:	607a      	str	r2, [r7, #4]
    210e:	f7fe ffdb 	bl	10c8 <task_enter_critical>
    2112:	6178      	str	r0, [r7, #20]
    2114:	68fb      	ldr	r3, [r7, #12]
    2116:	331c      	adds	r3, #28
    2118:	4618      	mov	r0, r3
    211a:	f7ff fae1 	bl	16e0 <list_count>
    211e:	4603      	mov	r3, r0
    2120:	2b00      	cmp	r3, #0
    2122:	d00c      	beq.n	213e <mem_block_alloc+0x3c>
    2124:	68fb      	ldr	r3, [r7, #12]
    2126:	331c      	adds	r3, #28
    2128:	4618      	mov	r0, r3
    212a:	f7ff fbc2 	bl	18b2 <list_remove_first>
    212e:	4602      	mov	r2, r0
    2130:	68bb      	ldr	r3, [r7, #8]
    2132:	601a      	str	r2, [r3, #0]
    2134:	6978      	ldr	r0, [r7, #20]
    2136:	f7fe ffd4 	bl	10e2 <task_exit_critical>
    213a:	2300      	movs	r3, #0
    213c:	e016      	b.n	216c <mem_block_alloc+0x6a>
    213e:	68f8      	ldr	r0, [r7, #12]
    2140:	4b0c      	ldr	r3, [pc, #48]	; (2174 <mem_block_alloc+0x72>)
    2142:	6819      	ldr	r1, [r3, #0]
    2144:	687b      	ldr	r3, [r7, #4]
    2146:	9300      	str	r3, [sp, #0]
    2148:	f44f 3340 	mov.w	r3, #196608	; 0x30000
    214c:	2200      	movs	r2, #0
    214e:	f7ff fc26 	bl	199e <event_wait>
    2152:	6978      	ldr	r0, [r7, #20]
    2154:	f7fe ffc5 	bl	10e2 <task_exit_critical>
    2158:	f7fe fe80 	bl	e5c <task_sched>
    215c:	4b05      	ldr	r3, [pc, #20]	; (2174 <mem_block_alloc+0x72>)
    215e:	681b      	ldr	r3, [r3, #0]
    2160:	6b9a      	ldr	r2, [r3, #56]	; 0x38
    2162:	68bb      	ldr	r3, [r7, #8]
    2164:	601a      	str	r2, [r3, #0]
    2166:	4b03      	ldr	r3, [pc, #12]	; (2174 <mem_block_alloc+0x72>)
    2168:	681b      	ldr	r3, [r3, #0]
    216a:	6bdb      	ldr	r3, [r3, #60]	; 0x3c
    216c:	4618      	mov	r0, r3
    216e:	3718      	adds	r7, #24
    2170:	46bd      	mov	sp, r7
    2172:	bd80      	pop	{r7, pc}
    2174:	20000000 	andcs	r0, r0, r0

00002178 <mem_block_alloc_no_wait>:
    2178:	b580      	push	{r7, lr}
    217a:	b084      	sub	sp, #16
    217c:	af00      	add	r7, sp, #0
    217e:	6078      	str	r0, [r7, #4]
    2180:	6039      	str	r1, [r7, #0]
    2182:	f7fe ffa1 	bl	10c8 <task_enter_critical>
    2186:	60f8      	str	r0, [r7, #12]
    2188:	687b      	ldr	r3, [r7, #4]
    218a:	331c      	adds	r3, #28
    218c:	4618      	mov	r0, r3
    218e:	f7ff faa7 	bl	16e0 <list_count>
    2192:	4603      	mov	r3, r0
    2194:	2b00      	cmp	r3, #0
    2196:	d00c      	beq.n	21b2 <mem_block_alloc_no_wait+0x3a>
    2198:	687b      	ldr	r3, [r7, #4]
    219a:	331c      	adds	r3, #28
    219c:	4618      	mov	r0, r3
    219e:	f7ff fb88 	bl	18b2 <list_remove_first>
    21a2:	4602      	mov	r2, r0
    21a4:	683b      	ldr	r3, [r7, #0]
    21a6:	601a      	str	r2, [r3, #0]
    21a8:	68f8      	ldr	r0, [r7, #12]
    21aa:	f7fe ff9a 	bl	10e2 <task_exit_critical>
    21ae:	2300      	movs	r3, #0
    21b0:	e003      	b.n	21ba <mem_block_alloc_no_wait+0x42>
    21b2:	68f8      	ldr	r0, [r7, #12]
    21b4:	f7fe ff95 	bl	10e2 <task_exit_critical>
    21b8:	2303      	movs	r3, #3
    21ba:	4618      	mov	r0, r3
    21bc:	3710      	adds	r7, #16
    21be:	46bd      	mov	sp, r7
    21c0:	bd80      	pop	{r7, pc}

000021c2 <mem_block_free>:
    21c2:	b580      	push	{r7, lr}
    21c4:	b084      	sub	sp, #16
    21c6:	af00      	add	r7, sp, #0
    21c8:	6078      	str	r0, [r7, #4]
    21ca:	6039      	str	r1, [r7, #0]
    21cc:	f7fe ff7c 	bl	10c8 <task_enter_critical>
    21d0:	60f8      	str	r0, [r7, #12]
    21d2:	687b      	ldr	r3, [r7, #4]
    21d4:	4618      	mov	r0, r3
    21d6:	f7ff fcef 	bl	1bb8 <event_wait_count>
    21da:	4603      	mov	r3, r0
    21dc:	2b00      	cmp	r3, #0
    21de:	d010      	beq.n	2202 <mem_block_free+0x40>
    21e0:	687b      	ldr	r3, [r7, #4]
    21e2:	2200      	movs	r2, #0
    21e4:	6839      	ldr	r1, [r7, #0]
    21e6:	4618      	mov	r0, r3
    21e8:	f7ff fc08 	bl	19fc <event_wakeup>
    21ec:	60b8      	str	r0, [r7, #8]
    21ee:	68bb      	ldr	r3, [r7, #8]
    21f0:	689a      	ldr	r2, [r3, #8]
    21f2:	4b0a      	ldr	r3, [pc, #40]	; (221c <mem_block_free+0x5a>)
    21f4:	681b      	ldr	r3, [r3, #0]
    21f6:	689b      	ldr	r3, [r3, #8]
    21f8:	429a      	cmp	r2, r3
    21fa:	d908      	bls.n	220e <mem_block_free+0x4c>
    21fc:	f7fe fe2e 	bl	e5c <task_sched>
    2200:	e005      	b.n	220e <mem_block_free+0x4c>
    2202:	687b      	ldr	r3, [r7, #4]
    2204:	331c      	adds	r3, #28
    2206:	6839      	ldr	r1, [r7, #0]
    2208:	4618      	mov	r0, r3
    220a:	f7ff fb29 	bl	1860 <list_append_last>
    220e:	68f8      	ldr	r0, [r7, #12]
    2210:	f7fe ff67 	bl	10e2 <task_exit_critical>
    2214:	bf00      	nop
    2216:	3710      	adds	r7, #16
    2218:	46bd      	mov	sp, r7
    221a:	bd80      	pop	{r7, pc}
    221c:	20000000 	andcs	r0, r0, r0

00002220 <mem_block_get_info>:
    2220:	b580      	push	{r7, lr}
    2222:	b084      	sub	sp, #16
    2224:	af00      	add	r7, sp, #0
    2226:	6078      	str	r0, [r7, #4]
    2228:	6039      	str	r1, [r7, #0]
    222a:	f7fe ff4d 	bl	10c8 <task_enter_critical>
    222e:	60f8      	str	r0, [r7, #12]
    2230:	687b      	ldr	r3, [r7, #4]
    2232:	331c      	adds	r3, #28
    2234:	4618      	mov	r0, r3
    2236:	f7ff fa53 	bl	16e0 <list_count>
    223a:	4602      	mov	r2, r0
    223c:	683b      	ldr	r3, [r7, #0]
    223e:	601a      	str	r2, [r3, #0]
    2240:	687b      	ldr	r3, [r7, #4]
    2242:	699a      	ldr	r2, [r3, #24]
    2244:	683b      	ldr	r3, [r7, #0]
    2246:	605a      	str	r2, [r3, #4]
    2248:	687b      	ldr	r3, [r7, #4]
    224a:	695a      	ldr	r2, [r3, #20]
    224c:	683b      	ldr	r3, [r7, #0]
    224e:	609a      	str	r2, [r3, #8]
    2250:	687b      	ldr	r3, [r7, #4]
    2252:	4618      	mov	r0, r3
    2254:	f7ff fcb0 	bl	1bb8 <event_wait_count>
    2258:	4602      	mov	r2, r0
    225a:	683b      	ldr	r3, [r7, #0]
    225c:	60da      	str	r2, [r3, #12]
    225e:	68f8      	ldr	r0, [r7, #12]
    2260:	f7fe ff3f 	bl	10e2 <task_exit_critical>
    2264:	bf00      	nop
    2266:	3710      	adds	r7, #16
    2268:	46bd      	mov	sp, r7
    226a:	bd80      	pop	{r7, pc}

0000226c <mem_block_destory>:
    226c:	b580      	push	{r7, lr}
    226e:	b084      	sub	sp, #16
    2270:	af00      	add	r7, sp, #0
    2272:	6078      	str	r0, [r7, #4]
    2274:	f7fe ff28 	bl	10c8 <task_enter_critical>
    2278:	60f8      	str	r0, [r7, #12]
    227a:	687b      	ldr	r3, [r7, #4]
    227c:	2202      	movs	r2, #2
    227e:	2100      	movs	r1, #0
    2280:	4618      	mov	r0, r3
    2282:	f7ff fc4a 	bl	1b1a <event_remove_all>
    2286:	60b8      	str	r0, [r7, #8]
    2288:	68f8      	ldr	r0, [r7, #12]
    228a:	f7fe ff2a 	bl	10e2 <task_exit_critical>
    228e:	68bb      	ldr	r3, [r7, #8]
    2290:	2b00      	cmp	r3, #0
    2292:	d001      	beq.n	2298 <mem_block_destory+0x2c>
    2294:	f7fe fde2 	bl	e5c <task_sched>
    2298:	68bb      	ldr	r3, [r7, #8]
    229a:	4618      	mov	r0, r3
    229c:	3710      	adds	r7, #16
    229e:	46bd      	mov	sp, r7
    22a0:	bd80      	pop	{r7, pc}
    22a2:	bf00      	nop

000022a4 <timer_init>:
    22a4:	b580      	push	{r7, lr}
    22a6:	b084      	sub	sp, #16
    22a8:	af00      	add	r7, sp, #0
    22aa:	60f8      	str	r0, [r7, #12]
    22ac:	60b9      	str	r1, [r7, #8]
    22ae:	607a      	str	r2, [r7, #4]
    22b0:	603b      	str	r3, [r7, #0]
    22b2:	68fb      	ldr	r3, [r7, #12]
    22b4:	4618      	mov	r0, r3
    22b6:	f7ff f9ef 	bl	1698 <list_node_init>
    22ba:	68fb      	ldr	r3, [r7, #12]
    22bc:	68ba      	ldr	r2, [r7, #8]
    22be:	60da      	str	r2, [r3, #12]
    22c0:	68fb      	ldr	r3, [r7, #12]
    22c2:	687a      	ldr	r2, [r7, #4]
    22c4:	609a      	str	r2, [r3, #8]
    22c6:	68fb      	ldr	r3, [r7, #12]
    22c8:	683a      	ldr	r2, [r7, #0]
    22ca:	615a      	str	r2, [r3, #20]
    22cc:	68fb      	ldr	r3, [r7, #12]
    22ce:	69ba      	ldr	r2, [r7, #24]
    22d0:	619a      	str	r2, [r3, #24]
    22d2:	68fb      	ldr	r3, [r7, #12]
    22d4:	69fa      	ldr	r2, [r7, #28]
    22d6:	61da      	str	r2, [r3, #28]
    22d8:	68bb      	ldr	r3, [r7, #8]
    22da:	2b00      	cmp	r3, #0
    22dc:	d103      	bne.n	22e6 <timer_init+0x42>
    22de:	68fb      	ldr	r3, [r7, #12]
    22e0:	687a      	ldr	r2, [r7, #4]
    22e2:	611a      	str	r2, [r3, #16]
    22e4:	e003      	b.n	22ee <timer_init+0x4a>
    22e6:	68fb      	ldr	r3, [r7, #12]
    22e8:	68da      	ldr	r2, [r3, #12]
    22ea:	68fb      	ldr	r3, [r7, #12]
    22ec:	611a      	str	r2, [r3, #16]
    22ee:	68fb      	ldr	r3, [r7, #12]
    22f0:	2200      	movs	r2, #0
    22f2:	f883 2020 	strb.w	r2, [r3, #32]
    22f6:	bf00      	nop
    22f8:	3710      	adds	r7, #16
    22fa:	46bd      	mov	sp, r7
    22fc:	bd80      	pop	{r7, pc}

000022fe <timer_start>:
    22fe:	b580      	push	{r7, lr}
    2300:	b084      	sub	sp, #16
    2302:	af00      	add	r7, sp, #0
    2304:	6078      	str	r0, [r7, #4]
    2306:	687b      	ldr	r3, [r7, #4]
    2308:	f893 3020 	ldrb.w	r3, [r3, #32]
    230c:	2b00      	cmp	r3, #0
    230e:	d001      	beq.n	2314 <timer_start+0x16>
    2310:	2b03      	cmp	r3, #3
    2312:	d12d      	bne.n	2370 <timer_start+0x72>
    2314:	687b      	ldr	r3, [r7, #4]
    2316:	68db      	ldr	r3, [r3, #12]
    2318:	2b00      	cmp	r3, #0
    231a:	d002      	beq.n	2322 <timer_start+0x24>
    231c:	687b      	ldr	r3, [r7, #4]
    231e:	68db      	ldr	r3, [r3, #12]
    2320:	e001      	b.n	2326 <timer_start+0x28>
    2322:	687b      	ldr	r3, [r7, #4]
    2324:	689b      	ldr	r3, [r3, #8]
    2326:	687a      	ldr	r2, [r7, #4]
    2328:	6113      	str	r3, [r2, #16]
    232a:	687b      	ldr	r3, [r7, #4]
    232c:	2201      	movs	r2, #1
    232e:	f883 2020 	strb.w	r2, [r3, #32]
    2332:	687b      	ldr	r3, [r7, #4]
    2334:	69db      	ldr	r3, [r3, #28]
    2336:	f003 0301 	and.w	r3, r3, #1
    233a:	2b00      	cmp	r3, #0
    233c:	d00b      	beq.n	2356 <timer_start+0x58>
    233e:	f7fe fec3 	bl	10c8 <task_enter_critical>
    2342:	60f8      	str	r0, [r7, #12]
    2344:	687b      	ldr	r3, [r7, #4]
    2346:	4619      	mov	r1, r3
    2348:	480c      	ldr	r0, [pc, #48]	; (237c <timer_start+0x7e>)
    234a:	f7ff fa89 	bl	1860 <list_append_last>
    234e:	68f8      	ldr	r0, [r7, #12]
    2350:	f7fe fec7 	bl	10e2 <task_exit_critical>
    2354:	e00d      	b.n	2372 <timer_start+0x74>
    2356:	2100      	movs	r1, #0
    2358:	4809      	ldr	r0, [pc, #36]	; (2380 <timer_start+0x82>)
    235a:	f7ff fc63 	bl	1c24 <sem_acquire>
    235e:	687b      	ldr	r3, [r7, #4]
    2360:	4619      	mov	r1, r3
    2362:	4808      	ldr	r0, [pc, #32]	; (2384 <timer_start+0x86>)
    2364:	f7ff fa7c 	bl	1860 <list_append_last>
    2368:	4805      	ldr	r0, [pc, #20]	; (2380 <timer_start+0x82>)
    236a:	f7ff fcab 	bl	1cc4 <sem_release>
    236e:	e000      	b.n	2372 <timer_start+0x74>
    2370:	bf00      	nop
    2372:	bf00      	nop
    2374:	3710      	adds	r7, #16
    2376:	46bd      	mov	sp, r7
    2378:	bd80      	pop	{r7, pc}
    237a:	bf00      	nop
    237c:	200011e8 	andcs	r1, r0, r8, ror #3
    2380:	20001200 	andcs	r1, r0, r0, lsl #4
    2384:	200011f4 	strdcs	r1, [r0], -r4

00002388 <timer_stop>:
    2388:	b580      	push	{r7, lr}
    238a:	b084      	sub	sp, #16
    238c:	af00      	add	r7, sp, #0
    238e:	6078      	str	r0, [r7, #4]
    2390:	687b      	ldr	r3, [r7, #4]
    2392:	f893 3020 	ldrb.w	r3, [r3, #32]
    2396:	3b01      	subs	r3, #1
    2398:	2b01      	cmp	r3, #1
    239a:	d822      	bhi.n	23e2 <timer_stop+0x5a>
    239c:	687b      	ldr	r3, [r7, #4]
    239e:	69db      	ldr	r3, [r3, #28]
    23a0:	f003 0301 	and.w	r3, r3, #1
    23a4:	2b00      	cmp	r3, #0
    23a6:	d00b      	beq.n	23c0 <timer_stop+0x38>
    23a8:	f7fe fe8e 	bl	10c8 <task_enter_critical>
    23ac:	60f8      	str	r0, [r7, #12]
    23ae:	687b      	ldr	r3, [r7, #4]
    23b0:	4619      	mov	r1, r3
    23b2:	480e      	ldr	r0, [pc, #56]	; (23ec <timer_stop+0x64>)
    23b4:	f7ff fab2 	bl	191c <list_remove>
    23b8:	68f8      	ldr	r0, [r7, #12]
    23ba:	f7fe fe92 	bl	10e2 <task_exit_critical>
    23be:	e00b      	b.n	23d8 <timer_stop+0x50>
    23c0:	2100      	movs	r1, #0
    23c2:	480b      	ldr	r0, [pc, #44]	; (23f0 <timer_stop+0x68>)
    23c4:	f7ff fc2e 	bl	1c24 <sem_acquire>
    23c8:	687b      	ldr	r3, [r7, #4]
    23ca:	4619      	mov	r1, r3
    23cc:	4809      	ldr	r0, [pc, #36]	; (23f4 <timer_stop+0x6c>)
    23ce:	f7ff faa5 	bl	191c <list_remove>
    23d2:	4807      	ldr	r0, [pc, #28]	; (23f0 <timer_stop+0x68>)
    23d4:	f7ff fc76 	bl	1cc4 <sem_release>
    23d8:	687b      	ldr	r3, [r7, #4]
    23da:	2203      	movs	r2, #3
    23dc:	f883 2020 	strb.w	r2, [r3, #32]
    23e0:	e000      	b.n	23e4 <timer_stop+0x5c>
    23e2:	bf00      	nop
    23e4:	bf00      	nop
    23e6:	3710      	adds	r7, #16
    23e8:	46bd      	mov	sp, r7
    23ea:	bd80      	pop	{r7, pc}
    23ec:	200011e8 	andcs	r1, r0, r8, ror #3
    23f0:	20001200 	andcs	r1, r0, r0, lsl #4
    23f4:	200011f4 	strdcs	r1, [r0], -r4

000023f8 <timer_call_func_list>:
    23f8:	b580      	push	{r7, lr}
    23fa:	b084      	sub	sp, #16
    23fc:	af00      	add	r7, sp, #0
    23fe:	6078      	str	r0, [r7, #4]
    2400:	687b      	ldr	r3, [r7, #4]
    2402:	685b      	ldr	r3, [r3, #4]
    2404:	60fb      	str	r3, [r7, #12]
    2406:	e02b      	b.n	2460 <timer_call_func_list+0x68>
    2408:	68fb      	ldr	r3, [r7, #12]
    240a:	60bb      	str	r3, [r7, #8]
    240c:	68bb      	ldr	r3, [r7, #8]
    240e:	691b      	ldr	r3, [r3, #16]
    2410:	2b00      	cmp	r3, #0
    2412:	d008      	beq.n	2426 <timer_call_func_list+0x2e>
    2414:	68bb      	ldr	r3, [r7, #8]
    2416:	691b      	ldr	r3, [r3, #16]
    2418:	1e5a      	subs	r2, r3, #1
    241a:	68bb      	ldr	r3, [r7, #8]
    241c:	611a      	str	r2, [r3, #16]
    241e:	68bb      	ldr	r3, [r7, #8]
    2420:	691b      	ldr	r3, [r3, #16]
    2422:	2b00      	cmp	r3, #0
    2424:	d119      	bne.n	245a <timer_call_func_list+0x62>
    2426:	68bb      	ldr	r3, [r7, #8]
    2428:	2202      	movs	r2, #2
    242a:	f883 2020 	strb.w	r2, [r3, #32]
    242e:	68bb      	ldr	r3, [r7, #8]
    2430:	695b      	ldr	r3, [r3, #20]
    2432:	68ba      	ldr	r2, [r7, #8]
    2434:	6992      	ldr	r2, [r2, #24]
    2436:	4610      	mov	r0, r2
    2438:	4798      	blx	r3
    243a:	68bb      	ldr	r3, [r7, #8]
    243c:	2201      	movs	r2, #1
    243e:	f883 2020 	strb.w	r2, [r3, #32]
    2442:	68bb      	ldr	r3, [r7, #8]
    2444:	689b      	ldr	r3, [r3, #8]
    2446:	2b00      	cmp	r3, #0
    2448:	d004      	beq.n	2454 <timer_call_func_list+0x5c>
    244a:	68bb      	ldr	r3, [r7, #8]
    244c:	689a      	ldr	r2, [r3, #8]
    244e:	68bb      	ldr	r3, [r7, #8]
    2450:	611a      	str	r2, [r3, #16]
    2452:	e002      	b.n	245a <timer_call_func_list+0x62>
    2454:	68b8      	ldr	r0, [r7, #8]
    2456:	f7ff ff97 	bl	2388 <timer_stop>
    245a:	68fb      	ldr	r3, [r7, #12]
    245c:	685b      	ldr	r3, [r3, #4]
    245e:	60fb      	str	r3, [r7, #12]
    2460:	687b      	ldr	r3, [r7, #4]
    2462:	68fa      	ldr	r2, [r7, #12]
    2464:	429a      	cmp	r2, r3
    2466:	d1cf      	bne.n	2408 <timer_call_func_list+0x10>
    2468:	bf00      	nop
    246a:	bf00      	nop
    246c:	3710      	adds	r7, #16
    246e:	46bd      	mov	sp, r7
    2470:	bd80      	pop	{r7, pc}

00002472 <timer_destory>:
    2472:	b580      	push	{r7, lr}
    2474:	b082      	sub	sp, #8
    2476:	af00      	add	r7, sp, #0
    2478:	6078      	str	r0, [r7, #4]
    247a:	6878      	ldr	r0, [r7, #4]
    247c:	f7ff ff84 	bl	2388 <timer_stop>
    2480:	687b      	ldr	r3, [r7, #4]
    2482:	2204      	movs	r2, #4
    2484:	f883 2020 	strb.w	r2, [r3, #32]
    2488:	bf00      	nop
    248a:	3708      	adds	r7, #8
    248c:	46bd      	mov	sp, r7
    248e:	bd80      	pop	{r7, pc}

00002490 <timer_soft_task>:
    2490:	b580      	push	{r7, lr}
    2492:	b082      	sub	sp, #8
    2494:	af00      	add	r7, sp, #0
    2496:	6078      	str	r0, [r7, #4]
    2498:	2100      	movs	r1, #0
    249a:	4807      	ldr	r0, [pc, #28]	; (24b8 <timer_soft_task+0x28>)
    249c:	f7ff fbc2 	bl	1c24 <sem_acquire>
    24a0:	2100      	movs	r1, #0
    24a2:	4806      	ldr	r0, [pc, #24]	; (24bc <timer_soft_task+0x2c>)
    24a4:	f7ff fbbe 	bl	1c24 <sem_acquire>
    24a8:	4805      	ldr	r0, [pc, #20]	; (24c0 <timer_soft_task+0x30>)
    24aa:	f7ff ffa5 	bl	23f8 <timer_call_func_list>
    24ae:	4803      	ldr	r0, [pc, #12]	; (24bc <timer_soft_task+0x2c>)
    24b0:	f7ff fc08 	bl	1cc4 <sem_release>
    24b4:	e7f0      	b.n	2498 <timer_soft_task+0x8>
    24b6:	bf00      	nop
    24b8:	20001218 	andcs	r1, r0, r8, lsl r2
    24bc:	20001200 	andcs	r1, r0, r0, lsl #4
    24c0:	200011f4 	strdcs	r1, [r0], -r4

000024c4 <timer_module_tick_notify>:
    24c4:	b580      	push	{r7, lr}
    24c6:	b082      	sub	sp, #8
    24c8:	af00      	add	r7, sp, #0
    24ca:	f7fe fdfd 	bl	10c8 <task_enter_critical>
    24ce:	6078      	str	r0, [r7, #4]
    24d0:	4806      	ldr	r0, [pc, #24]	; (24ec <timer_module_tick_notify+0x28>)
    24d2:	f7ff ff91 	bl	23f8 <timer_call_func_list>
    24d6:	6878      	ldr	r0, [r7, #4]
    24d8:	f7fe fe03 	bl	10e2 <task_exit_critical>
    24dc:	4804      	ldr	r0, [pc, #16]	; (24f0 <timer_module_tick_notify+0x2c>)
    24de:	f7ff fbf1 	bl	1cc4 <sem_release>
    24e2:	bf00      	nop
    24e4:	3708      	adds	r7, #8
    24e6:	46bd      	mov	sp, r7
    24e8:	bd80      	pop	{r7, pc}
    24ea:	bf00      	nop
    24ec:	200011e8 	andcs	r1, r0, r8, ror #3
    24f0:	20001218 	andcs	r1, r0, r8, lsl r2

000024f4 <timer_module_init>:
    24f4:	b580      	push	{r7, lr}
    24f6:	b082      	sub	sp, #8
    24f8:	af02      	add	r7, sp, #8
    24fa:	480d      	ldr	r0, [pc, #52]	; (2530 <timer_module_init+0x3c>)
    24fc:	f7ff f8de 	bl	16bc <list_init>
    2500:	480c      	ldr	r0, [pc, #48]	; (2534 <timer_module_init+0x40>)
    2502:	f7ff f8db 	bl	16bc <list_init>
    2506:	2201      	movs	r2, #1
    2508:	2101      	movs	r1, #1
    250a:	480b      	ldr	r0, [pc, #44]	; (2538 <timer_module_init+0x44>)
    250c:	f7ff fb6c 	bl	1be8 <sem_init>
    2510:	2200      	movs	r2, #0
    2512:	2100      	movs	r1, #0
    2514:	4809      	ldr	r0, [pc, #36]	; (253c <timer_module_init+0x48>)
    2516:	f7ff fb67 	bl	1be8 <sem_init>
    251a:	4b09      	ldr	r3, [pc, #36]	; (2540 <timer_module_init+0x4c>)
    251c:	9300      	str	r3, [sp, #0]
    251e:	2301      	movs	r3, #1
    2520:	2200      	movs	r2, #0
    2522:	4908      	ldr	r1, [pc, #32]	; (2544 <timer_module_init+0x50>)
    2524:	4808      	ldr	r0, [pc, #32]	; (2548 <timer_module_init+0x54>)
    2526:	f7fe fbe0 	bl	cea <task_init>
    252a:	bf00      	nop
    252c:	46bd      	mov	sp, r7
    252e:	bd80      	pop	{r7, pc}
    2530:	200011e8 	andcs	r1, r0, r8, ror #3
    2534:	200011f4 	strdcs	r1, [r0], -r4
    2538:	20001200 	andcs	r1, r0, r0, lsl #4
    253c:	20001218 	andcs	r1, r0, r8, lsl r2
    2540:	20002278 	andcs	r2, r0, r8, ror r2
    2544:	00002491 	muleq	r0, r1, r4
    2548:	20001230 	andcs	r1, r0, r0, lsr r2

0000254c <mutex_init>:
    254c:	b580      	push	{r7, lr}
    254e:	b082      	sub	sp, #8
    2550:	af00      	add	r7, sp, #0
    2552:	6078      	str	r0, [r7, #4]
    2554:	687b      	ldr	r3, [r7, #4]
    2556:	f44f 2180 	mov.w	r1, #262144	; 0x40000
    255a:	4618      	mov	r0, r3
    255c:	f7ff fa0e 	bl	197c <event_init>
    2560:	687b      	ldr	r3, [r7, #4]
    2562:	2200      	movs	r2, #0
    2564:	615a      	str	r2, [r3, #20]
    2566:	687b      	ldr	r3, [r7, #4]
    2568:	2220      	movs	r2, #32
    256a:	619a      	str	r2, [r3, #24]
    256c:	687b      	ldr	r3, [r7, #4]
    256e:	2200      	movs	r2, #0
    2570:	611a      	str	r2, [r3, #16]
    2572:	bf00      	nop
    2574:	3708      	adds	r7, #8
    2576:	46bd      	mov	sp, r7
    2578:	bd80      	pop	{r7, pc}

0000257a <mutex_lock>:
    257a:	b580      	push	{r7, lr}
    257c:	b086      	sub	sp, #24
    257e:	af02      	add	r7, sp, #8
    2580:	6078      	str	r0, [r7, #4]
    2582:	6039      	str	r1, [r7, #0]
    2584:	f7fe fda0 	bl	10c8 <task_enter_critical>
    2588:	60f8      	str	r0, [r7, #12]
    258a:	687b      	ldr	r3, [r7, #4]
    258c:	691b      	ldr	r3, [r3, #16]
    258e:	2b00      	cmp	r3, #0
    2590:	d112      	bne.n	25b8 <mutex_lock+0x3e>
    2592:	4b2c      	ldr	r3, [pc, #176]	; (2644 <mutex_lock+0xca>)
    2594:	681a      	ldr	r2, [r3, #0]
    2596:	687b      	ldr	r3, [r7, #4]
    2598:	615a      	str	r2, [r3, #20]
    259a:	4b2a      	ldr	r3, [pc, #168]	; (2644 <mutex_lock+0xca>)
    259c:	681b      	ldr	r3, [r3, #0]
    259e:	689a      	ldr	r2, [r3, #8]
    25a0:	687b      	ldr	r3, [r7, #4]
    25a2:	619a      	str	r2, [r3, #24]
    25a4:	687b      	ldr	r3, [r7, #4]
    25a6:	691b      	ldr	r3, [r3, #16]
    25a8:	1c5a      	adds	r2, r3, #1
    25aa:	687b      	ldr	r3, [r7, #4]
    25ac:	611a      	str	r2, [r3, #16]
    25ae:	68f8      	ldr	r0, [r7, #12]
    25b0:	f7fe fd97 	bl	10e2 <task_exit_critical>
    25b4:	2300      	movs	r3, #0
    25b6:	e041      	b.n	263c <mutex_lock+0xc2>
    25b8:	687b      	ldr	r3, [r7, #4]
    25ba:	695a      	ldr	r2, [r3, #20]
    25bc:	4b21      	ldr	r3, [pc, #132]	; (2644 <mutex_lock+0xca>)
    25be:	681b      	ldr	r3, [r3, #0]
    25c0:	429a      	cmp	r2, r3
    25c2:	d109      	bne.n	25d8 <mutex_lock+0x5e>
    25c4:	687b      	ldr	r3, [r7, #4]
    25c6:	691b      	ldr	r3, [r3, #16]
    25c8:	1c5a      	adds	r2, r3, #1
    25ca:	687b      	ldr	r3, [r7, #4]
    25cc:	611a      	str	r2, [r3, #16]
    25ce:	68f8      	ldr	r0, [r7, #12]
    25d0:	f7fe fd87 	bl	10e2 <task_exit_critical>
    25d4:	2300      	movs	r3, #0
    25d6:	e031      	b.n	263c <mutex_lock+0xc2>
    25d8:	4b1a      	ldr	r3, [pc, #104]	; (2644 <mutex_lock+0xca>)
    25da:	681b      	ldr	r3, [r3, #0]
    25dc:	689a      	ldr	r2, [r3, #8]
    25de:	687b      	ldr	r3, [r7, #4]
    25e0:	695b      	ldr	r3, [r3, #20]
    25e2:	689b      	ldr	r3, [r3, #8]
    25e4:	429a      	cmp	r2, r3
    25e6:	d217      	bcs.n	2618 <mutex_lock+0x9e>
    25e8:	687b      	ldr	r3, [r7, #4]
    25ea:	695b      	ldr	r3, [r3, #20]
    25ec:	60bb      	str	r3, [r7, #8]
    25ee:	68bb      	ldr	r3, [r7, #8]
    25f0:	695b      	ldr	r3, [r3, #20]
    25f2:	2b00      	cmp	r3, #0
    25f4:	d10b      	bne.n	260e <mutex_lock+0x94>
    25f6:	68b8      	ldr	r0, [r7, #8]
    25f8:	f7fe fdf6 	bl	11e8 <task_unready>
    25fc:	4b11      	ldr	r3, [pc, #68]	; (2644 <mutex_lock+0xca>)
    25fe:	681b      	ldr	r3, [r3, #0]
    2600:	689a      	ldr	r2, [r3, #8]
    2602:	68bb      	ldr	r3, [r7, #8]
    2604:	609a      	str	r2, [r3, #8]
    2606:	68b8      	ldr	r0, [r7, #8]
    2608:	f7fe fdce 	bl	11a8 <task_ready>
    260c:	e004      	b.n	2618 <mutex_lock+0x9e>
    260e:	4b0d      	ldr	r3, [pc, #52]	; (2644 <mutex_lock+0xca>)
    2610:	681b      	ldr	r3, [r3, #0]
    2612:	689a      	ldr	r2, [r3, #8]
    2614:	68bb      	ldr	r3, [r7, #8]
    2616:	609a      	str	r2, [r3, #8]
    2618:	6878      	ldr	r0, [r7, #4]
    261a:	4b0a      	ldr	r3, [pc, #40]	; (2644 <mutex_lock+0xca>)
    261c:	6819      	ldr	r1, [r3, #0]
    261e:	683b      	ldr	r3, [r7, #0]
    2620:	9300      	str	r3, [sp, #0]
    2622:	f44f 2380 	mov.w	r3, #262144	; 0x40000
    2626:	2200      	movs	r2, #0
    2628:	f7ff f9b9 	bl	199e <event_wait>
    262c:	68f8      	ldr	r0, [r7, #12]
    262e:	f7fe fd58 	bl	10e2 <task_exit_critical>
    2632:	f7fe fc13 	bl	e5c <task_sched>
    2636:	4b03      	ldr	r3, [pc, #12]	; (2644 <mutex_lock+0xca>)
    2638:	681b      	ldr	r3, [r3, #0]
    263a:	6bdb      	ldr	r3, [r3, #60]	; 0x3c
    263c:	4618      	mov	r0, r3
    263e:	3710      	adds	r7, #16
    2640:	46bd      	mov	sp, r7
    2642:	bd80      	pop	{r7, pc}
    2644:	20000000 	andcs	r0, r0, r0

00002648 <mutex_lock_no_wait>:
    2648:	b580      	push	{r7, lr}
    264a:	b084      	sub	sp, #16
    264c:	af00      	add	r7, sp, #0
    264e:	6078      	str	r0, [r7, #4]
    2650:	f7fe fd3a 	bl	10c8 <task_enter_critical>
    2654:	60f8      	str	r0, [r7, #12]
    2656:	687b      	ldr	r3, [r7, #4]
    2658:	691b      	ldr	r3, [r3, #16]
    265a:	2b00      	cmp	r3, #0
    265c:	d112      	bne.n	2684 <mutex_lock_no_wait+0x3c>
    265e:	4b15      	ldr	r3, [pc, #84]	; (26b4 <mutex_lock_no_wait+0x6c>)
    2660:	681a      	ldr	r2, [r3, #0]
    2662:	687b      	ldr	r3, [r7, #4]
    2664:	615a      	str	r2, [r3, #20]
    2666:	4b13      	ldr	r3, [pc, #76]	; (26b4 <mutex_lock_no_wait+0x6c>)
    2668:	681b      	ldr	r3, [r3, #0]
    266a:	689a      	ldr	r2, [r3, #8]
    266c:	687b      	ldr	r3, [r7, #4]
    266e:	619a      	str	r2, [r3, #24]
    2670:	687b      	ldr	r3, [r7, #4]
    2672:	691b      	ldr	r3, [r3, #16]
    2674:	1c5a      	adds	r2, r3, #1
    2676:	687b      	ldr	r3, [r7, #4]
    2678:	611a      	str	r2, [r3, #16]
    267a:	68f8      	ldr	r0, [r7, #12]
    267c:	f7fe fd31 	bl	10e2 <task_exit_critical>
    2680:	2300      	movs	r3, #0
    2682:	e013      	b.n	26ac <mutex_lock_no_wait+0x64>
    2684:	687b      	ldr	r3, [r7, #4]
    2686:	695a      	ldr	r2, [r3, #20]
    2688:	4b0a      	ldr	r3, [pc, #40]	; (26b4 <mutex_lock_no_wait+0x6c>)
    268a:	681b      	ldr	r3, [r3, #0]
    268c:	429a      	cmp	r2, r3
    268e:	d109      	bne.n	26a4 <mutex_lock_no_wait+0x5c>
    2690:	687b      	ldr	r3, [r7, #4]
    2692:	691b      	ldr	r3, [r3, #16]
    2694:	1c5a      	adds	r2, r3, #1
    2696:	687b      	ldr	r3, [r7, #4]
    2698:	611a      	str	r2, [r3, #16]
    269a:	68f8      	ldr	r0, [r7, #12]
    269c:	f7fe fd21 	bl	10e2 <task_exit_critical>
    26a0:	2300      	movs	r3, #0
    26a2:	e003      	b.n	26ac <mutex_lock_no_wait+0x64>
    26a4:	68f8      	ldr	r0, [r7, #12]
    26a6:	f7fe fd1c 	bl	10e2 <task_exit_critical>
    26aa:	2303      	movs	r3, #3
    26ac:	4618      	mov	r0, r3
    26ae:	3710      	adds	r7, #16
    26b0:	46bd      	mov	sp, r7
    26b2:	bd80      	pop	{r7, pc}
    26b4:	20000000 	andcs	r0, r0, r0

000026b8 <mutex_unlock>:
    26b8:	b580      	push	{r7, lr}
    26ba:	b084      	sub	sp, #16
    26bc:	af00      	add	r7, sp, #0
    26be:	6078      	str	r0, [r7, #4]
    26c0:	f7fe fd02 	bl	10c8 <task_enter_critical>
    26c4:	60f8      	str	r0, [r7, #12]
    26c6:	687b      	ldr	r3, [r7, #4]
    26c8:	691b      	ldr	r3, [r3, #16]
    26ca:	2b00      	cmp	r3, #0
    26cc:	d104      	bne.n	26d8 <mutex_unlock+0x20>
    26ce:	68f8      	ldr	r0, [r7, #12]
    26d0:	f7fe fd07 	bl	10e2 <task_exit_critical>
    26d4:	2300      	movs	r3, #0
    26d6:	e060      	b.n	279a <mutex_unlock+0xe2>
    26d8:	687b      	ldr	r3, [r7, #4]
    26da:	695a      	ldr	r2, [r3, #20]
    26dc:	4b31      	ldr	r3, [pc, #196]	; (27a4 <mutex_unlock+0xec>)
    26de:	681b      	ldr	r3, [r3, #0]
    26e0:	429a      	cmp	r2, r3
    26e2:	d004      	beq.n	26ee <mutex_unlock+0x36>
    26e4:	68f8      	ldr	r0, [r7, #12]
    26e6:	f7fe fcfc 	bl	10e2 <task_exit_critical>
    26ea:	2304      	movs	r3, #4
    26ec:	e055      	b.n	279a <mutex_unlock+0xe2>
    26ee:	687b      	ldr	r3, [r7, #4]
    26f0:	691b      	ldr	r3, [r3, #16]
    26f2:	1e5a      	subs	r2, r3, #1
    26f4:	687b      	ldr	r3, [r7, #4]
    26f6:	611a      	str	r2, [r3, #16]
    26f8:	687b      	ldr	r3, [r7, #4]
    26fa:	691b      	ldr	r3, [r3, #16]
    26fc:	2b00      	cmp	r3, #0
    26fe:	d004      	beq.n	270a <mutex_unlock+0x52>
    2700:	68f8      	ldr	r0, [r7, #12]
    2702:	f7fe fcee 	bl	10e2 <task_exit_critical>
    2706:	2300      	movs	r3, #0
    2708:	e047      	b.n	279a <mutex_unlock+0xe2>
    270a:	687b      	ldr	r3, [r7, #4]
    270c:	699a      	ldr	r2, [r3, #24]
    270e:	687b      	ldr	r3, [r7, #4]
    2710:	695b      	ldr	r3, [r3, #20]
    2712:	689b      	ldr	r3, [r3, #8]
    2714:	429a      	cmp	r2, r3
    2716:	d019      	beq.n	274c <mutex_unlock+0x94>
    2718:	687b      	ldr	r3, [r7, #4]
    271a:	695b      	ldr	r3, [r3, #20]
    271c:	695b      	ldr	r3, [r3, #20]
    271e:	2b00      	cmp	r3, #0
    2720:	d10f      	bne.n	2742 <mutex_unlock+0x8a>
    2722:	687b      	ldr	r3, [r7, #4]
    2724:	695b      	ldr	r3, [r3, #20]
    2726:	4618      	mov	r0, r3
    2728:	f7fe fd5e 	bl	11e8 <task_unready>
    272c:	4b1d      	ldr	r3, [pc, #116]	; (27a4 <mutex_unlock+0xec>)
    272e:	681b      	ldr	r3, [r3, #0]
    2730:	687a      	ldr	r2, [r7, #4]
    2732:	6992      	ldr	r2, [r2, #24]
    2734:	609a      	str	r2, [r3, #8]
    2736:	687b      	ldr	r3, [r7, #4]
    2738:	695b      	ldr	r3, [r3, #20]
    273a:	4618      	mov	r0, r3
    273c:	f7fe fd34 	bl	11a8 <task_ready>
    2740:	e004      	b.n	274c <mutex_unlock+0x94>
    2742:	4b18      	ldr	r3, [pc, #96]	; (27a4 <mutex_unlock+0xec>)
    2744:	681b      	ldr	r3, [r3, #0]
    2746:	687a      	ldr	r2, [r7, #4]
    2748:	6992      	ldr	r2, [r2, #24]
    274a:	609a      	str	r2, [r3, #8]
    274c:	687b      	ldr	r3, [r7, #4]
    274e:	4618      	mov	r0, r3
    2750:	f7ff fa32 	bl	1bb8 <event_wait_count>
    2754:	4603      	mov	r3, r0
    2756:	2b00      	cmp	r3, #0
    2758:	d01b      	beq.n	2792 <mutex_unlock+0xda>
    275a:	687b      	ldr	r3, [r7, #4]
    275c:	2200      	movs	r2, #0
    275e:	2100      	movs	r1, #0
    2760:	4618      	mov	r0, r3
    2762:	f7ff f94b 	bl	19fc <event_wakeup>
    2766:	60b8      	str	r0, [r7, #8]
    2768:	687b      	ldr	r3, [r7, #4]
    276a:	68ba      	ldr	r2, [r7, #8]
    276c:	615a      	str	r2, [r3, #20]
    276e:	68bb      	ldr	r3, [r7, #8]
    2770:	689a      	ldr	r2, [r3, #8]
    2772:	687b      	ldr	r3, [r7, #4]
    2774:	619a      	str	r2, [r3, #24]
    2776:	687b      	ldr	r3, [r7, #4]
    2778:	691b      	ldr	r3, [r3, #16]
    277a:	1c5a      	adds	r2, r3, #1
    277c:	687b      	ldr	r3, [r7, #4]
    277e:	611a      	str	r2, [r3, #16]
    2780:	68bb      	ldr	r3, [r7, #8]
    2782:	689a      	ldr	r2, [r3, #8]
    2784:	4b07      	ldr	r3, [pc, #28]	; (27a4 <mutex_unlock+0xec>)
    2786:	681b      	ldr	r3, [r3, #0]
    2788:	689b      	ldr	r3, [r3, #8]
    278a:	429a      	cmp	r2, r3
    278c:	d201      	bcs.n	2792 <mutex_unlock+0xda>
    278e:	f7fe fb65 	bl	e5c <task_sched>
    2792:	68f8      	ldr	r0, [r7, #12]
    2794:	f7fe fca5 	bl	10e2 <task_exit_critical>
    2798:	2300      	movs	r3, #0
    279a:	4618      	mov	r0, r3
    279c:	3710      	adds	r7, #16
    279e:	46bd      	mov	sp, r7
    27a0:	bd80      	pop	{r7, pc}
    27a2:	bf00      	nop
    27a4:	20000000 	andcs	r0, r0, r0

000027a8 <mutex_destory>:
    27a8:	b580      	push	{r7, lr}
    27aa:	b084      	sub	sp, #16
    27ac:	af00      	add	r7, sp, #0
    27ae:	6078      	str	r0, [r7, #4]
    27b0:	2300      	movs	r3, #0
    27b2:	60fb      	str	r3, [r7, #12]
    27b4:	f7fe fc88 	bl	10c8 <task_enter_critical>
    27b8:	60b8      	str	r0, [r7, #8]
    27ba:	687b      	ldr	r3, [r7, #4]
    27bc:	691b      	ldr	r3, [r3, #16]
    27be:	2b00      	cmp	r3, #0
    27c0:	d020      	beq.n	2804 <mutex_destory+0x5c>
    27c2:	687b      	ldr	r3, [r7, #4]
    27c4:	699a      	ldr	r2, [r3, #24]
    27c6:	687b      	ldr	r3, [r7, #4]
    27c8:	695b      	ldr	r3, [r3, #20]
    27ca:	689b      	ldr	r3, [r3, #8]
    27cc:	429a      	cmp	r2, r3
    27ce:	d019      	beq.n	2804 <mutex_destory+0x5c>
    27d0:	687b      	ldr	r3, [r7, #4]
    27d2:	695b      	ldr	r3, [r3, #20]
    27d4:	695b      	ldr	r3, [r3, #20]
    27d6:	2b00      	cmp	r3, #0
    27d8:	d10f      	bne.n	27fa <mutex_destory+0x52>
    27da:	687b      	ldr	r3, [r7, #4]
    27dc:	695b      	ldr	r3, [r3, #20]
    27de:	4618      	mov	r0, r3
    27e0:	f7fe fd02 	bl	11e8 <task_unready>
    27e4:	687b      	ldr	r3, [r7, #4]
    27e6:	695b      	ldr	r3, [r3, #20]
    27e8:	687a      	ldr	r2, [r7, #4]
    27ea:	6992      	ldr	r2, [r2, #24]
    27ec:	609a      	str	r2, [r3, #8]
    27ee:	687b      	ldr	r3, [r7, #4]
    27f0:	695b      	ldr	r3, [r3, #20]
    27f2:	4618      	mov	r0, r3
    27f4:	f7fe fcd8 	bl	11a8 <task_ready>
    27f8:	e004      	b.n	2804 <mutex_destory+0x5c>
    27fa:	687b      	ldr	r3, [r7, #4]
    27fc:	695b      	ldr	r3, [r3, #20]
    27fe:	687a      	ldr	r2, [r7, #4]
    2800:	6992      	ldr	r2, [r2, #24]
    2802:	609a      	str	r2, [r3, #8]
    2804:	687b      	ldr	r3, [r7, #4]
    2806:	2202      	movs	r2, #2
    2808:	2100      	movs	r1, #0
    280a:	4618      	mov	r0, r3
    280c:	f7ff f985 	bl	1b1a <event_remove_all>
    2810:	60f8      	str	r0, [r7, #12]
    2812:	68fb      	ldr	r3, [r7, #12]
    2814:	2b00      	cmp	r3, #0
    2816:	d001      	beq.n	281c <mutex_destory+0x74>
    2818:	f7fe fb20 	bl	e5c <task_sched>
    281c:	68b8      	ldr	r0, [r7, #8]
    281e:	f7fe fc60 	bl	10e2 <task_exit_critical>
    2822:	2300      	movs	r3, #0
    2824:	4618      	mov	r0, r3
    2826:	3710      	adds	r7, #16
    2828:	46bd      	mov	sp, r7
    282a:	bd80      	pop	{r7, pc}

0000282c <mutex_get_info>:
    282c:	b580      	push	{r7, lr}
    282e:	b084      	sub	sp, #16
    2830:	af00      	add	r7, sp, #0
    2832:	6078      	str	r0, [r7, #4]
    2834:	6039      	str	r1, [r7, #0]
    2836:	f7fe fc47 	bl	10c8 <task_enter_critical>
    283a:	60f8      	str	r0, [r7, #12]
    283c:	687b      	ldr	r3, [r7, #4]
    283e:	4618      	mov	r0, r3
    2840:	f7ff f9ba 	bl	1bb8 <event_wait_count>
    2844:	4602      	mov	r2, r0
    2846:	683b      	ldr	r3, [r7, #0]
    2848:	601a      	str	r2, [r3, #0]
    284a:	687b      	ldr	r3, [r7, #4]
    284c:	699a      	ldr	r2, [r3, #24]
    284e:	683b      	ldr	r3, [r7, #0]
    2850:	605a      	str	r2, [r3, #4]
    2852:	687b      	ldr	r3, [r7, #4]
    2854:	695b      	ldr	r3, [r3, #20]
    2856:	2b00      	cmp	r3, #0
    2858:	d005      	beq.n	2866 <mutex_get_info+0x3a>
    285a:	687b      	ldr	r3, [r7, #4]
    285c:	695b      	ldr	r3, [r3, #20]
    285e:	689a      	ldr	r2, [r3, #8]
    2860:	683b      	ldr	r3, [r7, #0]
    2862:	609a      	str	r2, [r3, #8]
    2864:	e002      	b.n	286c <mutex_get_info+0x40>
    2866:	683b      	ldr	r3, [r7, #0]
    2868:	2220      	movs	r2, #32
    286a:	609a      	str	r2, [r3, #8]
    286c:	687b      	ldr	r3, [r7, #4]
    286e:	695a      	ldr	r2, [r3, #20]
    2870:	683b      	ldr	r3, [r7, #0]
    2872:	60da      	str	r2, [r3, #12]
    2874:	687b      	ldr	r3, [r7, #4]
    2876:	691a      	ldr	r2, [r3, #16]
    2878:	683b      	ldr	r3, [r7, #0]
    287a:	611a      	str	r2, [r3, #16]
    287c:	68f8      	ldr	r0, [r7, #12]
    287e:	f7fe fc30 	bl	10e2 <task_exit_critical>
    2882:	bf00      	nop
    2884:	3710      	adds	r7, #16
    2886:	46bd      	mov	sp, r7
    2888:	bd80      	pop	{r7, pc}
    288a:	bf00      	nop

0000288c <flag_group_init>:
    288c:	b580      	push	{r7, lr}
    288e:	b082      	sub	sp, #8
    2890:	af00      	add	r7, sp, #0
    2892:	6078      	str	r0, [r7, #4]
    2894:	6039      	str	r1, [r7, #0]
    2896:	687b      	ldr	r3, [r7, #4]
    2898:	f44f 21a0 	mov.w	r1, #327680	; 0x50000
    289c:	4618      	mov	r0, r3
    289e:	f7ff f86d 	bl	197c <event_init>
    28a2:	687b      	ldr	r3, [r7, #4]
    28a4:	683a      	ldr	r2, [r7, #0]
    28a6:	611a      	str	r2, [r3, #16]
    28a8:	bf00      	nop
    28aa:	3708      	adds	r7, #8
    28ac:	46bd      	mov	sp, r7
    28ae:	bd80      	pop	{r7, pc}

000028b0 <flag_group_check_and_consume>:
    28b0:	b480      	push	{r7}
    28b2:	b08b      	sub	sp, #44	; 0x2c
    28b4:	af00      	add	r7, sp, #0
    28b6:	60f8      	str	r0, [r7, #12]
    28b8:	60b9      	str	r1, [r7, #8]
    28ba:	607a      	str	r2, [r7, #4]
    28bc:	687b      	ldr	r3, [r7, #4]
    28be:	681b      	ldr	r3, [r3, #0]
    28c0:	627b      	str	r3, [r7, #36]	; 0x24
    28c2:	68bb      	ldr	r3, [r7, #8]
    28c4:	f003 0301 	and.w	r3, r3, #1
    28c8:	623b      	str	r3, [r7, #32]
    28ca:	68bb      	ldr	r3, [r7, #8]
    28cc:	f003 0302 	and.w	r3, r3, #2
    28d0:	61fb      	str	r3, [r7, #28]
    28d2:	68bb      	ldr	r3, [r7, #8]
    28d4:	f003 0380 	and.w	r3, r3, #128	; 0x80
    28d8:	61bb      	str	r3, [r7, #24]
    28da:	6a3b      	ldr	r3, [r7, #32]
    28dc:	2b00      	cmp	r3, #0
    28de:	d004      	beq.n	28ea <flag_group_check_and_consume+0x3a>
    28e0:	68fb      	ldr	r3, [r7, #12]
    28e2:	691a      	ldr	r2, [r3, #16]
    28e4:	6a7b      	ldr	r3, [r7, #36]	; 0x24
    28e6:	4013      	ands	r3, r2
    28e8:	e004      	b.n	28f4 <flag_group_check_and_consume+0x44>
    28ea:	68fb      	ldr	r3, [r7, #12]
    28ec:	691b      	ldr	r3, [r3, #16]
    28ee:	43da      	mvns	r2, r3
    28f0:	6a7b      	ldr	r3, [r7, #36]	; 0x24
    28f2:	4013      	ands	r3, r2
    28f4:	617b      	str	r3, [r7, #20]
    28f6:	69fb      	ldr	r3, [r7, #28]
    28f8:	2b00      	cmp	r3, #0
    28fa:	d003      	beq.n	2904 <flag_group_check_and_consume+0x54>
    28fc:	697a      	ldr	r2, [r7, #20]
    28fe:	6a7b      	ldr	r3, [r7, #36]	; 0x24
    2900:	429a      	cmp	r2, r3
    2902:	d005      	beq.n	2910 <flag_group_check_and_consume+0x60>
    2904:	69fb      	ldr	r3, [r7, #28]
    2906:	2b00      	cmp	r3, #0
    2908:	d11b      	bne.n	2942 <flag_group_check_and_consume+0x92>
    290a:	697b      	ldr	r3, [r7, #20]
    290c:	2b00      	cmp	r3, #0
    290e:	d018      	beq.n	2942 <flag_group_check_and_consume+0x92>
    2910:	69bb      	ldr	r3, [r7, #24]
    2912:	2b00      	cmp	r3, #0
    2914:	d010      	beq.n	2938 <flag_group_check_and_consume+0x88>
    2916:	6a3b      	ldr	r3, [r7, #32]
    2918:	2b00      	cmp	r3, #0
    291a:	d007      	beq.n	292c <flag_group_check_and_consume+0x7c>
    291c:	68fb      	ldr	r3, [r7, #12]
    291e:	691a      	ldr	r2, [r3, #16]
    2920:	6a7b      	ldr	r3, [r7, #36]	; 0x24
    2922:	43db      	mvns	r3, r3
    2924:	401a      	ands	r2, r3
    2926:	68fb      	ldr	r3, [r7, #12]
    2928:	611a      	str	r2, [r3, #16]
    292a:	e005      	b.n	2938 <flag_group_check_and_consume+0x88>
    292c:	68fb      	ldr	r3, [r7, #12]
    292e:	691a      	ldr	r2, [r3, #16]
    2930:	6a7b      	ldr	r3, [r7, #36]	; 0x24
    2932:	431a      	orrs	r2, r3
    2934:	68fb      	ldr	r3, [r7, #12]
    2936:	611a      	str	r2, [r3, #16]
    2938:	687b      	ldr	r3, [r7, #4]
    293a:	697a      	ldr	r2, [r7, #20]
    293c:	601a      	str	r2, [r3, #0]
    293e:	2300      	movs	r3, #0
    2940:	e003      	b.n	294a <flag_group_check_and_consume+0x9a>
    2942:	687b      	ldr	r3, [r7, #4]
    2944:	697a      	ldr	r2, [r7, #20]
    2946:	601a      	str	r2, [r3, #0]
    2948:	2303      	movs	r3, #3
    294a:	4618      	mov	r0, r3
    294c:	372c      	adds	r7, #44	; 0x2c
    294e:	46bd      	mov	sp, r7
    2950:	bc80      	pop	{r7}
    2952:	4770      	bx	lr

00002954 <flag_group_wait>:
    2954:	b580      	push	{r7, lr}
    2956:	b08a      	sub	sp, #40	; 0x28
    2958:	af02      	add	r7, sp, #8
    295a:	60f8      	str	r0, [r7, #12]
    295c:	60b9      	str	r1, [r7, #8]
    295e:	607a      	str	r2, [r7, #4]
    2960:	603b      	str	r3, [r7, #0]
    2962:	687b      	ldr	r3, [r7, #4]
    2964:	617b      	str	r3, [r7, #20]
    2966:	f7fe fbaf 	bl	10c8 <task_enter_critical>
    296a:	61f8      	str	r0, [r7, #28]
    296c:	f107 0314 	add.w	r3, r7, #20
    2970:	461a      	mov	r2, r3
    2972:	68b9      	ldr	r1, [r7, #8]
    2974:	68f8      	ldr	r0, [r7, #12]
    2976:	f7ff ff9b 	bl	28b0 <flag_group_check_and_consume>
    297a:	61b8      	str	r0, [r7, #24]
    297c:	69bb      	ldr	r3, [r7, #24]
    297e:	2b00      	cmp	r3, #0
    2980:	d01c      	beq.n	29bc <flag_group_wait+0x68>
    2982:	4b14      	ldr	r3, [pc, #80]	; (29d4 <flag_group_wait+0x80>)
    2984:	681b      	ldr	r3, [r3, #0]
    2986:	68ba      	ldr	r2, [r7, #8]
    2988:	641a      	str	r2, [r3, #64]	; 0x40
    298a:	4b12      	ldr	r3, [pc, #72]	; (29d4 <flag_group_wait+0x80>)
    298c:	681b      	ldr	r3, [r3, #0]
    298e:	687a      	ldr	r2, [r7, #4]
    2990:	645a      	str	r2, [r3, #68]	; 0x44
    2992:	68f8      	ldr	r0, [r7, #12]
    2994:	4b0f      	ldr	r3, [pc, #60]	; (29d4 <flag_group_wait+0x80>)
    2996:	6819      	ldr	r1, [r3, #0]
    2998:	6abb      	ldr	r3, [r7, #40]	; 0x28
    299a:	9300      	str	r3, [sp, #0]
    299c:	f44f 23a0 	mov.w	r3, #327680	; 0x50000
    29a0:	2200      	movs	r2, #0
    29a2:	f7fe fffc 	bl	199e <event_wait>
    29a6:	69f8      	ldr	r0, [r7, #28]
    29a8:	f7fe fb9b 	bl	10e2 <task_exit_critical>
    29ac:	f7fe fa56 	bl	e5c <task_sched>
    29b0:	4b08      	ldr	r3, [pc, #32]	; (29d4 <flag_group_wait+0x80>)
    29b2:	681b      	ldr	r3, [r3, #0]
    29b4:	6c5a      	ldr	r2, [r3, #68]	; 0x44
    29b6:	683b      	ldr	r3, [r7, #0]
    29b8:	601a      	str	r2, [r3, #0]
    29ba:	e005      	b.n	29c8 <flag_group_wait+0x74>
    29bc:	697a      	ldr	r2, [r7, #20]
    29be:	683b      	ldr	r3, [r7, #0]
    29c0:	601a      	str	r2, [r3, #0]
    29c2:	69f8      	ldr	r0, [r7, #28]
    29c4:	f7fe fb8d 	bl	10e2 <task_exit_critical>
    29c8:	69bb      	ldr	r3, [r7, #24]
    29ca:	4618      	mov	r0, r3
    29cc:	3720      	adds	r7, #32
    29ce:	46bd      	mov	sp, r7
    29d0:	bd80      	pop	{r7, pc}
    29d2:	bf00      	nop
    29d4:	20000000 	andcs	r0, r0, r0

000029d8 <flag_group_no_wait_get>:
    29d8:	b580      	push	{r7, lr}
    29da:	b088      	sub	sp, #32
    29dc:	af00      	add	r7, sp, #0
    29de:	60f8      	str	r0, [r7, #12]
    29e0:	60b9      	str	r1, [r7, #8]
    29e2:	607a      	str	r2, [r7, #4]
    29e4:	603b      	str	r3, [r7, #0]
    29e6:	687b      	ldr	r3, [r7, #4]
    29e8:	61fb      	str	r3, [r7, #28]
    29ea:	f7fe fb6d 	bl	10c8 <task_enter_critical>
    29ee:	61b8      	str	r0, [r7, #24]
    29f0:	1d3b      	adds	r3, r7, #4
    29f2:	461a      	mov	r2, r3
    29f4:	68b9      	ldr	r1, [r7, #8]
    29f6:	68f8      	ldr	r0, [r7, #12]
    29f8:	f7ff ff5a 	bl	28b0 <flag_group_check_and_consume>
    29fc:	6178      	str	r0, [r7, #20]
    29fe:	69b8      	ldr	r0, [r7, #24]
    2a00:	f7fe fb6f 	bl	10e2 <task_exit_critical>
    2a04:	683b      	ldr	r3, [r7, #0]
    2a06:	69fa      	ldr	r2, [r7, #28]
    2a08:	601a      	str	r2, [r3, #0]
    2a0a:	697b      	ldr	r3, [r7, #20]
    2a0c:	4618      	mov	r0, r3
    2a0e:	3720      	adds	r7, #32
    2a10:	46bd      	mov	sp, r7
    2a12:	bd80      	pop	{r7, pc}

00002a14 <flag_group_notify>:
    2a14:	b580      	push	{r7, lr}
    2a16:	b08c      	sub	sp, #48	; 0x30
    2a18:	af00      	add	r7, sp, #0
    2a1a:	60f8      	str	r0, [r7, #12]
    2a1c:	460b      	mov	r3, r1
    2a1e:	607a      	str	r2, [r7, #4]
    2a20:	72fb      	strb	r3, [r7, #11]
    2a22:	f7fe fb51 	bl	10c8 <task_enter_critical>
    2a26:	6278      	str	r0, [r7, #36]	; 0x24
    2a28:	2300      	movs	r3, #0
    2a2a:	f887 302b 	strb.w	r3, [r7, #43]	; 0x2b
    2a2e:	7afb      	ldrb	r3, [r7, #11]
    2a30:	2b00      	cmp	r3, #0
    2a32:	d006      	beq.n	2a42 <flag_group_notify+0x2e>
    2a34:	68fb      	ldr	r3, [r7, #12]
    2a36:	691a      	ldr	r2, [r3, #16]
    2a38:	687b      	ldr	r3, [r7, #4]
    2a3a:	431a      	orrs	r2, r3
    2a3c:	68fb      	ldr	r3, [r7, #12]
    2a3e:	611a      	str	r2, [r3, #16]
    2a40:	e006      	b.n	2a50 <flag_group_notify+0x3c>
    2a42:	68fb      	ldr	r3, [r7, #12]
    2a44:	691a      	ldr	r2, [r3, #16]
    2a46:	687b      	ldr	r3, [r7, #4]
    2a48:	43db      	mvns	r3, r3
    2a4a:	401a      	ands	r2, r3
    2a4c:	68fb      	ldr	r3, [r7, #12]
    2a4e:	611a      	str	r2, [r3, #16]
    2a50:	68fb      	ldr	r3, [r7, #12]
    2a52:	3304      	adds	r3, #4
    2a54:	623b      	str	r3, [r7, #32]
    2a56:	6a3b      	ldr	r3, [r7, #32]
    2a58:	685b      	ldr	r3, [r3, #4]
    2a5a:	62fb      	str	r3, [r7, #44]	; 0x2c
    2a5c:	e022      	b.n	2aa4 <flag_group_notify+0x90>
    2a5e:	6afb      	ldr	r3, [r7, #44]	; 0x2c
    2a60:	3b18      	subs	r3, #24
    2a62:	61fb      	str	r3, [r7, #28]
    2a64:	69fb      	ldr	r3, [r7, #28]
    2a66:	6c5b      	ldr	r3, [r3, #68]	; 0x44
    2a68:	613b      	str	r3, [r7, #16]
    2a6a:	6afb      	ldr	r3, [r7, #44]	; 0x2c
    2a6c:	685b      	ldr	r3, [r3, #4]
    2a6e:	61bb      	str	r3, [r7, #24]
    2a70:	69fb      	ldr	r3, [r7, #28]
    2a72:	6c1b      	ldr	r3, [r3, #64]	; 0x40
    2a74:	f107 0210 	add.w	r2, r7, #16
    2a78:	4619      	mov	r1, r3
    2a7a:	68f8      	ldr	r0, [r7, #12]
    2a7c:	f7ff ff18 	bl	28b0 <flag_group_check_and_consume>
    2a80:	6178      	str	r0, [r7, #20]
    2a82:	697b      	ldr	r3, [r7, #20]
    2a84:	2b00      	cmp	r3, #0
    2a86:	d10b      	bne.n	2aa0 <flag_group_notify+0x8c>
    2a88:	693a      	ldr	r2, [r7, #16]
    2a8a:	69fb      	ldr	r3, [r7, #28]
    2a8c:	645a      	str	r2, [r3, #68]	; 0x44
    2a8e:	68f8      	ldr	r0, [r7, #12]
    2a90:	2300      	movs	r3, #0
    2a92:	2200      	movs	r2, #0
    2a94:	69f9      	ldr	r1, [r7, #28]
    2a96:	f7fe ffe8 	bl	1a6a <event_wakeup_task>
    2a9a:	2301      	movs	r3, #1
    2a9c:	f887 302b 	strb.w	r3, [r7, #43]	; 0x2b
    2aa0:	69bb      	ldr	r3, [r7, #24]
    2aa2:	62fb      	str	r3, [r7, #44]	; 0x2c
    2aa4:	6a3b      	ldr	r3, [r7, #32]
    2aa6:	6afa      	ldr	r2, [r7, #44]	; 0x2c
    2aa8:	429a      	cmp	r2, r3
    2aaa:	d1d8      	bne.n	2a5e <flag_group_notify+0x4a>
    2aac:	f897 302b 	ldrb.w	r3, [r7, #43]	; 0x2b
    2ab0:	2b00      	cmp	r3, #0
    2ab2:	d001      	beq.n	2ab8 <flag_group_notify+0xa4>
    2ab4:	f7fe f9d2 	bl	e5c <task_sched>
    2ab8:	6a78      	ldr	r0, [r7, #36]	; 0x24
    2aba:	f7fe fb12 	bl	10e2 <task_exit_critical>
    2abe:	bf00      	nop
    2ac0:	3730      	adds	r7, #48	; 0x30
    2ac2:	46bd      	mov	sp, r7
    2ac4:	bd80      	pop	{r7, pc}

00002ac6 <flag_group_get_info>:
    2ac6:	b580      	push	{r7, lr}
    2ac8:	b084      	sub	sp, #16
    2aca:	af00      	add	r7, sp, #0
    2acc:	6078      	str	r0, [r7, #4]
    2ace:	6039      	str	r1, [r7, #0]
    2ad0:	f7fe fafa 	bl	10c8 <task_enter_critical>
    2ad4:	60f8      	str	r0, [r7, #12]
    2ad6:	687b      	ldr	r3, [r7, #4]
    2ad8:	691a      	ldr	r2, [r3, #16]
    2ada:	683b      	ldr	r3, [r7, #0]
    2adc:	601a      	str	r2, [r3, #0]
    2ade:	687b      	ldr	r3, [r7, #4]
    2ae0:	4618      	mov	r0, r3
    2ae2:	f7ff f869 	bl	1bb8 <event_wait_count>
    2ae6:	4602      	mov	r2, r0
    2ae8:	683b      	ldr	r3, [r7, #0]
    2aea:	605a      	str	r2, [r3, #4]
    2aec:	68f8      	ldr	r0, [r7, #12]
    2aee:	f7fe faf8 	bl	10e2 <task_exit_critical>
    2af2:	bf00      	nop
    2af4:	3710      	adds	r7, #16
    2af6:	46bd      	mov	sp, r7
    2af8:	bd80      	pop	{r7, pc}

00002afa <flag_group_destory>:
    2afa:	b580      	push	{r7, lr}
    2afc:	b084      	sub	sp, #16
    2afe:	af00      	add	r7, sp, #0
    2b00:	6078      	str	r0, [r7, #4]
    2b02:	f7fe fae1 	bl	10c8 <task_enter_critical>
    2b06:	60f8      	str	r0, [r7, #12]
    2b08:	687b      	ldr	r3, [r7, #4]
    2b0a:	2202      	movs	r2, #2
    2b0c:	2100      	movs	r1, #0
    2b0e:	4618      	mov	r0, r3
    2b10:	f7ff f803 	bl	1b1a <event_remove_all>
    2b14:	60b8      	str	r0, [r7, #8]
    2b16:	68f8      	ldr	r0, [r7, #12]
    2b18:	f7fe fae3 	bl	10e2 <task_exit_critical>
    2b1c:	68bb      	ldr	r3, [r7, #8]
    2b1e:	2b00      	cmp	r3, #0
    2b20:	d001      	beq.n	2b26 <flag_group_destory+0x2c>
    2b22:	f7fe f99b 	bl	e5c <task_sched>
    2b26:	68bb      	ldr	r3, [r7, #8]
    2b28:	4618      	mov	r0, r3
    2b2a:	3710      	adds	r7, #16
    2b2c:	46bd      	mov	sp, r7
    2b2e:	bd80      	pop	{r7, pc}

00002b30 <clear_bss>:
    2b30:	b480      	push	{r7}
    2b32:	b083      	sub	sp, #12
    2b34:	af00      	add	r7, sp, #0
    2b36:	4b0a      	ldr	r3, [pc, #40]	; (2b60 <clear_bss+0x30>)
    2b38:	681b      	ldr	r3, [r3, #0]
    2b3a:	607b      	str	r3, [r7, #4]
    2b3c:	e005      	b.n	2b4a <clear_bss+0x1a>
    2b3e:	687b      	ldr	r3, [r7, #4]
    2b40:	2200      	movs	r2, #0
    2b42:	701a      	strb	r2, [r3, #0]
    2b44:	687b      	ldr	r3, [r7, #4]
    2b46:	3301      	adds	r3, #1
    2b48:	607b      	str	r3, [r7, #4]
    2b4a:	687a      	ldr	r2, [r7, #4]
    2b4c:	4b05      	ldr	r3, [pc, #20]	; (2b64 <clear_bss+0x34>)
    2b4e:	681b      	ldr	r3, [r3, #0]
    2b50:	429a      	cmp	r2, r3
    2b52:	d3f4      	bcc.n	2b3e <clear_bss+0xe>
    2b54:	bf00      	nop
    2b56:	bf00      	nop
    2b58:	370c      	adds	r7, #12
    2b5a:	46bd      	mov	sp, r7
    2b5c:	bc80      	pop	{r7}
    2b5e:	4770      	bx	lr
    2b60:	20000000 	andcs	r0, r0, r0
    2b64:	200063ac 	andcs	r6, r0, ip, lsr #7

00002b68 <task1_entry>:
    2b68:	b580      	push	{r7, lr}
    2b6a:	b082      	sub	sp, #8
    2b6c:	af00      	add	r7, sp, #0
    2b6e:	6078      	str	r0, [r7, #4]
    2b70:	200a      	movs	r0, #10
    2b72:	f7fd fb89 	bl	288 <init_systick>
    2b76:	21ff      	movs	r1, #255	; 0xff
    2b78:	4807      	ldr	r0, [pc, #28]	; (2b98 <task1_entry+0x30>)
    2b7a:	f7ff fe87 	bl	288c <flag_group_init>
    2b7e:	4907      	ldr	r1, [pc, #28]	; (2b9c <task1_entry+0x34>)
    2b80:	4807      	ldr	r0, [pc, #28]	; (2ba0 <task1_entry+0x38>)
    2b82:	f7fd fe0f 	bl	7a4 <printk>
    2b86:	2001      	movs	r0, #1
    2b88:	f7fe f9d2 	bl	f30 <task_delay_s>
    2b8c:	2206      	movs	r2, #6
    2b8e:	2100      	movs	r1, #0
    2b90:	4801      	ldr	r0, [pc, #4]	; (2b98 <task1_entry+0x30>)
    2b92:	f7ff ff3f 	bl	2a14 <flag_group_notify>
    2b96:	e7f2      	b.n	2b7e <task1_entry+0x16>
    2b98:	20006398 	mulcs	r0, r8, r3
    2b9c:	00002ef0 	strdeq	r2, [r0], -r0
    2ba0:	00002eb8 			; <UNDEFINED> instruction: 0x00002eb8

00002ba4 <task2_entry>:
    2ba4:	b580      	push	{r7, lr}
    2ba6:	b086      	sub	sp, #24
    2ba8:	af02      	add	r7, sp, #8
    2baa:	6078      	str	r0, [r7, #4]
    2bac:	2300      	movs	r3, #0
    2bae:	60fb      	str	r3, [r7, #12]
    2bb0:	f107 030c 	add.w	r3, r7, #12
    2bb4:	f44f 62fa 	mov.w	r2, #2000	; 0x7d0
    2bb8:	9200      	str	r2, [sp, #0]
    2bba:	2204      	movs	r2, #4
    2bbc:	2182      	movs	r1, #130	; 0x82
    2bbe:	4804      	ldr	r0, [pc, #16]	; (2bd0 <task2_entry+0x2c>)
    2bc0:	f7ff fec8 	bl	2954 <flag_group_wait>
    2bc4:	4903      	ldr	r1, [pc, #12]	; (2bd4 <task2_entry+0x30>)
    2bc6:	4804      	ldr	r0, [pc, #16]	; (2bd8 <task2_entry+0x34>)
    2bc8:	f7fd fdec 	bl	7a4 <printk>
    2bcc:	e7f0      	b.n	2bb0 <task2_entry+0xc>
    2bce:	bf00      	nop
    2bd0:	20006398 	mulcs	r0, r8, r3
    2bd4:	00002efc 	strdeq	r2, [r0], -ip
    2bd8:	00002eb8 			; <UNDEFINED> instruction: 0x00002eb8

00002bdc <task3_entry>:
    2bdc:	b580      	push	{r7, lr}
    2bde:	b082      	sub	sp, #8
    2be0:	af00      	add	r7, sp, #0
    2be2:	6078      	str	r0, [r7, #4]
    2be4:	4903      	ldr	r1, [pc, #12]	; (2bf4 <task3_entry+0x18>)
    2be6:	4804      	ldr	r0, [pc, #16]	; (2bf8 <task3_entry+0x1c>)
    2be8:	f7fd fddc 	bl	7a4 <printk>
    2bec:	2001      	movs	r0, #1
    2bee:	f7fe f99f 	bl	f30 <task_delay_s>
    2bf2:	e7f7      	b.n	2be4 <task3_entry+0x8>
    2bf4:	00002f08 	andeq	r2, r0, r8, lsl #30
    2bf8:	00002eb8 			; <UNDEFINED> instruction: 0x00002eb8

00002bfc <task4_entry>:
    2bfc:	b580      	push	{r7, lr}
    2bfe:	b082      	sub	sp, #8
    2c00:	af00      	add	r7, sp, #0
    2c02:	6078      	str	r0, [r7, #4]
    2c04:	4906      	ldr	r1, [pc, #24]	; (2c20 <task4_entry+0x24>)
    2c06:	4807      	ldr	r0, [pc, #28]	; (2c24 <task4_entry+0x28>)
    2c08:	f7fd fdcc 	bl	7a4 <printk>
    2c0c:	f000 f854 	bl	2cb8 <testcase>
    2c10:	4903      	ldr	r1, [pc, #12]	; (2c20 <task4_entry+0x24>)
    2c12:	4804      	ldr	r0, [pc, #16]	; (2c24 <task4_entry+0x28>)
    2c14:	f7fd fdc6 	bl	7a4 <printk>
    2c18:	2001      	movs	r0, #1
    2c1a:	f7fe f989 	bl	f30 <task_delay_s>
    2c1e:	e7f1      	b.n	2c04 <task4_entry+0x8>
    2c20:	00002f14 	andeq	r2, r0, r4, lsl pc
    2c24:	00002eb8 			; <UNDEFINED> instruction: 0x00002eb8

00002c28 <main>:
    2c28:	b580      	push	{r7, lr}
    2c2a:	b082      	sub	sp, #8
    2c2c:	af02      	add	r7, sp, #8
    2c2e:	f7ff ff7f 	bl	2b30 <clear_bss>
    2c32:	4817      	ldr	r0, [pc, #92]	; (2c90 <main+0x68>)
    2c34:	f7fd fdb6 	bl	7a4 <printk>
    2c38:	f7fe f81f 	bl	c7a <get_psp>
    2c3c:	4603      	mov	r3, r0
    2c3e:	4619      	mov	r1, r3
    2c40:	4814      	ldr	r0, [pc, #80]	; (2c94 <main+0x6c>)
    2c42:	f7fd fdaf 	bl	7a4 <printk>
    2c46:	f7fe f81e 	bl	c86 <get_msp>
    2c4a:	4603      	mov	r3, r0
    2c4c:	4619      	mov	r1, r3
    2c4e:	4812      	ldr	r0, [pc, #72]	; (2c98 <main+0x70>)
    2c50:	f7fd fda8 	bl	7a4 <printk>
    2c54:	f7fe f9f8 	bl	1048 <init_task_module>
    2c58:	f7ff fc4c 	bl	24f4 <timer_module_init>
    2c5c:	4b0f      	ldr	r3, [pc, #60]	; (2c9c <main+0x74>)
    2c5e:	9300      	str	r3, [sp, #0]
    2c60:	2300      	movs	r3, #0
    2c62:	f04f 3211 	mov.w	r2, #286331153	; 0x11111111
    2c66:	490e      	ldr	r1, [pc, #56]	; (2ca0 <main+0x78>)
    2c68:	480e      	ldr	r0, [pc, #56]	; (2ca4 <main+0x7c>)
    2c6a:	f7fe f83e 	bl	cea <task_init>
    2c6e:	4b0e      	ldr	r3, [pc, #56]	; (2ca8 <main+0x80>)
    2c70:	9300      	str	r3, [sp, #0]
    2c72:	2301      	movs	r3, #1
    2c74:	f04f 3244 	mov.w	r2, #1145324612	; 0x44444444
    2c78:	490c      	ldr	r1, [pc, #48]	; (2cac <main+0x84>)
    2c7a:	480d      	ldr	r0, [pc, #52]	; (2cb0 <main+0x88>)
    2c7c:	f7fe f835 	bl	cea <task_init>
    2c80:	f7fe fa76 	bl	1170 <task_highest_ready>
    2c84:	4603      	mov	r3, r0
    2c86:	4a0b      	ldr	r2, [pc, #44]	; (2cb4 <main+0x8c>)
    2c88:	6013      	str	r3, [r2, #0]
    2c8a:	f7fe f91b 	bl	ec4 <task_run_first>
    2c8e:	e7fe      	b.n	2c8e <main+0x66>
    2c90:	00002ebc 			; <UNDEFINED> instruction: 0x00002ebc
    2c94:	00002ed8 	ldrdeq	r2, [r0], -r8
    2c98:	00002ee4 	andeq	r2, r0, r4, ror #29
    2c9c:	20003398 	mulcs	r0, r8, r3
    2ca0:	00002b69 	andeq	r2, r0, r9, ror #22
    2ca4:	20002278 	andcs	r2, r0, r8, ror r2
    2ca8:	20006398 	mulcs	r0, r8, r3
    2cac:	00002bfd 	strdeq	r2, [r0], -sp
    2cb0:	20002350 	andcs	r2, r0, r0, asr r3
    2cb4:	20000004 	andcs	r0, r0, r4

00002cb8 <testcase>:
    2cb8:	b580      	push	{r7, lr}
    2cba:	af00      	add	r7, sp, #0
    2cbc:	4902      	ldr	r1, [pc, #8]	; (2cc8 <testcase+0x10>)
    2cbe:	4803      	ldr	r0, [pc, #12]	; (2ccc <testcase+0x14>)
    2cc0:	f7fd fd70 	bl	7a4 <printk>
    2cc4:	bf00      	nop
    2cc6:	bd80      	pop	{r7, pc}
    2cc8:	00002f24 	andeq	r2, r0, r4, lsr #30
    2ccc:	00002f20 	andeq	r2, r0, r0, lsr #30
    2cd0:	44746e49 	ldrbtmi	r6, [r4], #-3657	; 0xfffff1b7
    2cd4:	75616665 	strbvc	r6, [r1, #-1637]!	; 0xfffff99b
    2cd8:	6148746c 	cmpvs	r8, ip, ror #8
    2cdc:	656c646e 	strbvs	r6, [ip, #-1134]!	; 0xfffffb92
    2ce0:	00000a72 	andeq	r0, r0, r2, ror sl

00002ce4 <UART0DR>:
    2ce4:	4000c000 	andmi	ip, r0, r0

00002ce8 <hex_asc_table>:
    2ce8:	33323130 	teqcc	r2, #48, 2
    2cec:	37363534 			; <UNDEFINED> instruction: 0x37363534
    2cf0:	62613938 	rsbvs	r3, r1, #56, 18	; 0xe0000
    2cf4:	66656463 	strbtvs	r6, [r5], -r3, ror #8

00002cf8 <upper_hex_asc_table>:
    2cf8:	33323130 	teqcc	r2, #48, 2
    2cfc:	37363534 			; <UNDEFINED> instruction: 0x37363534
    2d00:	42413938 	submi	r3, r1, #56, 18	; 0xe0000
    2d04:	46454443 	strbmi	r4, [r5], -r3, asr #8

00002d08 <hex_weight_value_table>:
    2d08:	00000001 	andeq	r0, r0, r1
    2d0c:	0000000a 	andeq	r0, r0, sl
    2d10:	00000064 	andeq	r0, r0, r4, rrx
    2d14:	000003e8 	andeq	r0, r0, r8, ror #7
    2d18:	00002710 	andeq	r2, r0, r0, lsl r7
    2d1c:	000186a0 	andeq	r8, r1, r0, lsr #13
    2d20:	000f4240 	andeq	r4, pc, r0, asr #4
    2d24:	00989680 	addseq	r9, r8, r0, lsl #13
    2d28:	05f5e100 	ldrbeq	lr, [r5, #256]!	; 0x100
    2d2c:	000a7325 	andeq	r7, sl, r5, lsr #6
    2d30:	6b736154 	blvs	1cdb288 <_etext+0x1cd835b>
    2d34:	666e6920 	strbtvs	r6, [lr], -r0, lsr #18
    2d38:	000a3a6f 	andeq	r3, sl, pc, ror #20
    2d3c:	616c6564 	cmnvs	ip, r4, ror #10
    2d40:	69745f79 	ldmdbvs	r4!, {r0, r3, r4, r5, r6, r8, r9, sl, fp, ip, lr}^
    2d44:	3a736b63 	bcc	1cddad8 <_etext+0x1cdabab>
    2d48:	000a6425 	andeq	r6, sl, r5, lsr #8
    2d4c:	6f697270 	svcvs	0x00697270
    2d50:	0a64253a 	beq	190c240 <_etext+0x1909313>
    2d54:	00000000 	andeq	r0, r0, r0
    2d58:	63696c73 	cmnvs	r9, #29440	; 0x7300
    2d5c:	64253a65 	strtvs	r3, [r5], #-2661	; 0xfffff59b
    2d60:	0000000a 	andeq	r0, r0, sl
    2d64:	70737573 	rsbsvc	r7, r3, r3, ror r5
    2d68:	5f646e65 	svcpl	0x00646e65
    2d6c:	3a746e63 	bcc	1d1e700 <_etext+0x1d1b7d3>
    2d70:	000a6425 	andeq	r6, sl, r5, lsr #8

00002d74 <__func__.1>:
    2d74:	6b736174 	blvs	1cdb34c <_etext+0x1cd841f>
    2d78:	696e695f 	stmdbvs	lr!, {r0, r1, r2, r3, r4, r6, r8, fp, sp, lr}^
    2d7c:	00000074 	andeq	r0, r0, r4, ror r0

00002d80 <__func__.0>:
    2d80:	6b736174 	blvs	1cdb358 <_etext+0x1cd842b>
    2d84:	6e75725f 	mrcvs	2, 3, r7, cr5, cr15, {2}
    2d88:	7269665f 	rsbvc	r6, r9, #99614720	; 0x5f00000
    2d8c:	00007473 	andeq	r7, r0, r3, ror r4

00002d90 <quick_table.0>:
    2d90:	000100ff 	strdeq	r0, [r1], -pc	; <UNPREDICTABLE>
    2d94:	00010002 	andeq	r0, r1, r2
    2d98:	00010003 	andeq	r0, r1, r3
    2d9c:	00010002 	andeq	r0, r1, r2
    2da0:	00010004 	andeq	r0, r1, r4
    2da4:	00010002 	andeq	r0, r1, r2
    2da8:	00010003 	andeq	r0, r1, r3
    2dac:	00010002 	andeq	r0, r1, r2
    2db0:	00010005 	andeq	r0, r1, r5
    2db4:	00010002 	andeq	r0, r1, r2
    2db8:	00010003 	andeq	r0, r1, r3
    2dbc:	00010002 	andeq	r0, r1, r2
    2dc0:	00010004 	andeq	r0, r1, r4
    2dc4:	00010002 	andeq	r0, r1, r2
    2dc8:	00010003 	andeq	r0, r1, r3
    2dcc:	00010002 	andeq	r0, r1, r2
    2dd0:	00010006 	andeq	r0, r1, r6
    2dd4:	00010002 	andeq	r0, r1, r2
    2dd8:	00010003 	andeq	r0, r1, r3
    2ddc:	00010002 	andeq	r0, r1, r2
    2de0:	00010004 	andeq	r0, r1, r4
    2de4:	00010002 	andeq	r0, r1, r2
    2de8:	00010003 	andeq	r0, r1, r3
    2dec:	00010002 	andeq	r0, r1, r2
    2df0:	00010005 	andeq	r0, r1, r5
    2df4:	00010002 	andeq	r0, r1, r2
    2df8:	00010003 	andeq	r0, r1, r3
    2dfc:	00010002 	andeq	r0, r1, r2
    2e00:	00010004 	andeq	r0, r1, r4
    2e04:	00010002 	andeq	r0, r1, r2
    2e08:	00010003 	andeq	r0, r1, r3
    2e0c:	00010002 	andeq	r0, r1, r2
    2e10:	00010007 	andeq	r0, r1, r7
    2e14:	00010002 	andeq	r0, r1, r2
    2e18:	00010003 	andeq	r0, r1, r3
    2e1c:	00010002 	andeq	r0, r1, r2
    2e20:	00010004 	andeq	r0, r1, r4
    2e24:	00010002 	andeq	r0, r1, r2
    2e28:	00010003 	andeq	r0, r1, r3
    2e2c:	00010002 	andeq	r0, r1, r2
    2e30:	00010005 	andeq	r0, r1, r5
    2e34:	00010002 	andeq	r0, r1, r2
    2e38:	00010003 	andeq	r0, r1, r3
    2e3c:	00010002 	andeq	r0, r1, r2
    2e40:	00010004 	andeq	r0, r1, r4
    2e44:	00010002 	andeq	r0, r1, r2
    2e48:	00010003 	andeq	r0, r1, r3
    2e4c:	00010002 	andeq	r0, r1, r2
    2e50:	00010006 	andeq	r0, r1, r6
    2e54:	00010002 	andeq	r0, r1, r2
    2e58:	00010003 	andeq	r0, r1, r3
    2e5c:	00010002 	andeq	r0, r1, r2
    2e60:	00010004 	andeq	r0, r1, r4
    2e64:	00010002 	andeq	r0, r1, r2
    2e68:	00010003 	andeq	r0, r1, r3
    2e6c:	00010002 	andeq	r0, r1, r2
    2e70:	00010005 	andeq	r0, r1, r5
    2e74:	00010002 	andeq	r0, r1, r2
    2e78:	00010003 	andeq	r0, r1, r3
    2e7c:	00010002 	andeq	r0, r1, r2
    2e80:	00010004 	andeq	r0, r1, r4
    2e84:	00010002 	andeq	r0, r1, r2
    2e88:	00010003 	andeq	r0, r1, r3
    2e8c:	00010002 	andeq	r0, r1, r2
    2e90:	0a3a7325 	beq	e9fb2c <_etext+0xe9cbff>
    2e94:	00000000 	andeq	r0, r0, r0
    2e98:	23232323 			; <UNDEFINED> instruction: 0x23232323
    2e9c:	23232323 			; <UNDEFINED> instruction: 0x23232323
    2ea0:	0000000a 	andeq	r0, r0, sl

00002ea4 <__func__.0>:
    2ea4:	6e657665 	cdpvs	6, 6, cr7, cr5, cr5, {3}
    2ea8:	65725f74 	ldrbvs	r5, [r2, #-3956]!	; 0xfffff08c
    2eac:	65766f6d 	ldrbvs	r6, [r6, #-3949]!	; 0xfffff093
    2eb0:	6c6c615f 	stfvse	f6, [ip], #-380	; 0xfffffe84
    2eb4:	00000000 	andeq	r0, r0, r0
    2eb8:	000a7325 	andeq	r7, sl, r5, lsr #6
    2ebc:	6c6c6548 	cfstr64vs	mvdx6, [ip], #-288	; 0xfffffee0
    2ec0:	5452206f 	ldrbpl	r2, [r2], #-111	; 0xffffff91
    2ec4:	4320534f 			; <UNDEFINED> instruction: 0x4320534f
    2ec8:	445f3330 	ldrbmi	r3, [pc], #-816	; 2ed0 <__func__.0+0x2c>
    2ecc:	79616c65 	stmdbvc	r1!, {r0, r2, r5, r6, sl, fp, sp, lr}^
    2ed0:	73694c5f 	cmnvc	r9, #24320	; 0x5f00
    2ed4:	00000a74 	andeq	r0, r0, r4, ror sl
    2ed8:	3a707370 	bcc	1c1fca0 <_etext+0x1c1cd73>
    2edc:	78257830 	stmdavc	r5!, {r4, r5, fp, ip, sp, lr}
    2ee0:	0000000a 	andeq	r0, r0, sl
    2ee4:	3a70736d 	bcc	1c1fca0 <_etext+0x1c1cd73>
    2ee8:	78257830 	stmdavc	r5!, {r4, r5, fp, ip, sp, lr}
    2eec:	0000000a 	andeq	r0, r0, sl

00002ef0 <__func__.3>:
    2ef0:	6b736174 	blvs	1cdb4c8 <_etext+0x1cd859b>
    2ef4:	6e655f31 	mcrvs	15, 3, r5, cr5, cr1, {1}
    2ef8:	00797274 	rsbseq	r7, r9, r4, ror r2

00002efc <__func__.2>:
    2efc:	6b736174 	blvs	1cdb4d4 <_etext+0x1cd85a7>
    2f00:	6e655f32 	mcrvs	15, 3, r5, cr5, cr2, {1}
    2f04:	00797274 	rsbseq	r7, r9, r4, ror r2

00002f08 <__func__.1>:
    2f08:	6b736174 	blvs	1cdb4e0 <_etext+0x1cd85b3>
    2f0c:	6e655f33 	mcrvs	15, 3, r5, cr5, cr3, {1}
    2f10:	00797274 	rsbseq	r7, r9, r4, ror r2

00002f14 <__func__.0>:
    2f14:	6b736174 	blvs	1cdb4ec <_etext+0x1cd85bf>
    2f18:	6e655f34 	mcrvs	15, 3, r5, cr5, cr4, {1}
    2f1c:	00797274 	rsbseq	r7, r9, r4, ror r2
    2f20:	000a7325 	andeq	r7, sl, r5, lsr #6

00002f24 <__func__.0>:
    2f24:	74736574 	ldrbtvc	r6, [r3], #-1396	; 0xfffffa8c
    2f28:	65736163 	ldrbvs	r6, [r3, #-355]!	; 0xfffffe9d
	...
